(dp0
S'headline'
p1
(dp2
S'Token_counts'
p3
(dp4
S'<a>'
p5
I1
sVapple
p6
I1
sVbattery
p7
I1
sVwww
p8
I1
sS'<h1>'
p9
I1
sV[permalink]
p10
I1
sV04
p11
I1
sS'<p>'
p12
I1
sVplease
p13
I1
sV,
p14
I2
sV.
p15
I1
sS'<header>'
p16
I1
sV2015
p17
I1
sVoutliers
p18
I1
sVmore
p19
I1
sVmarco
p20
I1
sVhttp
p21
I1
sS'<h2>'
p22
I1
sVwatch
p23
I1
sS'<time>'
p24
I1
sV[printonly]
p25
I1
sVorg
p26
I1
sV17
p27
I1
sVapril
p28
I1
sS'<span>'
p29
I1
sV[noprint]
p30
I1
ssS'Doc_count'
p31
I2
ssS'article'
p32
(dp33
g3
(dp34
V
p35
I1
sVjirgas
p36
I1
sVworkaholism
p37
I1
sVfoul
p38
I1
sVnarcotic
p39
I1
sVfour
p40
I32
sVwoods
p41
I4
sVpayoff
p42
I1
sVauthorit
p43
I4
sVelectricity
p44
I6
sVauthoriz
p45
I1
sVimamate
p46
I1
sVdigit
p47
I2
sVoceans
p48
I1
sVwjz
p49
I2
sVdisturb
p50
I2
sVbasics
p51
I1
sVprize
p52
I1
sVwednesday
p53
I6
sVstraight
p54
I3
sVswitchblade
p55
I1
sVpulse
p56
I1
sVsecond
p57
I23
sVsooth
p58
I1
sVruthless
p59
I1
sVfossil
p60
I2
sVdatabank
p61
I1
sVincreasing
p62
I4
sVherm
p63
I1
sVreporter
p64
I3
sVavery
p65
I1
sVhere
p66
I20
sVherd
p67
I2
sVreported
p68
I2
sVchina
p69
I3
sVsoutherners
p70
I2
sVpersonifi
p71
I1
sVplumlee
p72
I1
sVk
p73
I13
sVreports
p74
I5
sVcontroversy
p75
I1
sVfumbl
p76
I1
sVmilitary
p77
I12
sVi'm
p78
I3
sVcriticism
p79
I3
sVgolden
p80
I1
sVhamas
p81
I7
sVpsychological
p82
I10
sVunit
p83
I11
sVspoke
p84
I5
sVmusic
p85
I5
sVtherefore
p86
I2
sVuntil
p87
I11
sVsuccessful
p88
I4
sVbrings
p89
I1
sVrelat
p90
I5
sVhurt
p91
I1
sVglass
p92
I3
sVexce
p93
I1
sV90
p94
I3
sVhole
p95
I5
sVhold
p96
I8
sV95
p97
I1
sVantagoniz
p98
I1
sVpursue
p99
I2
sVexhale
p100
I1
sVexample
p101
I7
sVhousehold
p102
I1
sVcaution
p103
I1
sVwant
p104
I46
sVorganizer
p105
I1
sVgargantuan
p106
I1
sVabsolute
p107
I2
sVprovincial
p108
I2
sVwinkenwerder
p109
I1
sVtravel
p110
I2
sVhom
p111
I6
sVfeature
p112
I2
sVclassifi
p113
I1
sVrevisit
p114
I1
sVhow
p115
I41
sVhot
p116
I4
sVhop
p117
I2
sVsignificance
p118
I1
sVperspect
p119
I5
sVcredential
p120
I1
sVregional
p121
I1
sVstoller
p122
I1
sVinvitation
p123
I1
sVmodest
p124
I2
sVreshap
p125
I1
sVvance
p126
I1
sVeffective
p127
I3
sVwins
p128
I1
sVyouths
p129
I1
sVrevolt
p130
I1
sVheadquarters
p131
I4
sVdemocratic
p132
I3
sVhellbent
p133
I1
sVwind
p134
I4
sVsenators
p135
I3
sVvary
p136
I1
sVhandcuff
p137
I2
sVvari
p138
I2
sVfir
p139
I3
sVfit
p140
I3
sVrankings
p141
I3
sVfix
p142
I3
sVstevens
p143
I3
sVpritchard
p144
I1
sVadmirable
p145
I1
sVeasier
p146
I2
sVfil
p147
I3
sVglorify
p148
I1
sVproce
p149
I1
sVeffects
p150
I4
sVschools
p151
I13
sVwedg
p152
I1
sVsilver
p153
I1
sVcrops
p154
I1
sVvolcano
p155
I5
sVfinancial
p156
I2
sVblinder
p157
I1
sVspider
p158
I1
sVborne
p159
I1
sVmayah
p160
I1
sVre
p161
I34
sVencourage
p162
I1
sVmillions
p163
I3
sVcomplicat
p164
I4
sV[story-footer]
p165
I3
sValert
p166
I1
sVenormous
p167
I2
sVmcqueen
p168
I1
sVsilicon
p169
I1
sV1970s
p170
I2
sVrabie
p171
I1
sVconfus
p172
I1
sVmingl
p173
I1
sVwash
p174
I1
sVwasn
p175
I5
sV177
p176
I1
sVpulsar
p177
I1
sV172
p178
I1
sV170
p179
I1
sVservice
p180
I13
sVunderstat
p181
I1
sVmaster
p182
I2
sVfocal
p183
I1
sVmiller
p184
I2
sVlisten
p185
I1
sVmckinsey
p186
I4
sVwisdom
p187
I5
sVsurer
p188
I1
sVnations
p189
I2
sVproject
p190
I5
sVwillingness
p191
I1
sVboston
p192
I16
sVunprecedent
p193
I1
sVdozen
p194
I3
sVaffairs
p195
I6
sVconcrete
p196
I2
sVresponsible
p197
I2
sVdoors
p198
I2
sVlayoffs
p199
I1
sVobject
p200
I1
sVdebonair
p201
I1
sVmetrics
p202
I1
sVy
p203
I7
sVmouth
p204
I1
sVletter
p205
I2
sVmacbook
p206
I7
sVthriller
p207
I1
sVsinger
p208
I1
sVprotrud
p209
I1
sVantitrust
p210
I1
sVprofessor
p211
I6
sVwreck
p212
I1
sVtech
p213
I5
sVscream
p214
I2
sVcame
p215
I5
sVadvisory
p216
I2
sVbomb
p217
I2
sVreactor
p218
I1
sVpric
p219
I7
sVpriz
p220
I1
sVbomp
p221
I1
sVparticipate
p222
I2
sVbust
p223
I1
sVbush
p224
I25
sVrick
p225
I2
sVmend
p226
I1
sVrice
p227
I2
sVbadam
p228
I1
sVserv
p229
I1
sVpsychiatric
p230
I1
sVtipp
p231
I1
sVrelish
p232
I1
sVrelease
p233
I5
sVfait
p234
I1
sVdisaster
p235
I2
sVfair
p236
I1
sVresult
p237
I6
sVfail
p238
I7
sVbest
p239
I11
sVoceanic
p240
I1
sVambitions
p241
I1
sVlots
p242
I1
sVstamps
p243
I1
sVscore
p244
I2
sVimprimatur
p245
I1
sVpreserve
p246
I3
sVhorological
p247
I1
sVmen
p248
I7
sVnationwide
p249
I2
sVextens
p250
I3
sVextent
p251
I3
sVcarbon
p252
I3
sVadvertis
p253
I2
sVdebt
p254
I5
sVaccident
p255
I2
sVdisdain
p256
I1
sVcountry
p257
I12
sVreaders
p258
I2
sVmisguid
p259
I1
sVconcentrat
p260
I2
sVlogic
p261
I3
sVargue
p262
I1
sVschmooze
p263
I1
sVpre
p264
I1
sVassur
p265
I1
sVirresponsible
p266
I1
sVpregnancy
p267
I1
sV250
p268
I1
sVassum
p269
I2
sV255
p270
I1
sVpenalize
p271
I1
sVangel
p272
I3
sVrangers
p273
I5
sVunion
p274
I18
sVfri
p275
I1
sg15
I680
sVsubsidy
p276
I1
sVmuch
p277
I29
sV[inline-video-caption]
p278
I1
sVgraphical
p279
I1
sVspit
p280
I1
sVeastern
p281
I3
sVworker
p282
I3
sVkids
p283
I5
sVparalegals
p284
I1
sVchild
p285
I5
sVcommerce
p286
I1
sVpresidency
p287
I1
sVemploy
p288
I2
sVcalcium
p289
I1
sVmarriag
p290
I1
sVcharacterize
p291
I1
sVelicit
p292
I1
sVhygienist
p293
I1
sVsongwrit
p294
I4
sVmemorial
p295
I1
sVthings
p296
I10
sVrebellion
p297
I1
sVradioecology
p298
I1
sVsplit
p299
I1
sVrebound
p300
I1
sVeuropean
p301
I1
sVownership
p302
I1
sVtuna
p303
I1
sVfeatherweight
p304
I1
sVtune
p305
I1
sVslotnik
p306
I1
sVacademic
p307
I2
sVcorporate
p308
I5
sVopinions
p309
I1
sVsleeps
p310
I1
sVwaterboard
p311
I1
sVprevious
p312
I4
sVbroncos
p313
I1
sVeasi
p314
I3
sVhad
p315
I75
sVeasy
p316
I4
sVprison
p317
I6
sVhas
p318
I110
sVhat
p319
I1
sVhav
p320
I6
sVelders
p321
I1
sVpossible
p322
I6
sVshadow
p323
I1
sVreplace
p324
I1
sVwelterweightness
p325
I1
sVdesire
p326
I1
sVmeasur
p327
I3
sVoncor
p328
I2
sVremind
p329
I2
sVsteps
p330
I3
sVgroundwater
p331
I1
sVstepp
p332
I1
sVbonkers
p333
I1
sVattorney
p334
I7
sVright
p335
I24
sVold
p336
I20
sVcrowd
p337
I2
sVpeople
p338
I55
sVlandfall
p339
I1
sVconsultants
p340
I6
sVaspen
p341
I1
sVfor
p342
I220
sVcontinue
p343
I7
sVperiphery
p344
I1
sVdental
p345
I2
sVcolleg
p346
I8
sVmemorable
p347
I1
sVdollars
p348
I4
sVcitizens
p349
I1
sVsealver
p350
I1
sVo
p351
I16
sVvonage
p352
I1
sVpalestinians
p353
I1
sVson
p354
I5
sVadminister
p355
I3
sVsox
p356
I3
sVunambiguous
p357
I2
sVmalcom
p358
I1
sValtitude
p359
I1
sVhappi
p360
I1
sVjoseph
p361
I1
sVoverhead
p362
I2
sVhalls
p363
I1
sVheadach
p364
I1
sVoffer
p365
I8
sVarrays
p366
I1
sVinside
p367
I7
sVcomplications
p368
I1
sVpanels
p369
I5
sVpassenger
p370
I2
sVjuvenile
p371
I1
sVlater
p372
I25
sVliberal
p373
I2
sVexist
p374
I3
sVelon
p375
I4
sVeventual
p376
I5
sVfloor
p377
I3
sVcrowns
p378
I3
sVrepublic
p379
I2
sVjenkins
p380
I2
sVdevelopers
p381
I2
sVroll
p382
I2
sVintend
p383
I1
sVmodels
p384
I5
sVdevot
p385
I1
sVintens
p386
I1
sVyellowstone
p387
I1
sVeulitt
p388
I1
sVsociet
p389
I1
sV98
p390
I1
sVtime
p391
I56
sVpush
p392
I10
sVcincinnati
p393
I1
sVchain
p394
I2
sVwhoever
p395
I1
sVdecid
p396
I4
sVcrater
p397
I1
sVprepaid
p398
I1
sVspate
p399
I1
sVchoice
p400
I3
sVwharton
p401
I2
sVembark
p402
I2
sVstays
p403
I1
sVmultistory
p404
I1
sVminute
p405
I1
sVleave
p406
I5
sVsettle
p407
I1
sVteam
p408
I12
sVloads
p409
I1
sVprevent
p410
I3
sVrents
p411
I1
sVfindings
p412
I7
sVsign
p413
I5
sVheavyweight
p414
I1
sVshirts
p415
I1
sVrelocat
p416
I1
sVheadset
p417
I2
sVjeopardy
p418
I1
sVabdullah
p419
I1
sVcurrent
p420
I13
sVboost
p421
I1
sVjury
p422
I1
sS'<sup>'
p423
I6
sVgladys
p424
I1
sVaddress
p425
I4
sValone
p426
I3
sValong
p427
I5
sVenroll
p428
I6
sVbrilliant
p429
I1
sVfledgl
p430
I1
sVabsenteeism
p431
I1
sVtasks
p432
I1
sVlove
p433
I6
sVbr
p434
I3
sVprefer
p435
I1
sVhousemat
p436
I1
sVfake
p437
I4
sVfuqua
p438
I2
sVgrimmest
p439
I1
sVundergone
p440
I1
sVpredictions
p441
I1
sVgroundbreak
p442
I2
sVfilms
p443
I2
sVprosecutor
p444
I13
sVapparent
p445
I2
sVenhanc
p446
I3
sVignorant
p447
I1
sVbehalf
p448
I1
sVfourths
p449
I1
sVpretend
p450
I1
sVoffense
p451
I1
sVwinter
p452
I4
sVvancouver
p453
I1
sVsnaps
p454
I2
sVexplorer
p455
I1
sVspot
p456
I1
sVapplications
p457
I2
sVcardiac
p458
I1
sVsuch
p459
I19
sVdata
p460
I6
sVstress
p461
I4
sVnatural
p462
I8
sVoculus
p463
I1
sVapplicant
p464
I1
sVsu
p465
I1
sVso
p466
I51
sVsb
p467
I1
sVse
p468
I4
sVdevonshire
p469
I1
sVunacceptable
p470
I1
sVyears
p471
I44
sVcourse
p472
I10
sVexperiments
p473
I1
sVunfavorable
p474
I1
sVexplosiv
p475
I3
sVcelebrate
p476
I1
sVbipartisan
p477
I1
sVcivilian
p478
I1
sVnation
p479
I4
sVrecords
p480
I3
sVakron
p481
I1
sVrunners
p482
I1
sVfreya
p483
I2
sVdidn
p484
I18
sVupdat
p485
I1
sVquartet
p486
I1
sVsquare
p487
I2
sVsponsor
p488
I1
sVinvestigation
p489
I9
sVinternet
p490
I1
sVformula
p491
I1
sVfacedown
p492
I1
sVmillion
p493
I7
sVenvelop
p494
I1
sVpossibility
p495
I1
sVquite
p496
I4
sVrecordings
p497
I2
sVbenioff
p498
I1
sVreisner
p499
I1
sVwrong
p500
I4
sVmassive
p501
I1
sVneglect
p502
I1
sVspoken
p503
I1
sVone
p504
I98
sVspanish
p505
I2
sVvote
p506
I5
sVons
p507
I1
sVopen
p508
I14
sVlanguish
p509
I3
sVbrochur
p510
I1
sVcity
p511
I9
sV2
p512
I20
sVdraft
p513
I9
sVwilliams
p514
I4
sVvoyce
p515
I1
sVridiculous
p516
I1
sVprocter
p517
I3
sVfuture
p518
I8
sVsophia
p519
I1
sVillness
p520
I1
sVsan
p521
I4
sVsal
p522
I1
sVafternoons
p523
I1
sValleg
p524
I1
sVsay
p525
I34
sVbalkaniz
p526
I1
sVallen
p527
I8
sVsaw
p528
I7
sVsat
p529
I6
sVaside
p530
I1
sVzon
p531
I3
sVmasse
p532
I1
sVgoodman
p533
I1
sVtake
p534
I18
sVdestroy
p535
I4
sVmayer
p536
I1
sVnoth
p537
I6
sVprinter
p538
I1
sVthirt
p539
I1
sVopposite
p540
I1
sVknew
p541
I7
sV[has-adjacency]
p542
I1
sVabus
p543
I3
sVremarks
p544
I1
sVenamel
p545
I1
sVaverage
p546
I10
sVphil
p547
I1
sVsale
p548
I1
sVways
p549
I7
sVmessier
p550
I1
sVatlantic
p551
I6
sVlaws
p552
I4
sVmurmurs
p553
I1
sVinconsistent
p554
I1
sVaggressive
p555
I2
sVslot
p556
I1
sVslow
p557
I8
sVinterrogations
p558
I5
sVoberndorf
p559
I1
sVtears
p560
I2
sVcongressional
p561
I3
sVcarolina
p562
I1
sVassistant
p563
I1
sVrecruiters
p564
I1
sVrequir
p565
I6
sVartist
p566
I5
sVborrow
p567
I1
sVworkweek
p568
I1
sVroger
p569
I2
sVwhere
p570
I20
sVsnapback
p571
I1
sVvision
p572
I3
sVespn
p573
I2
sVdeadlin
p574
I1
sVsurgery
p575
I2
sVum
p576
I1
sV830
p577
I1
sVkilometer
p578
I1
sVjobs
p579
I12
sVuk
p580
I1
sVscreen
p581
I7
sVsupermarket
p582
I1
sVawards
p583
I1
sVshortag
p584
I1
sVundermine
p585
I1
sVoust
p586
I1
sVmany
p587
I34
sVcelebrat
p588
I1
sVingratiat
p589
I1
sVs
p590
I253
sVworkplace
p591
I3
sVanti
p592
I1
sVpowerpack
p593
I1
sVconsiders
p594
I1
sVteddy
p595
I1
sVstretch
p596
I5
sVtoothpaste
p597
I1
sVvacation
p598
I2
sVbreath
p599
I1
sVwants
p600
I5
sVenable
p601
I2
sVthousand
p602
I5
sVmechanicals
p603
I1
sVphotos
p604
I2
sVobserve
p605
I1
sVformer
p606
I17
sVisabella
p607
I1
sVconsultant
p608
I3
sVtribal
p609
I6
sVpolls
p610
I1
sVnewspaper
p611
I2
sVsituation
p612
I3
sVblar
p613
I1
sVpurse
p614
I1
sVconvinc
p615
I1
sVbros
p616
I1
sVfami
p617
I15
sVtechnology
p618
I17
sVivy
p619
I1
sVshutt
p620
I1
sVsurveillance
p621
I1
sVvandalism
p622
I1
sVbreakdown
p623
I2
sVassigns
p624
I1
sVoceanographic
p625
I1
sVdefy
p626
I1
sVcheers
p627
I1
sVrenewable
p628
I4
sVpsychiatrists
p629
I2
sVisotop
p630
I1
sVcosts
p631
I6
sVtrains
p632
I2
sVsummer
p633
I4
sV215
p634
I1
sV210
p635
I1
sVpakistan
p636
I4
sVrest
p637
I3
sVfateful
p638
I1
sVstopwatch
p639
I2
sVsilverberg
p640
I2
sVaround
p641
I25
sVsums
p642
I2
sVpos
p643
I2
sVretract
p644
I1
sVtraffic
p645
I6
sVpop
p646
I2
sVacronyms
p647
I1
sVworld
p648
I23
sVdare
p649
I1
sVclan
p650
I3
sVintel
p651
I2
sVmanag
p652
I9
sVsuperintendent
p653
I1
sVmagma
p654
I1
sVthinks
p655
I2
sVstrewn
p656
I1
sVtube
p657
I1
sVdefinit
p658
I1
sVjuggernaut
p659
I1
sV911
p660
I3
sVkurkjian
p661
I1
sVcontingent
p662
I1
sVpower
p663
I26
sVleadership
p664
I2
sVstone
p665
I2
sVpackage
p666
I1
sVindustry
p667
I13
sVfavorite
p668
I3
sVstoni
p669
I1
sVacr
p670
I1
sVact
p671
I9
sVbond
p672
I6
sVstony
p673
I1
sVheadsets
p674
I1
sVimage
p675
I5
sVwads
p676
I1
sVlegacy
p677
I1
sVher
p678
I32
sVhey
p679
I2
sVhea
p680
I3
sVhec
p681
I3
sVhem
p682
I1
sVbubble
p683
I1
sVcomplete
p684
I7
sVconclud
p685
I3
sVdefrost
p686
I1
sVamplifi
p687
I1
sVcategor
p688
I4
sVpull
p689
I5
sVrush
p690
I2
sVoctober
p691
I2
sVagree
p692
I8
sVgone
p693
I4
sVad
p694
I1
sVcreat
p695
I11
sVah
p696
I1
sVam
p697
I2
sVal
p698
I8
sVan
p699
I123
sVap
p700
I1
sVas
p701
I141
sVat
p702
I163
sVwalks
p703
I5
sVcreak
p704
I1
sVvocational
p705
I3
sVgraduate
p706
I12
sVtight
p707
I1
sVsummit
p708
I1
sV2006
p709
I1
sVcongress
p710
I3
sVoriginat
p711
I1
sVtricks
p712
I1
sVlapaglia
p713
I1
sVmass
p714
I5
sVnelson
p715
I2
sVbehavioral
p716
I5
sVcpu
p717
I1
sVextricat
p718
I1
sVessay
p719
I2
sVconsider
p720
I8
sVdebris
p721
I2
sVfairness
p722
I1
sVty
p723
I2
sVtv
p724
I2
sVtr
p725
I3
sVspirit
p726
I1
sVto
p727
I464
sVth
p728
I14
sVti
p729
I2
sVsmile
p730
I1
sVintroduc
p731
I5
sVdetention
p732
I1
sVmanageable
p733
I1
sVcondition
p734
I4
sVsans
p735
I1
sVlashkars
p736
I1
sVheist
p737
I1
sVcolleagu
p738
I10
sVlarge
p739
I23
sVadjust
p740
I1
sVharry
p741
I1
sVsmall
p742
I12
sVexhilarat
p743
I1
sVpast
p744
I13
sVdisplays
p745
I1
sVpass
p746
I6
sVrichard
p747
I1
sVdisruptions
p748
I1
sVsection
p749
I1
sVencrust
p750
I1
sV[caption]
p751
I1
sVscientists
p752
I7
sVcorker
p753
I3
sVconundrums
p754
I1
sVcontrast
p755
I3
sVhasn
p756
I2
sVfull
p757
I12
sVinstallations
p758
I2
sVempower
p759
I3
sVhours
p760
I18
sVsmartest
p761
I1
sVcivilians
p762
I1
sVnovember
p763
I3
sVintroductory
p764
I1
sVcompliance
p765
I1
sVexperience
p766
I4
sVprior
p767
I2
sVhealthier
p768
I1
sVsocial
p769
I7
sVaction
p770
I5
sVskepticism
p771
I1
sVreactors
p772
I1
sVshorthand
p773
I1
sVthought
p774
I15
sVselect
p775
I7
sVdk001
p776
I1
sVmort
p777
I1
sVmorn
p778
I3
sVautomate
p779
I1
sV6
p780
I10
sVrhea
p781
I1
sVmore
p782
I84
sVvideoconferenc
p783
I1
sVdoor
p784
I4
sVcompany
p785
I36
sVpossession
p786
I1
sVdoom
p787
I1
sVbedford
p788
I2
sVzaydi
p789
I1
sVscience
p790
I6
sVmall
p791
I1
sVlearn
p792
I11
sVmale
p793
I2
sVprompt
p794
I1
sVscan
p795
I2
sVrodriguez
p796
I4
sVchalleng
p797
I2
sVsuggestions
p798
I1
sVaccept
p799
I3
sVstater
p800
I1
sVsense
p801
I4
sVgallon
p802
I1
sVdress
p803
I1
sVinformation
p804
I2
sVfruition
p805
I1
sVearnings
p806
I1
sVplant
p807
I1
sVplans
p808
I4
sVentrepreneurship
p809
I1
sVsoundtrack
p810
I1
sVplane
p811
I1
sVdirector
p812
I6
sVwaver
p813
I1
sVimpassion
p814
I1
sVethics
p815
I2
sVresemble
p816
I1
sVregister
p817
I1
sVfundamental
p818
I3
sVpans
p819
I1
sVbowl
p820
I1
sVfaricy
p821
I2
sVtrade
p822
I3
sVstylus
p823
I2
sVattitude
p824
I1
sVpaper
p825
I4
sVscott
p826
I2
sVsigns
p827
I2
sVinstaller
p828
I1
sVturbine
p829
I1
sVits
p830
I66
sVreschedul
p831
I1
sVwry
p832
I1
sVgadget
p833
I4
sValways
p834
I12
sVachiev
p835
I1
sVfound
p836
I20
sVshocking
p837
I1
sVinvestigators
p838
I1
sVstatus
p839
I1
sVengland
p840
I1
sVreduce
p841
I2
sVclockwork
p842
I1
sVoperation
p843
I2
sVpsychology
p844
I3
sVviisble
p845
I1
sVresearch
p846
I26
sVrace
p847
I2
sVoccurr
p848
I4
sVoccurs
p849
I1
sVbelief
p850
I1
sVatms
p851
I1
sVbeliev
p852
I3
sVimagine
p853
I4
sVdriven
p854
I3
sVowners
p855
I1
sVstruggl
p856
I3
sVw
p857
I11
sVcontingency
p858
I1
sVmajor
p859
I8
sVnumber
p860
I8
sVrail
p861
I1
sVdiffer
p862
I1
sVheads
p863
I2
sVguest
p864
I1
sVjeb
p865
I2
sVflimsy
p866
I1
sVhotb
p867
I1
sVcalculations
p868
I1
sVrelationship
p869
I4
sVlivelihoods
p870
I1
sVimmediate
p871
I4
sVdemonstrations
p872
I1
sVconsult
p873
I7
sVobama
p874
I10
sViranian
p875
I2
sVvocal
p876
I1
sVpennsylvania
p877
I2
sVcomput
p878
I2
sVfights
p879
I2
sVpackag
p880
I1
sVgraffiti
p881
I1
sVcleverness
p882
I1
sVsell
p883
I3
sVtough
p884
I2
sVself
p885
I2
sVreliance
p886
I2
sValso
p887
I58
sVinternal
p888
I6
sVplay
p889
I19
sVplan
p890
I6
sVplac
p891
I8
sVtpg
p892
I1
sVunderstands
p893
I1
sVcovet
p894
I1
sVcover
p895
I6
sVartistic
p896
I1
sVfashions
p897
I1
sVmicrosoft
p898
I39
sVheaps
p899
I1
sVgolf
p900
I1
sVcruiser
p901
I1
sVmidwestern
p902
I1
sVclog
p903
I1
sVimpact
p904
I10
sVineffect
p905
I1
sVwriter
p906
I1
sVfactor
p907
I4
sVbernstein
p908
I1
sVgiants
p909
I1
sVtricia
p910
I1
sVsunny
p911
I1
sVresent
p912
I2
sVactions
p913
I5
sVreporters
p914
I5
sVenemy
p915
I1
sVbelichick
p916
I2
sVriven
p917
I1
sVobscure
p918
I1
sVbuesseler
p919
I5
sV319
p920
I1
sVset
p921
I11
sVser
p922
I8
sVoverwhelm
p923
I4
sVactivists
p924
I4
sVsex
p925
I1
sVseg
p926
I2
sVsee
p927
I17
sVjustification
p928
I1
sVsea
p929
I3
sVsen
p930
I2
sVanalog
p931
I2
sVshower
p932
I1
sVelectrolyte
p933
I1
sVbaritone
p934
I1
sVmovie
p935
I2
sVeurope
p936
I1
sVinterface
p937
I3
sVprospects
p938
I2
sVlast
p939
I50
sVinfluential
p940
I1
sV630
p941
I1
sVconnection
p942
I1
sVlet
p943
I10
sVwhole
p944
I5
sVload
p945
I2
sVvolcanic
p946
I2
sVelectrician
p947
I1
sVbell
p948
I1
sVschedul
p949
I7
sVloan
p950
I1
sVholmdahl
p951
I2
sVcommunity
p952
I8
sVagents
p953
I1
sVchurch
p954
I1
sVbelt
p955
I8
sVdefang
p956
I1
sVdevic
p957
I5
sVgeoffrey
p958
I1
sVdevis
p959
I1
sVfirm
p960
I16
sVchampion
p961
I6
sVfire
p962
I1
sVcsnne
p963
I1
sVfund
p964
I4
sVtowns
p965
I1
sVfunk
p966
I1
sVmlb
p967
I1
sVuncertain
p968
I1
sVreliable
p969
I1
sVmls
p970
I1
sVswim
p971
I2
sVpound
p972
I2
sVmotors
p973
I3
sVcomport
p974
I1
sVchase
p975
I2
sVseek
p976
I3
sVshorten
p977
I1
sVappearanc
p978
I1
sVstacy
p979
I1
sVlevels
p980
I5
sVmedicaid
p981
I2
sVnecessity
p982
I2
sVstack
p983
I1
sVinfamous
p984
I1
sVrecent
p985
I27
sVpicks
p986
I2
sVperson
p987
I6
sVexpens
p988
I7
sVsimp
p989
I6
sVwearable
p990
I1
sVconclusions
p991
I2
sVeager
p992
I2
sVparents
p993
I6
sVputnam
p994
I1
sVcordon
p995
I1
sVdemands
p996
I3
sVcouple
p997
I1
sVsgt
p998
I2
sVabound
p999
I1
sVbureaucrac
p1000
I1
sVprojects
p1001
I2
sVformal
p1002
I2
sVd
p1003
I15
sVspine
p1004
I2
sVconsensus
p1005
I1
sVcommunications
p1006
I1
sVindividuals
p1007
I1
sVstylish
p1008
I1
sVmighti
p1009
I1
sVmethods
p1010
I1
sV1325
p1011
I1
sVsenate
p1012
I5
sVacknowledg
p1013
I5
sVbouncy
p1014
I1
sVsampl
p1015
I2
sVpall
p1016
I1
sVpalo
p1017
I1
sVgreener
p1018
I1
sVmeasurements
p1019
I1
sVoblivion
p1020
I1
sVrecogniz
p1021
I2
sVbe
p1022
I139
sVbb
p1023
I1
sVsanta
p1024
I1
sVvitals
p1025
I1
sVby
p1026
I136
sVmyhrvold
p1027
I1
sVzip
p1028
I1
sVwore
p1029
I2
sVambush
p1030
I1
sVlibert
p1031
I1
sVsiliga
p1032
I1
sVgallagher
p1033
I1
sVrepair
p1034
I1
sVcomputational
p1035
I1
sVclinton
p1036
I2
sVcolorado
p1037
I1
sVinto
p1038
I38
sVdoubters
p1039
I1
sVappropriate
p1040
I2
sVintegrat
p1041
I2
sVkatie
p1042
I1
sVoccupi
p1043
I2
sVspac
p1044
I2
sVcustom
p1045
I1
sVcrackdown
p1046
I1
sVsuit
p1047
I2
sVregulator
p1048
I1
sVelsewhere
p1049
I3
sVretina
p1050
I2
sVbluefin
p1051
I1
sVlink
p1052
I2
sVcompetition
p1053
I2
sVatom
p1054
I1
sVline
p1055
I10
sVconsiderable
p1056
I3
sVup
p1057
I74
sVus
p1058
I41
sVdibella
p1059
I3
sVmaturity
p1060
I2
sVun
p1061
I2
sVcustomers
p1062
I7
sVmature
p1063
I1
sVcit
p1064
I6
sVmedical
p1065
I12
sVaerial
p1066
I1
sVconfiscate
p1067
I1
sVshowtime
p1068
I1
sVm
p1069
I59
sVinfluence
p1070
I3
sVoccasional
p1071
I4
sVswirl
p1072
I1
sVpolonium
p1073
I1
sVago
p1074
I12
sVlane
p1075
I2
sVland
p1076
I6
sVage
p1077
I1
sVfeud
p1078
I2
sVbeverage
p1079
I1
sVwalker
p1080
I3
sVensenada
p1081
I1
sVsquatt
p1082
I1
sVmonterey
p1083
I1
sVcode
p1084
I1
sVincorporate
p1085
I2
sVresults
p1086
I5
sVstopp
p1087
I2
sVlegal
p1088
I20
sVcenters
p1089
I1
sVyoung
p1090
I6
sVsens
p1091
I1
sVsent
p1092
I4
sVgarden
p1093
I1
sVtorture
p1094
I6
sVtri
p1095
I4
sVnorthwestern
p1096
I2
sVmagic
p1097
I5
sVtre
p1098
I1
sVeve
p1099
I1
sVfewer
p1100
I3
sVtry
p1101
I12
sVqaeda
p1102
I2
sVmarri
p1103
I3
sVtru
p1104
I3
sVlogistics
p1105
I1
sVvehicl
p1106
I3
sVvideo
p1107
I15
sVdynamics
p1108
I1
sVvictor
p1109
I1
sVhouthi
p1110
I1
sVfirms
p1111
I8
sVslabs
p1112
I1
sVlee
p1113
I5
sVpoverty
p1114
I1
sVoctave
p1115
I1
sVlew
p1116
I1
sVfifteen
p1117
I2
sVgreat
p1118
I10
sVtechnical
p1119
I4
sVcasino
p1120
I1
sVtechnolog
p1121
I5
sVsurvey
p1122
I1
sVderby
p1123
I4
sVresidents
p1124
I4
sVyemenis
p1125
I1
sVcounsels
p1126
I1
sVtools
p1127
I1
sVconfidence
p1128
I1
sVcertificate
p1129
I1
sVillegal
p1130
I3
sVupgrad
p1131
I1
sVnext
p1132
I11
sVeleven
p1133
I1
sVcommut
p1134
I1
sVmidday
p1135
I1
sVgivens
p1136
I1
sVpencil
p1137
I1
sV[story-body-text]
p1138
I329
sVfolks
p1139
I2
sVbaby
p1140
I4
sVgambl
p1141
I1
sVcustomer
p1142
I1
sVdepiction
p1143
I1
sVanimals
p1144
I8
sVthis
p1145
I107
sVchallenge
p1146
I4
sVclients
p1147
I6
sVinsists
p1148
I1
sVemerson
p1149
I2
sVthin
p1150
I2
sVweaker
p1151
I1
sVprocess
p1152
I5
sVlock
p1153
I1
sVcoolness
p1154
I1
sVwilfork
p1155
I3
sVrode
p1156
I1
sVhigh
p1157
I15
sVbend
p1158
I1
sVdelay
p1159
I1
sVpair
p1160
I2
sVclogg
p1161
I1
sVcartier
p1162
I1
sVespecial
p1163
I9
sVblocks
p1164
I3
sVgardner
p1165
I1
sVfits
p1166
I1
sVidalene
p1167
I1
sVshuman
p1168
I1
sVfitt
p1169
I1
sVcounter
p1170
I3
sVissu
p1171
I9
sVwrit
p1172
I1
sVallow
p1173
I12
sVvolunteers
p1174
I1
sVhouston
p1175
I1
sVproducer
p1176
I2
sVmove
p1177
I8
sVwarren
p1178
I2
sVperfect
p1179
I4
sVchosen
p1180
I1
sV2019
p1181
I2
sV2015
p1182
I5
sVpuerto
p1183
I4
sVdecad
p1184
I9
sV2016
p1185
I4
sV2011
p1186
I6
sV2010
p1187
I3
sV2013
p1188
I10
sV2012
p1189
I3
sVphysicians
p1190
I1
sVdesigns
p1191
I2
sVseatbelt
p1192
I1
sVbelch
p1193
I1
sVrepercussions
p1194
I1
sVstrateg
p1195
I1
sVseawater
p1196
I1
sVlegendary
p1197
I2
sVrotation
p1198
I1
sVpopularizer
p1199
I1
sVrealize
p1200
I1
sVpresidential
p1201
I5
sVanyth
p1202
I7
sVbetty
p1203
I1
sVtruth
p1204
I4
sVhomogeneous
p1205
I1
sVactivit
p1206
I3
sVconsum
p1207
I1
sVsociety
p1208
I1
sVbooks
p1209
I2
sVirritation
p1210
I1
sVshaughnessy
p1211
I1
sVwander
p1212
I3
sVwitness
p1213
I1
sVboutique
p1214
I1
sVvalve
p1215
I1
sVsubmerg
p1216
I1
sVhanoun
p1217
I1
sVburke
p1218
I1
sVtroop
p1219
I1
sVshut
p1220
I3
sVunwieldy
p1221
I1
sVtempt
p1222
I1
sVshum
p1223
I6
sVlexey
p1224
I1
sVgallons
p1225
I1
sVcould
p1226
I47
sVdavid
p1227
I6
sVlength
p1228
I1
sVdavis
p1229
I2
sVrespond
p1230
I8
sV450
p1231
I1
sVscene
p1232
I1
sVowner
p1233
I2
sVisolat
p1234
I1
sVhourlynerd
p1235
I1
sVstart
p1236
I33
sVlicens
p1237
I1
sVsystem
p1238
I12
sVsergeant
p1239
I6
sVnpr
p1240
I2
sVsongwriters
p1241
I2
sVinterests
p1242
I1
sVenernoc
p1243
I8
sVdetaine
p1244
I2
sVelite
p1245
I2
sVhaven
p1246
I3
sVbother
p1247
I1
sVassociat
p1248
I3
sVsteep
p1249
I1
sVsteer
p1250
I1
sVfalse
p1251
I7
sVpartnership
p1252
I4
sVtonight
p1253
I2
sVreceptionist
p1254
I1
sVdepict
p1255
I1
sVsoak
p1256
I1
sVaccuracy
p1257
I2
sVdevice
p1258
I6
sVsternlieb
p1259
I1
sVstronger
p1260
I2
sVface
p1261
I12
sVmechanical
p1262
I2
sVfact
p1263
I7
sVatmosphere
p1264
I1
sV[pb-caption]
p1265
I3
sVhadramawt
p1266
I2
sVbring
p1267
I1
sVgreenhouse
p1268
I1
sVrough
p1269
I6
sVeconomist
p1270
I5
sVdecade
p1271
I7
sVprincipal
p1272
I1
sVnois
p1273
I1
sVfigur
p1274
I2
sVshould
p1275
I22
sVbuttons
p1276
I1
sVjam
p1277
I5
sVtape
p1278
I3
sVintrigu
p1279
I1
sVflinch
p1280
I1
sVhope
p1281
I4
sVmeant
p1282
I4
sVbonds
p1283
I1
sVfamiliar
p1284
I1
sVlucky
p1285
I1
sVautor
p1286
I3
sVgpus
p1287
I1
sVh
p1288
I5
sVsummon
p1289
I1
sVextremists
p1290
I3
sVdallas
p1291
I1
sVohio
p1292
I1
sVnoodl
p1293
I1
sVframe
p1294
I2
sVparticl
p1295
I1
sVcoils
p1296
I1
sVwire
p1297
I2
sVsuperhero
p1298
I1
sVextend
p1299
I5
sVnuclear
p1300
I7
sVpartisan
p1301
I1
sVinjustice
p1302
I2
sVlegitimize
p1303
I1
sVemail
p1304
I12
sVshiite
p1305
I1
sVends
p1306
I2
sVcomebacks
p1307
I1
sVconfiguration
p1308
I1
sVrestrictions
p1309
I1
sVramp
p1310
I1
sVhauls
p1311
I1
sVco
p1312
I3
sVcm
p1313
I1
sVconclude
p1314
I1
sVlabor
p1315
I8
sVundergraduate
p1316
I1
sVoutsider
p1317
I1
sVobstacl
p1318
I1
sVwaste
p1319
I1
sVfudan
p1320
I1
sVpsychotherapist
p1321
I1
sV2014
p1322
I11
sVmuslims
p1323
I1
sVrunway
p1324
I1
sVmiddle
p1325
I4
sVpomus
p1326
I1
sVchernobyl
p1327
I2
sVva
p1328
I1
sVpurchas
p1329
I4
sVnero
p1330
I2
sVlush
p1331
I2
sVhardware
p1332
I6
sVvs
p1333
I2
sVsits
p1334
I2
sVsitt
p1335
I4
sVransom
p1336
I1
sVhubbard
p1337
I2
sVspends
p1338
I1
sVterrorism
p1339
I1
sVcompetit
p1340
I2
sVball
p1341
I1
sVcolumbia
p1342
I3
sVraymond
p1343
I1
sVexpans
p1344
I1
sVforecasts
p1345
I1
sVdust
p1346
I1
sVexpand
p1347
I1
sVoff
p1348
I35
sVphilippin
p1349
I1
sVpatterns
p1350
I3
sVexampl
p1351
I2
sVcommand
p1352
I1
sVoft
p1353
I1
sVwindowless
p1354
I1
sVkiss
p1355
I1
sVless
p1356
I14
sVmoments
p1357
I3
sVgeller
p1358
I19
sVpaul
p1359
I1
sVweb
p1360
I2
sVresidential
p1361
I1
sVarrest
p1362
I17
sVcombine
p1363
I2
sVcosmetics
p1364
I1
sVwet
p1365
I1
sVcompet
p1366
I1
sVpiec
p1367
I1
sVsanaa
p1368
I3
sVcruz
p1369
I1
sVpassword
p1370
I1
sVrecurr
p1371
I1
sVschmitz
p1372
I1
sVresin
p1373
I1
sVgarage
p1374
I1
sVimprison
p1375
I4
sVbecome
p1376
I12
sVindications
p1377
I1
sVincent
p1378
I1
sVhabitat
p1379
I1
sVnewsworthy
p1380
I1
sVconservat
p1381
I2
sVguarante
p1382
I1
sVthiev
p1383
I1
sVrecognition
p1384
I1
sVavoid
p1385
I5
sVdemonstrators
p1386
I1
sVbreakout
p1387
I1
sVbelal
p1388
I1
sVschedule
p1389
I3
sVpressure
p1390
I2
sVcelebrit
p1391
I1
sVstage
p1392
I2
sVasks
p1393
I3
sVingest
p1394
I1
sVchrome
p1395
I1
sVmassachusetts
p1396
I2
sVletters
p1397
I1
sVerrands
p1398
I1
sVassess
p1399
I3
sVerect
p1400
I1
sVjoyce
p1401
I1
sVroads
p1402
I1
sVmere
p1403
I7
sVmerg
p1404
I1
sVdockside
p1405
I1
sVsnyder
p1406
I3
sVdisapproval
p1407
I1
sVpeters
p1408
I1
sVfrustration
p1409
I2
sVupris
p1410
I1
sVfunction
p1411
I2
sVfunnel
p1412
I1
sVcosmopolitan
p1413
I1
sVdelivery
p1414
I1
sVconstruction
p1415
I3
sVapollo
p1416
I2
sVcount
p1417
I7
sVbehemoth
p1418
I1
sVofficial
p1419
I10
sVsmooth
p1420
I2
sVconvince
p1421
I2
sVdistribution
p1422
I1
sVthrew
p1423
I1
sVrecognize
p1424
I1
sVrubble
p1425
I2
sVlife
p1426
I20
sVreplica
p1427
I2
sVo'malley
p1428
I1
sVinc
p1429
I1
sVmushroom
p1430
I1
sVvariety
p1431
I2
sVsharia
p1432
I1
sVsalesman
p1433
I1
sVdetails
p1434
I5
sVfrisbee
p1435
I1
sVmonday
p1436
I5
sVfootprints
p1437
I1
sVchance
p1438
I4
sVrepeal
p1439
I3
sVexposure
p1440
I1
sVoutsourc
p1441
I2
sVrule
p1442
I2
sVshutkin
p1443
I1
sVlift
p1444
I3
sVcompete
p1445
I1
sVdefend
p1446
I4
sVchile
p1447
I7
sVdoubts
p1448
I1
sVdesirable
p1449
I1
sVtenuous
p1450
I1
sVrelationships
p1451
I2
sVspew
p1452
I1
sVedward
p1453
I4
sVseparat
p1454
I1
sVworth
p1455
I2
sVgeology
p1456
I2
sVblanket
p1457
I1
sVdistort
p1458
I1
sVsellers
p1459
I1
sVwe'll
p1460
I1
sVdaydream
p1461
I1
sVincorporat
p1462
I1
sVruebusch
p1463
I1
sVsuite
p1464
I1
sVreinvent
p1465
I1
sVchew
p1466
I1
sS'<a>'
p1467
I106
sVhord
p1468
I1
sVinstitutionaliz
p1469
I1
sVpresidio
p1470
I6
sVbrill
p1471
I1
sVhors
p1472
I2
sVlongstand
p1473
I2
sVsupervis
p1474
I1
sVstardom
p1475
I1
sVdeliberate
p1476
I1
sVreconstruction
p1477
I1
sVconsequenc
p1478
I3
sVtold
p1479
I19
sVfeghali
p1480
I1
sVprotection
p1481
I1
sVdaughter
p1482
I2
sVstudy
p1483
I11
sVsmoke
p1484
I2
sVstudi
p1485
I1
sVreasonab
p1486
I1
sVsecure
p1487
I4
sVatelier
p1488
I1
sVseven
p1489
I4
sVattitud
p1490
I1
sVhindsight
p1491
I1
sVatrium
p1492
I1
sVtotal
p1493
I7
sVpalestinian
p1494
I2
sVcomcast
p1495
I1
sVindiana
p1496
I2
sVcontaminat
p1497
I1
sVplenitude
p1498
I1
sVsupergroup
p1499
I1
sVaware
p1500
I4
sVmust've
p1501
I1
sV1991
p1502
I1
sV1990
p1503
I3
sV1993
p1504
I2
sVword
p1505
I1
sV1994
p1506
I2
sV1997
p1507
I2
sVrestor
p1508
I1
sV1999
p1509
I1
sV1998
p1510
I1
sVwork
p1511
I76
sVworn
p1512
I1
sVera
p1513
I4
sVshelter
p1514
I1
sVscarr
p1515
I1
sVbennett
p1516
I3
sVindia
p1517
I1
sVrecovery
p1518
I1
sVcarriers
p1519
I1
sVprovide
p1520
I4
sVoperativ
p1521
I1
sVinterview
p1522
I8
sVordinary
p1523
I1
sVbeach
p1524
I2
sVgamble
p1525
I3
sVlan
p1526
I3
sVfever
p1527
I1
sVearlier
p1528
I6
sVtackle
p1529
I5
sV[box]
p1530
I2
sVlaw
p1531
I24
sVarch
p1532
I1
sVlas
p1533
I1
sVhomeowners
p1534
I4
sVappreciate
p1535
I3
sVgreet
p1536
I1
sVundermatch
p1537
I1
sVsupermarkets
p1538
I1
sVgreek
p1539
I1
sVgreen
p1540
I4
sVaboveground
p1541
I1
sVorder
p1542
I8
sVoffice
p1543
I28
sVendors
p1544
I2
sVconsent
p1545
I2
sVfundrais
p1546
I3
sVboutchard
p1547
I1
sVfac
p1548
I3
sVmisconduct
p1549
I9
sVmayor
p1550
I1
sVadolescence
p1551
I1
sVsomewhere
p1552
I1
sVhighlights
p1553
I1
sVchristie
p1554
I8
sVdenver
p1555
I1
sVoffic
p1556
I3
sVproduction
p1557
I1
sVharmony
p1558
I1
sVthen
p1559
I25
sVthem
p1560
I43
sVsafe
p1561
I7
sVbreak
p1562
I6
sVband
p1563
I3
sVbang
p1564
I2
sVthey
p1565
I105
sVfear
p1566
I2
sVbann
p1567
I1
sVbank
p1568
I3
sVgregorio
p1569
I1
sVrocky
p1570
I1
sVl
p1571
I15
sVreasonable
p1572
I1
sVcarlos
p1573
I2
sVdownshift
p1574
I1
sVevolve
p1575
I1
sVcouncils
p1576
I1
sVnetwork
p1577
I9
sVcameras
p1578
I2
sVdaniel
p1579
I1
sVmedicine
p1580
I1
sVthorough
p1581
I1
sVarpeggios
p1582
I1
sVstandard
p1583
I1
sVadmits
p1584
I1
sV[story-subheading]
p1585
I9
sVadmitt
p1586
I3
sVmvp
p1587
I1
sVreconfigur
p1588
I1
sVdispersal
p1589
I1
sVoppose
p1590
I1
sVrender
p1591
I1
sVestablishments
p1592
I1
sVanother
p1593
I27
sVthick
p1594
I2
sVelectronic
p1595
I3
sVcentrifuge
p1596
I1
sVtimothy
p1597
I1
sVdogg
p1598
I1
sVingen
p1599
I1
sVupshot
p1600
I1
sVjohn
p1601
I3
sV40th
p1602
I1
sVdogs
p1603
I1
sVgrandchildren
p1604
I1
sVoffhand
p1605
I1
sVtarget
p1606
I6
sVprovid
p1607
I6
sVhike
p1608
I1
sVforensic
p1609
I1
sViron
p1610
I1
sVdesign
p1611
I7
sVminut
p1612
I7
sVnavigate
p1613
I1
sVsubsid
p1614
I1
sVstrength
p1615
I2
sVgenuine
p1616
I3
sVladen
p1617
I1
sVlatter
p1618
I1
sVcasual
p1619
I1
sVsubjects
p1620
I1
sVluxury
p1621
I3
sVcurfew
p1622
I2
sVbruce
p1623
I1
sV[footnotes]
p1624
I2
sVprohibitive
p1625
I1
sVanatomy
p1626
I1
sVautopsy
p1627
I1
sVgrave
p1628
I2
sVexcus
p1629
I1
sValumni
p1630
I3
sVanniversary
p1631
I2
sVidentifi
p1632
I2
sVinvolv
p1633
I10
sVtawakkol
p1634
I1
sVguidance
p1635
I1
sVadequate
p1636
I2
sVpersonality
p1637
I1
sVdo
p1638
I64
sVdi
p1639
I7
sVde
p1640
I2
sVleisure
p1641
I1
sVdy
p1642
I1
sVdr
p1643
I10
sVchanel
p1644
I1
sVruns
p1645
I4
sVemi
p1646
I1
sVgaug
p1647
I1
sVsteam
p1648
I1
sVsecretary
p1649
I2
sVpeshawar
p1650
I1
sVobserver
p1651
I1
sVanalytics
p1652
I1
sVdepends
p1653
I2
sVcattle
p1654
I1
sVdiscussions
p1655
I1
sVmiserable
p1656
I1
sVdraws
p1657
I1
sVaway
p1658
I12
sVunable
p1659
I2
sVdrawn
p1660
I2
sVwe
p1661
I50
sVterms
p1662
I1
sVwo
p1663
I1
sVhandful
p1664
I3
sVunfold
p1665
I1
sVclimate
p1666
I1
sVpsychologists
p1667
I10
sVbrav
p1668
I1
sVill
p1669
I1
sVmuseum
p1670
I2
sVproliferat
p1671
I1
sVdevotion
p1672
I1
sVbrad
p1673
I2
sVrequests
p1674
I1
sVcom
p1675
I16
sVwiden
p1676
I1
sVseizure
p1677
I2
sVguid
p1678
I1
sVtelecommunications
p1679
I1
sVspeak
p1680
I5
sVpetty
p1681
I1
sVbuffett
p1682
I1
sVrevenu
p1683
I1
sVflexible
p1684
I2
sVdozens
p1685
I3
sVmuir
p1686
I1
sVbaum
p1687
I1
sVendur
p1688
I1
sVeast
p1689
I2
sVahead
p1690
I1
sVair
p1691
I8
sVaid
p1692
I7
sVproperty
p1693
I1
sVmistake
p1694
I1
sVthursdays
p1695
I1
sVseparatist
p1696
I1
sVarticulateness
p1697
I1
sVexile
p1698
I1
sVstint
p1699
I1
sVperform
p1700
I7
sVjerry
p1701
I1
sV[media__caption]
p1702
I1
sVgrapple
p1703
I1
sVwheel
p1704
I1
sVindependent
p1705
I8
sVclosings
p1706
I1
sVcounterparts
p1707
I2
sVhand
p1708
I6
sVrais
p1709
I4
sVtraffick
p1710
I1
sVkept
p1711
I2
sVscenario
p1712
I2
sV1978
p1713
I1
sV1977
p1714
I2
sV1976
p1715
I1
sV1975
p1716
I1
sVdriv
p1717
I3
sV1973
p1718
I1
sVthr
p1719
I2
sV1971
p1720
I1
sVclient
p1721
I5
sVthe
p1722
I597
sVcamps
p1723
I1
sVmclean
p1724
I1
sVathletic
p1725
I1
sVphoto
p1726
I2
sVmid
p1727
I1
sVthanks
p1728
I2
sVstepdaughter
p1729
I1
sVunique
p1730
I1
sVphotographer
p1731
I1
sVjosh
p1732
I1
sVshout
p1733
I2
sVspread
p1734
I2
sVboard
p1735
I11
sVarab
p1736
I1
sVboxer
p1737
I1
sVunification
p1738
I3
sVmays
p1739
I1
sVdesigners
p1740
I1
sVbpd
p1741
I2
sVxbox
p1742
I2
sVnight
p1743
I13
sVsecurity
p1744
I12
sVfluoride
p1745
I1
sVsixt
p1746
I2
sVnegat
p1747
I1
sS'<noscript>'
p1748
I1
sVborn
p1749
I1
sVflatten
p1750
I1
sVcriminology
p1751
I1
sVcomments
p1752
I2
sVparticipation
p1753
I1
sVpose
p1754
I1
sVpost
p1755
I6
sVhackensack
p1756
I2
sVmonths
p1757
I4
sVobv
p1758
I7
sV1972
p1759
I1
sVpays
p1760
I1
sVprisoners
p1761
I2
sVprofession
p1762
I3
sVformidable
p1763
I1
sVwak
p1764
I1
sVwag
p1765
I5
sVwad
p1766
I2
sVlegislation
p1767
I1
sVfight
p1768
I15
sVclinical
p1769
I1
sVway
p1770
I25
sVwav
p1771
I2
sVwas
p1772
I160
sVwar
p1773
I8
sVpeninsula
p1774
I3
sVtrue
p1775
I6
sVisis
p1776
I1
sVgchat
p1777
I1
sVmaximum
p1778
I3
sVdovetails
p1779
I1
sVcrystal
p1780
I1
sVemotional
p1781
I3
sVretir
p1782
I2
sVmoore
p1783
I5
sVtesla
p1784
I14
sVopportunistic
p1785
I1
sVevidence
p1786
I3
sS'<figure>'
p1787
I2
sVphysical
p1788
I2
sVstake
p1789
I1
sVtesa
p1790
I1
sVreality
p1791
I6
sVtest
p1792
I9
sVoperators
p1793
I3
sVheyday
p1794
I1
sVbrothers
p1795
I2
sVupdate
p1796
I7
sVyardage
p1797
I1
sVoutdat
p1798
I1
sVradioactivity
p1799
I1
sVbedd
p1800
I1
sVtogether
p1801
I4
sVloyal
p1802
I2
sVclassmate
p1803
I1
sVlineup
p1804
I3
sVsongs
p1805
I1
sVconcept
p1806
I1
sVbroke
p1807
I1
sV[b]
p1808
I8
sVdance
p1809
I4
sVglobal
p1810
I6
sVbattle
p1811
I1
sVkillings
p1812
I1
sVzone
p1813
I1
sVgigs
p1814
I1
sVdonnel
p1815
I1
sVhumm
p1816
I1
sVterror
p1817
I3
sVdartmouth
p1818
I1
sVdivision
p1819
I1
sVeducat
p1820
I1
sVvegas
p1821
I1
sVkitten
p1822
I4
sVtrouble
p1823
I2
sVbrows
p1824
I1
sVfragile
p1825
I1
sVgun
p1826
I8
sVp
p1827
I29
sV[zn-body__paragraph]
p1828
I47
sVguy
p1829
I3
sVrevolution
p1830
I5
sVdiscover
p1831
I2
sVcost
p1832
I6
sVcargo
p1833
I1
sVappear
p1834
I9
sVassistance
p1835
I5
sVappeal
p1836
I2
sVunravell
p1837
I1
sVexplosion
p1838
I1
sVhololens
p1839
I16
sVstrontium
p1840
I3
sVappears
p1841
I6
sVchange
p1842
I9
sVdepositions
p1843
I1
sVmacintosh
p1844
I1
sVregardless
p1845
I1
sVextra
p1846
I1
sVmarked
p1847
I1
sVfirearm
p1848
I1
sVmarket
p1849
I17
sVprove
p1850
I3
sVangela
p1851
I1
sVsuppos
p1852
I3
sVcommissioner
p1853
I4
sVclue
p1854
I1
sVdarrelle
p1855
I1
sVorganizations
p1856
I4
sVgraphic
p1857
I1
sVcas
p1858
I3
sVcar
p1859
I6
sVprepar
p1860
I6
sVcap
p1861
I1
sVcat
p1862
I1
sVhardest
p1863
I1
sVgathers
p1864
I1
sVcan
p1865
I64
sVheart
p1866
I5
sVspr
p1867
I3
sVdidn't
p1868
I3
sV1980s
p1869
I2
sVheard
p1870
I8
sVoccur
p1871
I2
sVoccup
p1872
I1
sVallott
p1873
I1
sVmeans
p1874
I7
sVwrite
p1875
I5
sVentrench
p1876
I1
sVeconomy
p1877
I4
sVproduct
p1878
I15
sVzimmerman
p1879
I1
sVsouthern
p1880
I3
sVproduce
p1881
I4
sVinscrutable
p1882
I1
sVremember
p1883
I1
sVtrumpets
p1884
I1
sVdivid
p1885
I1
sVfavorit
p1886
I1
sVbenny
p1887
I1
sVoffens
p1888
I3
sVoffend
p1889
I1
sVidiosyncratic
p1890
I1
sVtypical
p1891
I7
sV[photo]
p1892
I1
sVpakhtunkhwa
p1893
I2
sVbrain
p1894
I3
sVtablets
p1895
I1
sVcold
p1896
I1
sVstill
p1897
I33
sVethic
p1898
I3
sVrooftop
p1899
I3
sVsymonds
p1900
I1
sVacknowledge
p1901
I1
sVsexiest
p1902
I1
sVforms
p1903
I1
sVwindow
p1904
I2
sVnon
p1905
I1
sVhalt
p1906
I1
sVvaras
p1907
I2
sVhalv
p1908
I1
sVnod
p1909
I1
sVrake
p1910
I1
sVintroduce
p1911
I1
sV1954
p1912
I1
sV1956
p1913
I1
sV1950
p1914
I1
sVhalf
p1915
I11
sVnot
p1916
I129
sVnow
p1917
I32
sV1959
p1918
I1
sV1958
p1919
I2
sVnor
p1920
I1
sVnos
p1921
I1
sVjanuary
p1922
I1
sVdrop
p1923
I1
sVdron
p1924
I1
sVdramatical
p1925
I3
sVem
p1926
I1
sVel
p1927
I1
sVunblemish
p1928
I1
sVen
p1929
I1
sVreplac
p1930
I3
sVprognosis
p1931
I1
sVey
p1932
I5
sVyear
p1933
I54
sVresourc
p1934
I3
sVhappen
p1935
I9
sVmonitors
p1936
I2
sVer
p1937
I1
sValbum
p1938
I1
sVshown
p1939
I4
sVaccomplish
p1940
I1
sVspace
p1941
I6
sVincrease
p1942
I2
sVshows
p1943
I7
sVcarr
p1944
I2
sVcars
p1945
I4
sVcarv
p1946
I1
sVargu
p1947
I6
sVcarl
p1948
I1
sVmarine
p1949
I2
sVinevitable
p1950
I2
sVcare
p1951
I3
sVcouldn
p1952
I3
sVdeprivation
p1953
I1
sVtransition
p1954
I3
sVclarion
p1955
I1
sVbritish
p1956
I5
sVsheikhdoms
p1957
I1
sVnonprofit
p1958
I2
sVsupport
p1959
I9
sVstriking
p1960
I1
sVcpus
p1961
I1
sVyourself
p1962
I2
sVballmer
p1963
I5
sVzay
p1964
I2
sVimpossible
p1965
I4
sVmessage
p1966
I5
sVdrove
p1967
I2
sV6538
p1968
I1
sVsize
p1969
I6
sVsheep
p1970
I1
sVsheet
p1971
I1
sVcaught
p1972
I3
sVtraction
p1973
I1
sVtragic
p1974
I1
sVcarousel
p1975
I1
sVfriend
p1976
I7
sVthaw
p1977
I1
sVthat
p1978
I309
sVbrains
p1979
I1
sVexpanse
p1980
I1
sVbloomington
p1981
I1
sVtehran
p1982
I2
sVquad
p1983
I1
sVthan
p1984
I70
sVnizam
p1985
I1
sVprofessionals
p1986
I4
sVtelevision
p1987
I5
sVlucrat
p1988
I1
sVrecruit
p1989
I4
sVvocals
p1990
I1
sVsurname
p1991
I1
sVinvestors
p1992
I2
sVcorrection
p1993
I1
sVcrossover
p1994
I1
sVslam
p1995
I1
sVrecover
p1996
I2
sVimplod
p1997
I1
sVveteran
p1998
I1
sS'<h2>'
p1999
I2
sVonline
p2000
I4
sVobjective
p2001
I1
sVbusinessweek
p2002
I1
sVbegin
p2003
I1
sVfenway
p2004
I1
sVprice
p2005
I4
sVamerica
p2006
I3
sVmichelle
p2007
I1
sVdream
p2008
I2
sVsteady
p2009
I1
sVtooth
p2010
I1
sVprofessional
p2011
I4
sVsteadi
p2012
I1
sVfifty
p2013
I1
sVfifth
p2014
I1
sVground
p2015
I1
sVinevitab
p2016
I1
sVtitle
p2017
I2
sVdeployments
p2018
I1
sVstain
p2019
I11
sVcannon
p2020
I1
sVsoon
p2021
I6
sVloath
p2022
I1
sVcannot
p2023
I4
sVbracelets
p2024
I1
sVstroll
p2025
I1
sVinterpersonal
p2026
I1
sVhusband
p2027
I3
sVconcert
p2028
I1
sVburst
p2029
I1
sVwhitewash
p2030
I1
sVsport
p2031
I2
sVconcern
p2032
I5
sVisraeli
p2033
I4
sVfeuds
p2034
I1
sV3
p2035
I8
sVlandline
p2036
I1
sVbetween
p2037
I18
sVmandarin
p2038
I1
sVnicest
p2039
I1
sVdeveloper
p2040
I1
sVnathaniel
p2041
I1
sVkesner
p2042
I1
sVnotice
p2043
I1
sVjacobs
p2044
I1
sVarticle
p2045
I1
sVinstallation
p2046
I1
sVnearby
p2047
I3
sV150
p2048
I3
sVjeans
p2049
I1
sVdispatch
p2050
I2
sVcouldn't
p2051
I1
sVmoreover
p2052
I2
sVrebuild
p2053
I1
sVabsence
p2054
I1
sVsportscaster
p2055
I1
sVcountless
p2056
I1
sVthese
p2057
I27
sVtrick
p2058
I1
sVscul
p2059
I1
sVcoolest
p2060
I1
sValcoholic
p2061
I1
sVworri
p2062
I3
sVbias
p2063
I1
sVembrace
p2064
I1
sVsoldz
p2065
I2
sVmediocre
p2066
I2
sVworry
p2067
I6
sVdevelop
p2068
I14
sVmedia
p2069
I3
sVmedic
p2070
I2
sVfood
p2071
I6
sVinquiry
p2072
I2
sVlite
p2073
I1
sVfinish
p2074
I8
sVclosest
p2075
I1
sV199th
p2076
I1
sVfrankincense
p2077
I1
sVtheater
p2078
I1
sVbiederman
p2079
I1
sVtrapp
p2080
I1
sVconstitutional
p2081
I3
sVsevere
p2082
I4
sVcoordinate
p2083
I1
sVtaxi
p2084
I1
sVnoah
p2085
I1
sVvaluable
p2086
I1
sVmaternity
p2087
I2
sVtouch
p2088
I2
sVunderinvests
p2089
I2
sVdeath
p2090
I10
sVnimbler
p2091
I1
sVrole
p2092
I10
sVstruck
p2093
I2
sVreal
p2094
I26
sVhover
p2095
I4
sVstepien
p2096
I1
sVspectacular
p2097
I2
sVread
p2098
I5
sVcalendars
p2099
I1
sVoutsource
p2100
I1
sVrebecca
p2101
I1
sVheadpiece
p2102
I1
sVfortuna
p2103
I1
sVfortune
p2104
I1
sVpounds
p2105
I2
sVsuppliers
p2106
I1
sVbenefit
p2107
I7
sVt
p2108
I116
sVcalbuco
p2109
I4
sVverbal
p2110
I2
sVperverse
p2111
I1
sVethos
p2112
I1
sVwillie
p2113
I1
sVbusiness
p2114
I31
sVsixth
p2115
I1
sVequivalent
p2116
I1
sVtuition
p2117
I1
sVcredits
p2118
I5
sVsixty
p2119
I1
sV1938
p2120
I1
sVthrow
p2121
I1
sVcomparison
p2122
I1
sVcentral
p2123
I5
sVjourney
p2124
I1
sVunderway
p2125
I1
sVbackup
p2126
I1
sVprotests
p2127
I1
sVsnapchat
p2128
I1
sVyour
p2129
I18
sVlog
p2130
I1
sVprepare
p2131
I1
sVarea
p2132
I6
sVaren
p2133
I3
sVstark
p2134
I3
sVlos
p2135
I4
sVlov
p2136
I2
sVlow
p2137
I12
sVlot
p2138
I13
sVlou
p2139
I1
sVgaza
p2140
I9
sVfemal
p2141
I2
sVhire
p2142
I1
sVoutliers
p2143
I1
sVstanford
p2144
I10
sV600
p2145
I1
sVdescribe
p2146
I3
sVnerv
p2147
I1
sVreliability
p2148
I1
sVsaleh
p2149
I3
sVsulaiman
p2150
I1
sVstorage
p2151
I20
sVevent
p2152
I5
sVyou
p2153
I80
sVpoor
p2154
I8
sV60s
p2155
I1
sVdrift
p2156
I1
sVpeak
p2157
I4
sVcoverage
p2158
I2
sVtrekk
p2159
I1
sVpool
p2160
I3
sVreduc
p2161
I6
sVstrings
p2162
I1
sVskeleton
p2163
I1
sVmonth
p2164
I6
sVunrest
p2165
I3
sVmontt
p2166
I3
sVdeadline
p2167
I2
sS'<figcaption>'
p2168
I2
sVcarpet
p2169
I1
sVicons
p2170
I1
sVfoster
p2171
I1
sVsustain
p2172
I3
sVvolunteer
p2173
I1
sVgoodson
p2174
I6
sVhill
p2175
I1
sVmasquerad
p2176
I1
sVconfidential
p2177
I1
sVvery
p2178
I13
sVdecide
p2179
I3
sVlouis
p2180
I1
sVmanager
p2181
I1
sVinstagram
p2182
I1
sVstreets
p2183
I2
sVvalue
p2184
I7
sVresound
p2185
I1
sVenvisions
p2186
I1
sVconsumers
p2187
I1
sVdeborah
p2188
I2
sVmultinational
p2189
I1
sVturmoil
p2190
I1
sViran
p2191
I7
sVloose
p2192
I1
sVmisread
p2193
I1
sVtracks
p2194
I1
sVexcess
p2195
I3
sVstrong
p2196
I8
sVshibam
p2197
I1
sVconviction
p2198
I1
sVtelecast
p2199
I1
sVamount
p2200
I2
sVmarginal
p2201
I3
sVask
p2202
I22
sVlagos
p2203
I1
sVve
p2204
I14
sVaggress
p2205
I1
sVconventional
p2206
I3
sVtaker
p2207
I1
sVkhal
p2208
I2
sVcontains
p2209
I1
sVtaken
p2210
I14
sVinjury
p2211
I7
sVlineups
p2212
I1
sVbrowner
p2213
I1
sVexcuse
p2214
I2
sVclassmat
p2215
I1
sVcoalition
p2216
I2
sVnine
p2217
I2
sVyemen
p2218
I17
sVhistory
p2219
I5
sVcows
p2220
I7
sVphrase
p2221
I1
sVdaiichi
p2222
I1
sVjihadi
p2223
I1
sVbillionaire
p2224
I2
sVfr
p2225
I1
sVsneak
p2226
I1
sVembrac
p2227
I1
sVfe
p2228
I2
sS'<li>'
p2229
I4
sVfl
p2230
I1
sVa
p2231
I451
sVdocumentation
p2232
I1
sVovernight
p2233
I2
sVmantras
p2234
I1
sVdaggers
p2235
I1
sVdread
p2236
I1
sVegg
p2237
I1
sVhelp
p2238
I29
sVsood
p2239
I2
sVerod
p2240
I2
sVurine
p2241
I1
sS'<blockquote>'
p2242
I4
sVheld
p2243
I5
sVcommittee
p2244
I4
sVstaunch
p2245
I1
sVexact
p2246
I2
sVlateral
p2247
I1
sVfruitful
p2248
I1
sVterritorial
p2249
I1
sVsystems
p2250
I5
sVfounders
p2251
I2
sVceo
p2252
I1
sVsentenc
p2253
I1
sVstarbucks
p2254
I2
sVfoot
p2255
I3
sVandroid
p2256
I1
sVmosby
p2257
I23
sVisn't
p2258
I1
sVheavy
p2259
I4
sVeasley
p2260
I1
sVheavi
p2261
I2
sVtodd
p2262
I1
sVbeyond
p2263
I4
sVundraftable
p2264
I1
sVrobert
p2265
I2
sVsince
p2266
I24
sVpublish
p2267
I3
sVtrusts
p2268
I1
sVsafety
p2269
I4
sV7
p2270
I7
sVtruste
p2271
I1
sVissue
p2272
I1
sVrece
p2273
I5
sVlabs
p2274
I1
sVreason
p2275
I14
sVbase
p2276
I7
sVput
p2277
I15
sVash
p2278
I6
sVlaunch
p2279
I3
sS'<i>'
p2280
I2
sVlawler
p2281
I1
sVamerican
p2282
I12
sV[citation]
p2283
I1
sVsyria
p2284
I1
sVassign
p2285
I1
sVeffortless
p2286
I1
sVmist
p2287
I1
sVmiss
p2288
I8
sVhorse
p2289
I5
sV[ratio-tall]
p2290
I1
sVairborne
p2291
I1
sVstation
p2292
I6
sVidentity
p2293
I1
sVnigeria
p2294
I1
sVscheme
p2295
I3
sVbanana
p2296
I1
sVauthors
p2297
I2
sValbums
p2298
I1
sVgrew
p2299
I7
sVkindle
p2300
I1
sVtoward
p2301
I7
sVprocedural
p2302
I1
sValongside
p2303
I1
sVoverstate
p2304
I2
sVteslas
p2305
I1
sVsubstantial
p2306
I3
sVcontrovers
p2307
I1
sVvulnerable
p2308
I2
sVimagin
p2309
I1
sVunintend
p2310
I1
sVtrance
p2311
I1
sVlin
p2312
I3
sVcave
p2313
I1
sVofficers
p2314
I28
sVlik
p2315
I5
sVliv
p2316
I13
sVuseless
p2317
I1
sVcaliphate
p2318
I1
sVsupervolcano
p2319
I1
sVshackl
p2320
I2
sVindecis
p2321
I1
sVfreddie
p2322
I6
sVcomparisons
p2323
I1
sVcapitaliz
p2324
I1
sVsalary
p2325
I2
sVchronicle
p2326
I1
sVmobile
p2327
I2
sVclear
p2328
I11
sVclean
p2329
I2
sVusual
p2330
I4
sVtenet
p2331
I2
sVtranslation
p2332
I2
sVnegligence
p2333
I3
sVreminiscent
p2334
I1
sVnorthern
p2335
I2
sVjustice
p2336
I7
sVrandy
p2337
I1
sVpretty
p2338
I10
sVedelman
p2339
I1
sVdominant
p2340
I1
sVmeanwhile
p2341
I2
sVintensifi
p2342
I1
sVdeteriorat
p2343
I1
sVfeels
p2344
I2
sValexander
p2345
I1
sV[el__leafmedia--sourced-paragraph]
p2346
I2
sVretaliation
p2347
I1
sVx
p2348
I1
sVdur
p2349
I25
sVcommonwealthmagazine
p2350
I1
sVbacktrack
p2351
I1
sVculture
p2352
I3
sVclose
p2353
I9
sVderiv
p2354
I1
sS'<img>'
p2355
I1
sVprobable
p2356
I1
sVwop
p2357
I1
sVwoo
p2358
I1
sVwon
p2359
I8
sVconditions
p2360
I1
sVbettor
p2361
I1
sVspray
p2362
I4
sVboth
p2363
I13
sVmega
p2364
I1
sVbuzz
p2365
I1
sVexperimental
p2366
I1
sV000s
p2367
I1
sVbattery
p2368
I20
sVwhatever
p2369
I2
sVneumeier
p2370
I14
sVempti
p2371
I1
sVrugg
p2372
I1
sVthreaten
p2373
I2
sVterritory
p2374
I3
sVdelights
p2375
I1
sVmcphatter
p2376
I1
sVbox
p2377
I17
sVdialogue
p2378
I1
sVpacks
p2379
I1
sVimag
p2380
I3
sVelse
p2381
I10
sVdetermination
p2382
I1
sVloom
p2383
I1
sVlook
p2384
I29
sVsocialist
p2385
I2
sVgovernor
p2386
I5
sVpace
p2387
I2
sVwhile
p2388
I45
sVmatch
p2389
I3
sVshift
p2390
I4
sVloot
p2391
I2
sVmitchell
p2392
I2
sVguide
p2393
I1
sVloop
p2394
I1
sVpack
p2395
I3
sVvoters
p2396
I3
sVskype
p2397
I6
sVready
p2398
I4
sVshar
p2399
I4
sVanymore
p2400
I2
sVgrant
p2401
I2
sVbelong
p2402
I1
sV[caption-text]
p2403
I1
sVgrand
p2404
I1
sVconflict
p2405
I8
sVsham
p2406
I1
sVtemporary
p2407
I2
sVdime
p2408
I1
sVbonus
p2409
I1
sVinflat
p2410
I2
sV000
p2411
I14
sVspecializ
p2412
I1
sVcrucible
p2413
I1
sVolder
p2414
I2
sVbod
p2415
I4
sVhaul
p2416
I1
sVtheology
p2417
I1
sVsettlements
p2418
I1
sVskat
p2419
I2
sVuseful
p2420
I1
sVbotch
p2421
I1
sVinformal
p2422
I2
sVbarack
p2423
I1
sVmarco
p2424
I2
sVmarch
p2425
I7
sV[visually-hidden]
p2426
I1
sVgame
p2427
I19
sVpopulous
p2428
I1
sVdamage
p2429
I1
sVequity
p2430
I7
sVsignal
p2431
I1
sVstrife
p2432
I1
sVpopular
p2433
I4
sVcompensat
p2434
I1
sVterminology
p2435
I1
sVfathers
p2436
I1
sVcreation
p2437
I2
sVsome
p2438
I42
sVoutnumber
p2439
I1
sVurgent
p2440
I2
sVeconomic
p2441
I7
sVimpoverish
p2442
I1
sVfanfare
p2443
I1
sVsimmer
p2444
I3
sVminimal
p2445
I1
sVrun
p2446
I17
sVrul
p2447
I7
sVeruption
p2448
I6
sVgmat
p2449
I1
sVkimbis
p2450
I1
sVstep
p2451
I2
sVassists
p2452
I1
sVonenote
p2453
I1
sVabroad
p2454
I3
sVfaith
p2455
I1
sVidp
p2456
I1
sVpains
p2457
I2
sVblock
p2458
I1
sVdisclosure
p2459
I3
sVdetectiv
p2460
I1
sVwithin
p2461
I8
sVpentagon
p2462
I2
sVrolls
p2463
I1
sVstatistics
p2464
I1
sVcomputer
p2465
I11
sVaccountability
p2466
I3
sVheritage
p2467
I3
sVeons
p2468
I1
sVhimself
p2469
I6
sVspecialty
p2470
I1
sVlarry
p2471
I1
sVauthority
p2472
I5
sVdrifters
p2473
I7
sVsimilar
p2474
I8
sVadults
p2475
I2
sVdoesn
p2476
I16
sVcarmen
p2477
I2
sVcotton
p2478
I2
sVamounts
p2479
I2
sVtitl
p2480
I6
sVfears
p2481
I1
sVnam
p2482
I8
sVhoopla
p2483
I1
sVnat
p2484
I1
sVdepartment
p2485
I1
sVmanhattan
p2486
I2
sVdraw
p2487
I3
sVspectators
p2488
I1
sVdrap
p2489
I1
sVfewest
p2490
I1
sVresign
p2491
I1
sVregulations
p2492
I1
sVmilitants
p2493
I2
sVstructure
p2494
I2
sVintimidat
p2495
I1
sVtailpipe
p2496
I1
sVdepth
p2497
I2
sVgarrett
p2498
I2
sVproposition
p2499
I2
sVgo
p2500
I60
sVradiochemistry
p2501
I1
sVsuits
p2502
I1
sVaris
p2503
I1
sVfacebook
p2504
I3
sVgurley
p2505
I1
sVgender
p2506
I2
sVbutton
p2507
I3
sVmichael
p2508
I5
sVryan
p2509
I2
sVverdict
p2510
I1
sVepstein
p2511
I1
sVestimat
p2512
I4
sVbarbara
p2513
I1
sVenforce
p2514
I1
sVconfigurations
p2515
I1
sVriyadh
p2516
I1
sVjump
p2517
I2
sVbooth
p2518
I1
sVdownload
p2519
I2
sVclick
p2520
I1
sVplays
p2521
I3
sVexperiment
p2522
I1
sVvolatile
p2523
I1
sVcollins
p2524
I1
sV;
p2525
I23
sVshoreline
p2526
I1
sVstance
p2527
I1
sVcommercial
p2528
I3
sVbecom
p2529
I6
sVconvert
p2530
I2
sVchant
p2531
I1
sVsuburbanit
p2532
I1
sVproducts
p2533
I12
sVchang
p2534
I11
sVgene
p2535
I1
sVchanc
p2536
I1
sVdanger
p2537
I3
sVwin
p2538
I1
sVmanage
p2539
I10
sVevacuations
p2540
I1
sVwir
p2541
I1
sVcloud
p2542
I3
sVcrav
p2543
I1
sVaspirants
p2544
I1
sVconnery
p2545
I2
sVremains
p2546
I3
sVcamera
p2547
I7
sVvehicle
p2548
I4
sVjonathan
p2549
I2
sVcheeks
p2550
I1
sVvuitton
p2551
I1
sVrivalry
p2552
I1
sVretriev
p2553
I1
sVsanctions
p2554
I6
sVride
p2555
I2
sVsalar
p2556
I2
sVdropp
p2557
I2
sVmeet
p2558
I12
sVnurture
p2559
I1
sVdrops
p2560
I1
sVcontrol
p2561
I5
sVlinks
p2562
I1
sS'<address>'
p2563
I1
sVsought
p2564
I2
sVskirt
p2565
I1
sVoverse
p2566
I1
sVcircular
p2567
I1
sVfinanc
p2568
I2
sV[el__image--standard]
p2569
I1
sVtimekeep
p2570
I1
sS'<h4>'
p2571
I9
sVfamous
p2572
I3
sVpowerpoint
p2573
I1
sVclaire
p2574
I1
sVsoftware
p2575
I13
sVbyproducts
p2576
I1
sVwon't
p2577
I1
sVhelicopters
p2578
I2
sVouter
p2579
I1
sVexclusion
p2580
I1
sVguerrilla
p2581
I2
sVbrook
p2582
I4
sVhim
p2583
I23
sVovechkin
p2584
I1
sVhandl
p2585
I3
sVhands
p2586
I1
sVfront
p2587
I5
sVnajma
p2588
I1
sVimpresario
p2589
I1
sVfundraisers
p2590
I1
sVuniversity
p2591
I15
sVguard
p2592
I2
sS'<p>'
p2593
I696
sVmagnitude
p2594
I1
sVmode
p2595
I1
sVilluminate
p2596
I1
sV147
p2597
I1
sVglobe
p2598
I6
sV700
p2599
I3
sVconstitute
p2600
I1
sVinverter
p2601
I1
sVmargins
p2602
I2
sVrelegat
p2603
I1
sVsandy
p2604
I1
sVmay
p2605
I7
sVactivist
p2606
I1
sVcause
p2607
I1
sVpayroll
p2608
I2
sVreacts
p2609
I1
sV70s
p2610
I2
sVadvisor
p2611
I1
sVquants
p2612
I1
sVroute
p2613
I1
sVpictur
p2614
I2
sVflorida
p2615
I8
sVtimer
p2616
I1
sVkeep
p2617
I13
sVwonks
p2618
I1
sVevans
p2619
I5
sVblogger
p2620
I1
sVpowerful
p2621
I2
sVbars
p2622
I1
sVdate
p2623
I1
sVspots
p2624
I1
sVremak
p2625
I1
sVart
p2626
I4
sVquality
p2627
I1
sVprivacy
p2628
I1
sVankle
p2629
I1
sVfinal
p2630
I8
sVpunish
p2631
I2
sVherself
p2632
I4
sVwaist
p2633
I1
sVphotograph
p2634
I1
sVben
p2635
I1
sVaspiration
p2636
I1
sVarc
p2637
I1
sVdumb
p2638
I1
sVpeacebuild
p2639
I2
sVspurs
p2640
I3
sVjulian
p2641
I1
sVneed
p2642
I10
sVtabb
p2643
I1
sVkelley
p2644
I4
sVable
p2645
I8
sVinstance
p2646
I1
sVsingh
p2647
I1
sVsingl
p2648
I1
sVlecturer
p2649
I1
sVfuels
p2650
I2
sVradioact
p2651
I4
sVdeploy
p2652
I3
sVvengeance
p2653
I1
sVdubb
p2654
I1
sVcellphone
p2655
I1
sVplumber
p2656
I1
sVurg
p2657
I1
sVeject
p2658
I1
sVupset
p2659
I2
sVbrought
p2660
I6
sVinde
p2661
I1
sVviolation
p2662
I1
sVcrate
p2663
I1
sVbackstop
p2664
I1
sVsoldiers
p2665
I1
sVpartners
p2666
I10
sVcandidacy
p2667
I1
sVngo
p2668
I1
sVmillennia
p2669
I1
sVmadhav
p2670
I1
sVemployer
p2671
I1
sVmanufactur
p2672
I1
sVearner
p2673
I2
sVarabian
p2674
I4
sVfuel
p2675
I2
sVachieve
p2676
I3
sVfellow
p2677
I2
sVmichigan
p2678
I2
sVoverall
p2679
I3
sVjoint
p2680
I4
sVlegitimate
p2681
I3
sVjoins
p2682
I1
sV128
p2683
I2
sVstability
p2684
I1
sVevolution
p2685
I1
sVenabl
p2686
I4
sVtrucks
p2687
I4
sVshy
p2688
I1
sVshe
p2689
I45
sVseiz
p2690
I3
sVsho
p2691
I2
sVofficials
p2692
I15
sVdesperate
p2693
I2
sVtend
p2694
I4
sVwritten
p2695
I3
sVsupernatural
p2696
I1
sVtens
p2697
I2
sVneither
p2698
I1
sVzeitgeist
p2699
I1
sVcomparable
p2700
I1
sVkel
p2701
I5
sVimportance
p2702
I2
sVkec
p2703
I1
sV[credit]
p2704
I1
sVkey
p2705
I3
sVpolice
p2706
I44
sVeclips
p2707
I1
sVker
p2708
I2
sVthank
p2709
I2
sVhits
p2710
I1
sVlimits
p2711
I1
sVcareer
p2712
I8
sVtrove
p2713
I1
sVadmit
p2714
I1
sVjersey
p2715
I2
sVdiplomats
p2716
I1
sVtuesday
p2717
I5
sVsolv
p2718
I3
sVaddition
p2719
I1
sVdiscrimination
p2720
I2
sVwills
p2721
I1
sVcent
p2722
I2
sVimmense
p2723
I1
sVliberals
p2724
I1
sVkalay
p2725
I1
sVtreat
p2726
I6
sVhernandez
p2727
I2
sVshoulders
p2728
I1
sVleague
p2729
I2
sVvince
p2730
I1
sVexpenditure
p2731
I1
sVshameless
p2732
I1
sV[cap]
p2733
I2
sV[inline-video]
p2734
I1
sVharder
p2735
I1
sVgucci
p2736
I1
sVtexas
p2737
I6
sVowns
p2738
I1
sVexaminer
p2739
I3
sVbuckl
p2740
I1
sVresident
p2741
I2
sVdemo
p2742
I1
sVsurface
p2743
I5
sVrevis
p2744
I1
sVwelcom
p2745
I1
sVbegan
p2746
I9
sVparts
p2747
I1
sVspeaker
p2748
I1
sVparty
p2749
I4
sVpromoters
p2750
I1
sVabsorb
p2751
I1
sVboxers
p2752
I2
sVeffect
p2753
I5
sVdestruction
p2754
I1
sVpaycheck
p2755
I1
sVadvocat
p2756
I3
sVi
p2757
I108
sVwell
p2758
I33
sVdrone
p2759
I1
sV47
p2760
I1
sVdraconian
p2761
I1
sVmistaken
p2762
I1
sVdose
p2763
I1
sVdistant
p2764
I2
sV40
p2765
I7
sVcoordination
p2766
I2
sVdistress
p2767
I1
sVjeff
p2768
I2
sVpatricia
p2769
I1
sVkick
p2770
I2
sVfata
p2771
I1
sVdefinitive
p2772
I1
sVfate
p2773
I2
sVutah
p2774
I1
sVsnowstorm
p2775
I1
sVhistoric
p2776
I2
sVintersection
p2777
I1
sVprominent
p2778
I1
sVpacheco
p2779
I1
sVlost
p2780
I4
sVgangsters
p2781
I1
sVnecessari
p2782
I2
sVaccelerat
p2783
I1
sVpage
p2784
I1
sVrepeat
p2785
I1
sVhome
p2786
I23
sVpeter
p2787
I3
sVfactional
p2788
I1
sVbroad
p2789
I3
sV?
p2790
I39
sVencourag
p2791
I3
sVjournal
p2792
I3
sVexpansion
p2793
I1
sV[story-content]
p2794
I341
sVrefuge
p2795
I1
sVquarter
p2796
I2
sVfreedom
p2797
I2
sVtongue
p2798
I1
sVwashington
p2799
I16
sVwildstein
p2800
I5
sVcapable
p2801
I1
sVutility
p2802
I3
sVadditional
p2803
I3
sVpc
p2804
I2
sVrecruiter
p2805
I1
sVnorth
p2806
I7
sVabductions
p2807
I1
sVhq
p2808
I1
sVxerox
p2809
I1
sVevacuate
p2810
I2
sVtapers
p2811
I1
sVgoals
p2812
I1
sVtechnician
p2813
I2
sVhighest
p2814
I1
sVph
p2815
I1
sVrahul
p2816
I1
sVsucce
p2817
I2
sVdisplac
p2818
I4
sVlimit
p2819
I2
sVpiece
p2820
I1
sVdisplay
p2821
I5
sVmarketplace
p2822
I1
sVdevise
p2823
I1
sVuniversal
p2824
I1
sVerin
p2825
I1
sVeducation
p2826
I13
sVfunctions
p2827
I2
sVcontest
p2828
I3
sVdropout
p2829
I2
sVstat
p2830
I10
sVstar
p2831
I1
sVrayna
p2832
I1
sVstay
p2833
I8
sVstag
p2834
I2
sVoverinvest
p2835
I1
sVfriends
p2836
I5
sVstak
p2837
I1
sVappoint
p2838
I1
sVshuns
p2839
I1
sVpersistent
p2840
I1
sVportion
p2841
I3
sVdynamic
p2842
I1
sVasian
p2843
I1
sVwhose
p2844
I6
sVcalculate
p2845
I1
sVdisability
p2846
I1
sVpresents
p2847
I1
sVsorry
p2848
I1
sVcollaborate
p2849
I1
sVgunnison
p2850
I1
sVvoic
p2851
I1
sVflashpoint
p2852
I1
sVgovern
p2853
I12
sVaffect
p2854
I5
sVvast
p2855
I2
sVskills
p2856
I7
sVsolution
p2857
I3
sVconvenience
p2858
I1
sVups
p2859
I2
sVforce
p2860
I10
sVeven
p2861
I48
sVprisons
p2862
I1
sVlightn
p2863
I1
sVtranscrib
p2864
I1
sVspokesman
p2865
I4
sVnew
p2866
I52
sVnet
p2867
I5
sVever
p2868
I11
sVostensib
p2869
I1
sV[el__leafmedia]
p2870
I2
sVniche
p2871
I1
sVseventh
p2872
I2
sVnever
p2873
I13
sVdrew
p2874
I2
sVmet
p2875
I4
sVmunson
p2876
I1
sVnanny
p2877
I1
sVwearabl
p2878
I1
sV100
p2879
I5
sVaren't
p2880
I1
sVdry
p2881
I1
sVjams
p2882
I2
sVrests
p2883
I1
sVeconomics
p2884
I3
sVcredit
p2885
I2
sVpermit
p2886
I3
sVjamm
p2887
I1
sVmenial
p2888
I1
sVjoshua
p2889
I1
sVcampaign
p2890
I16
sVarguab
p2891
I1
sVninety
p2892
I2
sVmoral
p2893
I1
sVoverstuff
p2894
I1
sVcounts
p2895
I5
sVcountr
p2896
I3
sVarmy
p2897
I1
sVarms
p2898
I1
sVleaks
p2899
I1
sVcall
p2900
I22
sVcalm
p2901
I1
sVtype
p2902
I3
sVtell
p2903
I8
sVbreeders
p2904
I1
sVexpose
p2905
I1
sVwars
p2906
I2
sVwarn
p2907
I2
sVward
p2908
I1
sVroom
p2909
I6
sVrights
p2910
I8
sVsetup
p2911
I2
sVroof
p2912
I1
sVroot
p2913
I1
sVdefer
p2914
I1
sVmumford
p2915
I2
sVinvolve
p2916
I4
sVpolic
p2917
I5
sVconfin
p2918
I1
sVanswer
p2919
I9
sVconfid
p2920
I1
sVminority
p2921
I1
sVloyalty
p2922
I1
sVpresident
p2923
I28
sVpurchase
p2924
I2
sVauthoritat
p2925
I1
sVattempt
p2926
I1
sVthird
p2927
I7
sVmaintain
p2928
I3
sVcapitalist
p2929
I1
sVoperate
p2930
I2
sVdocuments
p2931
I6
sVoperations
p2932
I5
sVpossib
p2933
I1
sVunfolds
p2934
I1
sVfift
p2935
I1
sVkeyboard
p2936
I1
sVbefore
p2937
I22
sVpersonal
p2938
I4
sg14
I595
sVbetter
p2939
I18
sVhudood
p2940
I1
sVweeks
p2941
I4
sVdonors
p2942
I3
sVcornerback
p2943
I1
sVcombination
p2944
I2
sVleiber
p2945
I2
sVweakness
p2946
I1
sV[descender]
p2947
I2
sVwelterweight
p2948
I3
sVpromis
p2949
I3
sVdownright
p2950
I1
sVrhetoric
p2951
I1
sV[layout-large-horizontal]
p2952
I1
sVdiscipline
p2953
I1
sVwent
p2954
I9
sVside
p2955
I9
sVbone
p2956
I1
sVmean
p2957
I5
sVmarital
p2958
I1
sVcarry
p2959
I2
sVtaught
p2960
I1
sVbutterfl
p2961
I2
sVlawyers
p2962
I3
sVextract
p2963
I1
sVcontend
p2964
I3
sVvideotape
p2965
I2
sVcrucial
p2966
I4
sVsurprise
p2967
I3
sVstruggle
p2968
I1
sVstarts
p2969
I4
sVisn
p2970
I7
sVloud
p2971
I2
sVstewart
p2972
I1
sVeconomists
p2973
I2
sVfloors
p2974
I1
sVagre
p2975
I5
sVgrads
p2976
I1
sVsometim
p2977
I4
sVoutag
p2978
I1
sVinflow
p2979
I1
sVpowerwall
p2980
I2
sVhelen
p2981
I1
sVprinceton
p2982
I1
sVpreparation
p2983
I1
sVmatter
p2984
I7
sVsolomon
p2985
I1
sVbeginn
p2986
I3
sVnadella
p2987
I23
sVmodern
p2988
I4
sVmind
p2989
I3
sVseen
p2990
I2
sVseem
p2991
I8
sVchurn
p2992
I1
sVmint
p2993
I1
sVtells
p2994
I4
sVunemploy
p2995
I2
sVkarman
p2996
I1
sVwrists
p2997
I1
sVtranslator
p2998
I2
sVregular
p2999
I5
sVmarie
p3000
I2
sVmaria
p3001
I1
sVbroadcast
p3002
I1
sVdon
p3003
I40
sVdoo
p3004
I1
sVdoc
p3005
I1
sValarm
p3006
I1
sVnighttime
p3007
I1
sVdog
p3008
I1
sVcompetitors
p3009
I2
sVpoints
p3010
I5
sVdos
p3011
I1
sVpropos
p3012
I2
sVconsumer
p3013
I4
sV[footnoteBackLink]
p3014
I1
sVvisitor
p3015
I1
sVretire
p3016
I1
sVbrilliance
p3017
I1
sVnevada
p3018
I1
sVacquir
p3019
I1
sVpledg
p3020
I1
sVexplain
p3021
I8
sVsugar
p3022
I2
sVintegrate
p3023
I1
sVhoard
p3024
I1
sVmonica
p3025
I1
sVexports
p3026
I1
sVabove
p3027
I3
sVstop
p3028
I12
sVstor
p3029
I7
sVcoast
p3030
I5
sVcomply
p3031
I1
sVearl
p3032
I1
sVearn
p3033
I6
sVbar
p3034
I4
sVbas
p3035
I14
sVbay
p3036
I2
sVbad
p3037
I5
sVarchitecture
p3038
I3
sVgigafactory
p3039
I1
sVethical
p3040
I3
sVreference
p3041
I1
sV[story-notes]
p3042
I3
sVsubject
p3043
I4
sVsaid
p3044
I173
sVscrap
p3045
I1
sVpets
p3046
I1
sVcredo
p3047
I1
sVharvard
p3048
I10
sV385
p3049
I1
sVuncertainty
p3050
I3
sVagainst
p3051
I20
sVernst
p3052
I1
sVmonopolize
p3053
I1
sVcobble
p3054
I1
sVofferings
p3055
I2
sVaftermath
p3056
I1
sVsprings
p3057
I2
sVputt
p3058
I1
sVtint
p3059
I1
sVputs
p3060
I2
sVbasis
p3061
I1
sVthree
p3062
I22
sVtiny
p3063
I2
sVcommission
p3064
I2
sVtrigger
p3065
I1
sVinterest
p3066
I12
sVbasic
p3067
I2
sV[mod-a]
p3068
I2
sVwebsite
p3069
I5
sVdeeper
p3070
I1
sVefficacy
p3071
I1
sVsuppress
p3072
I1
sVdismiss
p3073
I2
sVunpunish
p3074
I1
sVservic
p3075
I2
sVnear
p3076
I16
sVsuppose
p3077
I1
sVbalance
p3078
I2
sVanchor
p3079
I3
sVspawn
p3080
I1
sVbostonians
p3081
I1
sVcane
p3082
I1
sVis
p3083
I226
sVit
p3084
I207
sVshame
p3085
I1
sVin
p3086
I386
sVseattle
p3087
I2
sVmouse
p3088
I2
sVdisappear
p3089
I1
sVif
p3090
I58
sVreceiv
p3091
I4
sVmake
p3092
I37
sVmahmud
p3093
I1
sV80s
p3094
I1
sVbells
p3095
I1
sVmeets
p3096
I1
sVdelight
p3097
I1
sVopportunity
p3098
I3
sVhe'll
p3099
I2
sVkid
p3100
I3
sVqualif
p3101
I1
sVprograms
p3102
I7
sVinherit
p3103
I1
sVqualit
p3104
I1
sVmaterials
p3105
I2
sVparadigm
p3106
I2
sVinvestments
p3107
I2
sVleft
p3108
I22
sVfacto
p3109
I1
sVjust
p3110
I51
sVfighters
p3111
I2
sVidentify
p3112
I1
sVhuman
p3113
I7
sVyet
p3114
I13
sVcandidate
p3115
I5
sVcharacter
p3116
I2
sVpotential
p3117
I5
sVaffinity
p3118
I1
sVsave
p3119
I8
sVinvoluntary
p3120
I6
sVsupervisors
p3121
I1
sVbackground
p3122
I2
sVborderless
p3123
I1
sVshoulder
p3124
I1
sVmanual
p3125
I1
sVplausib
p3126
I2
sVdean
p3127
I6
sVdeal
p3128
I9
sVpacquiao
p3129
I9
sVrepudiate
p3130
I1
sVsomehow
p3131
I1
sVdead
p3132
I4
sVdear
p3133
I1
sVinsensit
p3134
I2
sVoutspoken
p3135
I1
sVdaytime
p3136
I1
sVbold
p3137
I3
sVburn
p3138
I3
sVsuper
p3139
I7
sVchilean
p3140
I1
sVfrailer
p3141
I1
sVmagazine
p3142
I3
sVafternoon
p3143
I5
sVcommit
p3144
I3
sVmanagers
p3145
I3
sVdown
p3146
I27
sVcomplaints
p3147
I2
sV1990s
p3148
I2
sVinitial
p3149
I8
sVinitiat
p3150
I3
sVeditor
p3151
I2
sVhandicapp
p3152
I1
sVform
p3153
I4
sVforc
p3154
I10
sVfailure
p3155
I3
sVanalyst
p3156
I1
sVfort
p3157
I4
sVpavilion
p3158
I1
sVbuilds
p3159
I1
sVunderstood
p3160
I4
sVasbahi
p3161
I1
sVzari
p3162
I1
sVbenchmarks
p3163
I1
sVmusk
p3164
I5
sVfeatur
p3165
I2
sVclassic
p3166
I4
sVtoss
p3167
I1
sVcovers
p3168
I1
sVship
p3169
I3
sVfraternal
p3170
I2
sVcommunit
p3171
I3
sVfosters
p3172
I1
sVdigital
p3173
I8
sVfelt
p3174
I5
sVfell
p3175
I1
sVweekend
p3176
I7
sVbillion
p3177
I9
sVmilitias
p3178
I1
sVapology
p3179
I1
sVsantorum
p3180
I1
sVjacket
p3181
I1
sVbehner
p3182
I2
sVignor
p3183
I2
sVteeth
p3184
I1
sVsouls
p3185
I1
sVinvent
p3186
I1
sVmild
p3187
I2
sVmile
p3188
I2
sVplayoffs
p3189
I2
sV21st
p3190
I1
sVanticipation
p3191
I1
sVdepend
p3192
I3
sVfather
p3193
I4
sVcountdown
p3194
I1
sV0
p3195
I3
sVadviser
p3196
I2
sVsmartphone
p3197
I2
sVbirchbox
p3198
I1
sV1995
p3199
I3
sVgovernments
p3200
I2
sVdin
p3201
I1
sVdid
p3202
I35
sVdie
p3203
I1
sV1996
p3204
I1
sVexcellence
p3205
I2
sVround
p3206
I5
sVcalculat
p3207
I1
sVtargets
p3208
I1
sVmajors
p3209
I1
sVafghanistan
p3210
I1
sVadds
p3211
I2
sVsuspect
p3212
I1
sV[media]
p3213
I1
sVinternational
p3214
I8
sVtransportation
p3215
I1
sVinstall
p3216
I1
sVguardian
p3217
I1
sVhenry
p3218
I2
sVcoincid
p3219
I1
sVearthquake
p3220
I1
sVwait
p3221
I3
sValto
p3222
I1
sVboy
p3223
I2
sVhbo
p3224
I3
sVinvit
p3225
I2
sVinstitute
p3226
I3
sVmy
p3227
I30
sVbob
p3228
I3
sVnylon
p3229
I1
sVminecraft
p3230
I3
sVteenage
p3231
I2
sVelect
p3232
I3
sVevaluat
p3233
I1
sVflexibility
p3234
I1
sVpatriots
p3235
I12
sVverge
p3236
I1
sVeverybody
p3237
I2
sVtroops
p3238
I1
sVimpunity
p3239
I2
sVvisit
p3240
I5
sVscenarios
p3241
I2
sVacceptable
p3242
I2
sVcurriculum
p3243
I3
sVdowntown
p3244
I3
sVtandem
p3245
I1
sVmukalla
p3246
I2
sVeffort
p3247
I5
sVfly
p3248
I1
sVsoul
p3249
I1
sVsouq
p3250
I1
sVsoup
p3251
I1
sVfla
p3252
I1
sVdispute
p3253
I3
sVclaim
p3254
I5
sVsample
p3255
I5
sVcouncil
p3256
I8
sVagenc
p3257
I7
sVsunday
p3258
I2
sVpure
p3259
I1
sVmap
p3260
I1
sV140
p3261
I1
sVcritics
p3262
I9
sVaccessory
p3263
I1
sVsustainability
p3264
I7
sVmembership
p3265
I1
sVmak
p3266
I22
sVguys
p3267
I2
sVgrow
p3268
I9
sVman
p3269
I12
sVaimless
p3270
I1
sVneck
p3271
I2
sVjohnson
p3272
I1
sVmaybe
p3273
I7
sVtale
p3274
I1
sVswitch
p3275
I2
sVafrican
p3276
I2
sVtall
p3277
I1
sVbungle
p3278
I1
sVtalk
p3279
I7
sVgradual
p3280
I1
sVthresholds
p3281
I1
sVcutt
p3282
I1
sVgraduat
p3283
I24
sVarabesque
p3284
I1
sVequip
p3285
I2
sVentitl
p3286
I1
sVsatya
p3287
I2
sVgroup
p3288
I39
sVmonitor
p3289
I4
sVpolicy
p3290
I8
sVmain
p3291
I5
sVbrainer
p3292
I1
sVfinance
p3293
I12
sVviews
p3294
I2
sVsoulful
p3295
I1
sVbeit
p3296
I1
sVlunch
p3297
I3
sVaspirations
p3298
I1
sVworkload
p3299
I1
sVmansur
p3300
I2
sVrock
p3301
I5
sVcontinu
p3302
I8
sVgirl
p3303
I1
sVcorrect
p3304
I3
sVinaction
p3305
I1
sVafter
p3306
I46
sVheadlin
p3307
I2
sVcalifornia
p3308
I12
sVorg
p3309
I2
sVadvance
p3310
I2
sVlanguage
p3311
I2
sVministry
p3312
I3
sVthink
p3313
I26
sVfrequent
p3314
I3
sVfirst
p3315
I37
sVexotic
p3316
I2
sVcrim
p3317
I2
sVquestion
p3318
I11
sVamericans
p3319
I3
sVfast
p3320
I3
sVoppos
p3321
I4
sVcorporations
p3322
I1
sVsounds
p3323
I2
sVlittle
p3324
I16
sVmeaningful
p3325
I1
sVanyone
p3326
I7
sVgaudy
p3327
I1
sVmemo
p3328
I1
sVblacklist
p3329
I1
sVhillary
p3330
I1
sVteaneck
p3331
I1
sV11
p3332
I4
sV10
p3333
I21
sV13
p3334
I5
sV12
p3335
I11
sV15
p3336
I10
sV14
p3337
I4
sV17
p3338
I4
sV16
p3339
I5
sV19
p3340
I2
sVmidtown
p3341
I1
sVventure
p3342
I4
sVwere
p3343
I62
sVwatchtower
p3344
I1
sV20s
p3345
I1
sVretort
p3346
I1
sVconspiracy
p3347
I1
sVkevin
p3348
I1
sVsquar
p3349
I1
sVefficient
p3350
I1
sVjpoa
p3351
I2
sVconsortium
p3352
I1
sVopportunit
p3353
I3
sVsquad
p3354
I1
sVinterior
p3355
I6
sVenviron
p3356
I1
sVchannel
p3357
I1
sVbets
p3358
I1
sV200
p3359
I3
sVinvestigations
p3360
I1
sVtrack
p3361
I5
sVpaid
p3362
I4
sVassault
p3363
I10
sVnolan
p3364
I2
sVcontrasts
p3365
I1
sVcuban
p3366
I1
sVsurprising
p3367
I4
sVprecise
p3368
I2
sVshot
p3369
I5
sVshow
p3370
I15
sVcontemporary
p3371
I1
sVcorner
p3372
I1
sVfend
p3373
I1
sVfenc
p3374
I1
sVplume
p3375
I1
sVbehind
p3376
I4
sVanalytic
p3377
I1
sVblack
p3378
I6
sVtreasury
p3379
I2
sVawareness
p3380
I1
sVget
p3381
I27
sVemployers
p3382
I4
sVrepl
p3383
I2
sVjuleps
p3384
I1
sVgem
p3385
I1
sVtimepiece
p3386
I1
sVmedian
p3387
I1
sVyield
p3388
I1
sVchecks
p3389
I1
sVhonesty
p3390
I1
sVelevat
p3391
I1
sVseat
p3392
I2
sVrelative
p3393
I5
sVsean
p3394
I2
sVseal
p3395
I1
sVcalendar
p3396
I1
sVwonder
p3397
I5
sVpuma
p3398
I1
sVlabel
p3399
I3
sVenough
p3400
I14
sVacross
p3401
I16
sVinfrastructure
p3402
I1
sVaugust
p3403
I3
sVparent
p3404
I2
sVparental
p3405
I2
sVju
p3406
I2
sVjr
p3407
I7
sVtun
p3408
I1
sVhighlight
p3409
I2
sVsingers
p3410
I1
sVtour
p3411
I2
sVspare
p3412
I1
sVamong
p3413
I9
sVfarberman
p3414
I3
sVcancer
p3415
I1
sVcustody
p3416
I6
sVarts
p3417
I2
sVmarc
p3418
I2
sVmark
p3419
I5
sVrancher
p3420
I1
sVbmi
p3421
I1
sVdangerous
p3422
I2
sVdramatic
p3423
I4
sVwake
p3424
I1
sVthose
p3425
I32
sVsound
p3426
I3
sVrenewabl
p3427
I1
sVjetpacks
p3428
I1
sVresidence
p3429
I1
sVmargin
p3430
I1
sVgurdeep
p3431
I2
sVadvantag
p3432
I3
sVsincere
p3433
I1
sVstrait
p3434
I1
sVcoffee
p3435
I3
sVstrain
p3436
I2
sVsudden
p3437
I2
sVdifferent
p3438
I13
sVharsh
p3439
I1
sVdoctor
p3440
I1
sVpay
p3441
I10
sVsame
p3442
I22
sVpac
p3443
I5
sVspeech
p3444
I3
sVpan
p3445
I1
sVexhaust
p3446
I2
sVjeffrey
p3447
I1
sVassist
p3448
I1
sVimprov
p3449
I1
sVsemiautonomous
p3450
I1
sVmiddleweight
p3451
I1
sVdrain
p3452
I1
sVconvener
p3453
I1
sVsolve
p3454
I2
sVoutdoor
p3455
I1
sVexecut
p3456
I15
sVmoney
p3457
I16
sVsights
p3458
I1
sVaspect
p3459
I1
sVflavor
p3460
I1
sVwinner
p3461
I3
sVmcdonald
p3462
I1
sVpile
p3463
I1
sV4
p3464
I18
sVheavier
p3465
I2
sVpill
p3466
I2
sVgrit
p3467
I2
sVmov
p3468
I7
sVtemperatur
p3469
I1
sVgrid
p3470
I17
sVimplicate
p3471
I1
sVgrim
p3472
I1
sVgrin
p3473
I1
sVnose
p3474
I2
sVsmartphon
p3475
I4
sVgalvaniz
p3476
I1
sVjoan
p3477
I1
sVgross
p3478
I5
sVconfirm
p3479
I1
sVpioneer
p3480
I1
sVcritical
p3481
I9
sVknife
p3482
I2
sVseconds
p3483
I5
sVunusual
p3484
I1
sVreferr
p3485
I5
sVrefers
p3486
I1
sVwilliam
p3487
I8
sV840
p3488
I2
sVviolence
p3489
I7
sVpockets
p3490
I2
sVroad
p3491
I3
sVcheckup
p3492
I1
sVstrid
p3493
I1
sVdagger
p3494
I1
sVstrik
p3495
I4
sVstrip
p3496
I2
sVlions
p3497
I1
sVmornings
p3498
I1
sV[media-100000003659426]
p3499
I1
sVchatt
p3500
I1
sVbanksy
p3501
I9
sVbuggy
p3502
I1
sVe
p3503
I13
sVreappli
p3504
I1
sVcommonality
p3505
I1
sVwasn't
p3506
I1
sVemissions
p3507
I2
sVpowerless
p3508
I1
sVworklife
p3509
I1
sVconundrum
p3510
I1
sVdeep
p3511
I4
sVgeneral
p3512
I9
sVexamine
p3513
I1
sV38mm
p3514
I1
sVfile
p3515
I1
sVgenerat
p3516
I4
sVlifetime
p3517
I2
sVfilm
p3518
I9
sVfill
p3519
I7
sVagain
p3520
I11
sVpersonnel
p3521
I2
sVdrivers
p3522
I2
sVfield
p3523
I9
sVcleanup
p3524
I1
sVstudents
p3525
I26
sVimportant
p3526
I13
sVsubmarin
p3527
I1
sVchris
p3528
I3
sVvideotap
p3529
I3
sVspills
p3530
I1
sVu
p3531
I9
sVresolution
p3532
I2
sVrepresent
p3533
I2
sVfounder
p3534
I1
sVsuburban
p3535
I2
sVdollar
p3536
I1
sVchildren
p3537
I18
sVdiffuse
p3538
I1
sVwbal
p3539
I2
sVcoyness
p3540
I1
sVfall
p3541
I8
sVdifference
p3542
I6
sVhinterland
p3543
I1
sVmothers
p3544
I1
sVsaudi
p3545
I3
sVdamper
p3546
I1
sV20th
p3547
I2
sVneighborhood
p3548
I2
sVclinch
p3549
I1
sVzero
p3550
I1
sVlawyer
p3551
I6
sVfurther
p3552
I6
sVgrabb
p3553
I1
sVexcit
p3554
I1
sVdial
p3555
I1
sVabc
p3556
I1
sVcarcass
p3557
I5
sVveto
p3558
I2
sVabu
p3559
I5
sVpublic
p3560
I26
sVcohorts
p3561
I1
sVcomponent
p3562
I1
sVranger
p3563
I1
sVbeacon
p3564
I1
sVsimon
p3565
I25
sVvalu
p3566
I1
sVcampaigns
p3567
I3
sV900
p3568
I1
sVbible
p3569
I1
sVprosecutors
p3570
I2
sVairport
p3571
I2
sVdeclin
p3572
I3
sVtransit
p3573
I2
sVafrica
p3574
I1
sVsanction
p3575
I8
sVarrogance
p3576
I1
sVestablish
p3577
I4
sVeye
p3578
I1
sVdistinct
p3579
I2
sVdestination
p3580
I1
sVtwo
p3581
I51
sVfuror
p3582
I1
sVdesir
p3583
I2
sVadmissions
p3584
I3
sVparticular
p3585
I9
sVnineteen
p3586
I1
sVtown
p3587
I2
sVdictat
p3588
I1
sVnone
p3589
I5
sVsalesforce
p3590
I2
sVhour
p3591
I11
sVhous
p3592
I1
sVrecall
p3593
I1
sVpatroll
p3594
I1
sVroosevelt
p3595
I1
sVguards
p3596
I1
sVremain
p3597
I7
sVabandon
p3598
I2
sVhormuz
p3599
I1
sVfunders
p3600
I1
sVshare
p3601
I2
sVsuburbia
p3602
I1
sVminimum
p3603
I2
sVnumbers
p3604
I5
sVexplor
p3605
I1
sVhomicide
p3606
I4
sVneeds
p3607
I8
sVcsn
p3608
I1
sVpursu
p3609
I1
sVstir
p3610
I1
sVadvice
p3611
I2
sVblood
p3612
I1
sVfaculty
p3613
I2
sVresponse
p3614
I1
sVbrady
p3615
I2
sVcoal
p3616
I2
sVperformance
p3617
I3
sVindustrial
p3618
I1
sVthrough
p3619
I20
sVlava
p3620
I2
sVexistence
p3621
I3
sVsuffer
p3622
I6
sV25
p3623
I4
sV26
p3624
I1
sV27
p3625
I2
sV20
p3626
I6
sV21
p3627
I2
sV22
p3628
I7
sV23
p3629
I3
sV28
p3630
I3
sV29
p3631
I1
sVlate
p3632
I14
sVreuters
p3633
I2
sVpad
p3634
I1
sVclamor
p3635
I2
sVnaacp
p3636
I2
sVsomeone
p3637
I5
sVwalls
p3638
I1
sVmalek
p3639
I1
sVviewers
p3640
I4
sVlovable
p3641
I1
sVpregnant
p3642
I1
sV2x
p3643
I1
sVspy
p3644
I2
sVmbta
p3645
I2
sVshekels
p3646
I1
sVpositions
p3647
I1
sVuniversit
p3648
I1
sVharm
p3649
I2
sVeveryone
p3650
I16
sVhouse
p3651
I6
sVfish
p3652
I2
sVhard
p3653
I13
sVidea
p3654
I6
sVconnect
p3655
I2
sVripple
p3656
I1
sVinsurance
p3657
I3
sVstands
p3658
I1
sVlongtime
p3659
I6
sVprint
p3660
I3
sVlawrence
p3661
I11
sVcommitt
p3662
I4
sVbulls
p3663
I3
sVdifficulty
p3664
I2
sVmembers
p3665
I11
sVrainmakers
p3666
I1
sVbenefits
p3667
I7
sVcomputers
p3668
I3
sVtrickle
p3669
I1
sVcoulter
p3670
I1
sVjuncture
p3671
I1
sVdone
p3672
I13
sVwager
p3673
I1
sVtwenty
p3674
I2
sVkoc
p3675
I1
sVleast
p3676
I16
sVmilitant
p3677
I2
sVpaint
p3678
I5
sV180
p3679
I1
sV122nd
p3680
I1
sVpark
p3681
I1
sVpart
p3682
I31
sVbelieve
p3683
I6
sVb
p3684
I30
sVgotten
p3685
I1
sVyouth
p3686
I1
sV2020
p3687
I1
sVsupposed
p3688
I1
sVdeclare
p3689
I1
sVplead
p3690
I2
sVmeltdown
p3691
I1
sVconfirms
p3692
I1
sVorders
p3693
I2
sVbuilt
p3694
I1
sVblanco
p3695
I1
sVfoxborough
p3696
I1
sVcouch
p3697
I1
sVmajority
p3698
I3
sVcaesar
p3699
I3
sVbuild
p3700
I12
sVprovince
p3701
I2
sVdistribut
p3702
I1
sVsalmon
p3703
I1
sS'<ol>'
p3704
I2
sV[span]
p3705
I1
sVmost
p3706
I34
sVsignificant
p3707
I8
sVcharg
p3708
I19
sVhumanitarian
p3709
I2
sVweigh
p3710
I2
sVsector
p3711
I2
sVthomas
p3712
I1
sVofficers'
p3713
I1
sVobligations
p3714
I2
sVtuesdays
p3715
I1
sVfind
p3716
I10
sVambit
p3717
I4
sVmerger
p3718
I1
sVnervous
p3719
I4
sVeruptions
p3720
I2
sVoverride
p3721
I1
sV8
p3722
I2
sVprowess
p3723
I1
sVpermission
p3724
I2
sVcheaper
p3725
I2
sVbatter
p3726
I12
sVresolve
p3727
I1
sVremove
p3728
I4
sVcommon
p3729
I3
sVgospel
p3730
I1
sVdigitals
p3731
I1
sVbiannual
p3732
I1
sVindividual
p3733
I3
sVrepairs
p3734
I1
sVexpert
p3735
I1
sVsometh
p3736
I7
sVmerrimack
p3737
I1
sVdebat
p3738
I1
sVfans
p3739
I3
sVsmallest
p3740
I1
sVexperi
p3741
I3
sVhistorical
p3742
I1
sVaircraft
p3743
I1
sVlightness
p3744
I2
sVmarilyn
p3745
I3
sVannual
p3746
I7
sVbaltimore
p3747
I19
sVconsume
p3748
I1
sVpoint
p3749
I15
sVtennessee
p3750
I1
sVshutdown
p3751
I1
sVthroughout
p3752
I3
sVexpensive
p3753
I1
sVraise
p3754
I7
sVcreate
p3755
I5
sVsecret
p3756
I8
sVslipp
p3757
I1
sVgat
p3758
I1
sVgas
p3759
I4
sVgap
p3760
I3
sVgam
p3761
I3
sVunderstand
p3762
I6
sVevangelical
p3763
I1
sVpolitician
p3764
I1
sS'<cite>'
p3765
I3
sVsolid
p3766
I1
sVbill
p3767
I10
sVelections
p3768
I2
sVmissteps
p3769
I1
sVunifi
p3770
I2
sVfun
p3771
I3
sVful
p3772
I7
sVcentury
p3773
I6
sVitself
p3774
I8
sVtelecasts
p3775
I1
sVbenign
p3776
I1
sVemphasize
p3777
I2
sVstripp
p3778
I1
sVyesterday
p3779
I2
sVdesks
p3780
I1
sVhusbands
p3781
I1
sVpurpose
p3782
I1
sVswimm
p3783
I1
sVunveil
p3784
I1
sVtask
p3785
I5
sVspent
p3786
I2
sVflags
p3787
I1
sVtoil
p3788
I1
sVorganization
p3789
I7
sVchemistry
p3790
I1
sVspend
p3791
I11
sVprevention
p3792
I1
sVhastings
p3793
I1
sVsnow
p3794
I3
sVatomic
p3795
I1
sVguant
p3796
I1
sVatco
p3797
I1
sVwage
p3798
I5
sVcut
p3799
I1
sVcup
p3800
I1
sS'<footer>'
p3801
I3
sVpersuad
p3802
I4
sVkinect
p3803
I1
sVsource
p3804
I2
sVterris
p3805
I1
sVpreferenc
p3806
I1
sVbrainstorm
p3807
I1
sVluncheonette
p3808
I1
sVbil
p3809
I1
sVbig
p3810
I21
sVbid
p3811
I1
sVeducator
p3812
I1
sVdisplace
p3813
I1
sVmatters
p3814
I3
sVbit
p3815
I7
sVanandtech
p3816
I1
sV[figure]
p3817
I1
sV[meta-classifier]
p3818
I1
sVgoogle
p3819
I8
sVoften
p3820
I9
sVextremism
p3821
I3
sVback
p3822
I24
sVextremist
p3823
I1
sVstrongest
p3824
I2
sVmirror
p3825
I2
sVscale
p3826
I7
sVpet
p3827
I1
sVdecision
p3828
I6
sVpep
p3829
I1
sVintegration
p3830
I2
sVper
p3831
I5
sVnewark
p3832
I1
sVdistracts
p3833
I1
sVlark
p3834
I1
sVeither
p3835
I11
sV300
p3836
I2
sVimpos
p3837
I1
sVusb
p3838
I1
sVgoods
p3839
I2
sVjessen
p3840
I2
sVgraduation
p3841
I1
sVmartinez
p3842
I2
sVsteven
p3843
I5
sVlesson
p3844
I2
sV[flex-embed]
p3845
I1
sVinclud
p3846
I19
sVforward
p3847
I6
sVtranslate
p3848
I1
sVspecifical
p3849
I1
sV[aside]
p3850
I2
sVinvite
p3851
I1
sVbyrne
p3852
I1
sVmurphy
p3853
I1
sVimmigration
p3854
I1
sVboys
p3855
I3
sVtranslat
p3856
I1
sVswitchboard
p3857
I1
sVsubsidiary
p3858
I1
sVmavericks
p3859
I1
sVplanet
p3860
I4
sVexploration
p3861
I1
sVskittish
p3862
I1
sVcurv
p3863
I1
sVsort
p3864
I3
sVpartition
p3865
I1
sVconstant
p3866
I1
sVmetal
p3867
I3
sVutilit
p3868
I1
sVsingle
p3869
I3
sVcurb
p3870
I1
sVpsychoanalysis
p3871
I1
sVdeadpann
p3872
I2
sVkirk
p3873
I1
sVfunctionality
p3874
I1
sVllanquihue
p3875
I1
sVaccidental
p3876
I1
sVlend
p3877
I1
sVcopblock
p3878
I1
sVlens
p3879
I3
sVrepresentat
p3880
I1
sVdesert
p3881
I2
sVdeserv
p3882
I1
sVbankers
p3883
I1
sV2002
p3884
I1
sV2003
p3885
I1
sV2000
p3886
I1
sVreimagin
p3887
I1
sV2007
p3888
I1
sV2004
p3889
I7
sV2005
p3890
I3
sV2008
p3891
I1
sV2009
p3892
I2
sVnoon
p3893
I3
sVminors
p3894
I1
sVsensit
p3895
I1
sVappointee
p3896
I1
sVsuave
p3897
I1
sVhelps
p3898
I5
sVmaryland
p3899
I3
sVfatal
p3900
I3
sVnervousness
p3901
I1
sVdisclos
p3902
I1
sVsurgeon
p3903
I2
sVlegos
p3904
I1
sVentire
p3905
I3
sVnotabl
p3906
I1
sVjoel
p3907
I1
sVshock
p3908
I1
sVradio
p3909
I1
sVtolmach
p3910
I1
sVvisualiz
p3911
I1
sVmural
p3912
I6
sVrivers
p3913
I1
sVedison
p3914
I1
sVchicago
p3915
I5
sVaccess
p3916
I4
sVanywhere
p3917
I5
sVbody
p3918
I5
sVmauricio
p3919
I1
sVexchange
p3920
I1
sVindustr
p3921
I2
sVpeggy
p3922
I1
sVbachelor
p3923
I4
sVobjects
p3924
I2
sVothers
p3925
I5
sVsing
p3926
I3
sV38
p3927
I2
sVtalent
p3928
I2
sV33
p3929
I1
sV32
p3930
I5
sV30
p3931
I12
sV37
p3932
I1
sV36
p3933
I1
sV35
p3934
I2
sV34
p3935
I5
sVhonor
p3936
I3
sVprivate
p3937
I15
sVmanny
p3938
I3
sVscandal
p3939
I1
sVresolutions
p3940
I1
sVstaple
p3941
I1
sVfootage
p3942
I2
sVseamless
p3943
I2
sVnobel
p3944
I1
sV[image]
p3945
I1
sVtrail
p3946
I2
sVtrain
p3947
I5
sViii
p3948
I1
sVhints
p3949
I1
sVaccount
p3950
I5
sVinclinations
p3951
I1
sVf
p3952
I18
sVstations
p3953
I1
sVobvious
p3954
I1
sVemploye
p3955
I7
sVcontempt
p3956
I1
sVsurfac
p3957
I1
sVdemocracy
p3958
I1
sVawkwardness
p3959
I1
sVholds
p3960
I2
sVwinners
p3961
I1
sVforest
p3962
I7
sVrevs
p3963
I1
sVstock
p3964
I3
sVbuildings
p3965
I3
sVwaters
p3966
I2
sVleukemia
p3967
I1
sVcollection
p3968
I1
sVfray
p3969
I1
sVbind
p3970
I1
sVguru
p3971
I1
sVliner
p3972
I1
sVchief
p3973
I19
sVgeopolitics
p3974
I1
sVmeter
p3975
I2
sVlands
p3976
I1
sVhorns
p3977
I1
sVagricultural
p3978
I1
sVbridget
p3979
I1
sVla
p3980
I1
sVll
p3981
I8
sVli
p3982
I1
sVlt
p3983
I2
sVcriminal
p3984
I3
sVly
p3985
I2
sVdad
p3986
I2
sVgreater
p3987
I2
sVdan
p3988
I1
sVdai
p3989
I1
sVdat
p3990
I1
sVmention
p3991
I4
sVmandate
p3992
I1
sVsurviv
p3993
I2
sVday
p3994
I29
sVpreschool
p3995
I2
sVfebruary
p3996
I6
sVthrill
p3997
I2
sV[js__image--standard]
p3998
I1
sVelus
p3999
I1
sVsexual
p4000
I2
sVrez
p4001
I1
sVmatt
p4002
I2
sVrep
p4003
I1
sVcasios
p4004
I2
sVfarm
p4005
I1
sVstud
p4006
I6
sVelectronics
p4007
I1
sVdefens
p4008
I4
sVchronical
p4009
I1
sV589
p4010
I4
sVanalytical
p4011
I1
sVreleas
p4012
I10
sVlikelihood
p4013
I2
sVinteraction
p4014
I3
sVyard
p4015
I1
sVghraib
p4016
I2
sVbarriers
p4017
I2
sVretain
p4018
I1
sVrunn
p4019
I7
sVsouth
p4020
I5
sVsack
p4021
I1
sVstrategic
p4022
I1
sVimprovements
p4023
I1
sVhurdle
p4024
I1
sVwarships
p4025
I1
sVmessag
p4026
I3
sVpalestine
p4027
I1
sVcabin
p4028
I6
sVpreakness
p4029
I1
sVgear
p4030
I2
sVexplanation
p4031
I2
sVnobody
p4032
I1
sVenvironmental
p4033
I6
sVreaffirm
p4034
I2
sVipad
p4035
I1
sVstructur
p4036
I2
sVcompensation
p4037
I2
sVlover
p4038
I1
sVcomfortable
p4039
I1
sVhave
p4040
I143
sVdisturbing
p4041
I1
sVturn
p4042
I18
sVdemonstration
p4043
I2
sVcontinents
p4044
I1
sVmil
p4045
I1
sVmin
p4046
I1
sVgravity
p4047
I1
sVconcerns
p4048
I1
sV325
p4049
I1
sVautocratic
p4050
I1
sVunless
p4051
I2
sVprocure
p4052
I2
sVeight
p4053
I4
sVprisoner
p4054
I2
sVtranscript
p4055
I1
sVlandscap
p4056
I1
sVgather
p4057
I1
sVgraphs
p4058
I2
sVoccasion
p4059
I3
sVmi6
p4060
I1
sVselection
p4061
I1
sVtext
p4062
I2
sVhomeowner
p4063
I1
sVthicker
p4064
I2
sVstaff
p4065
I5
sVknowledge
p4066
I1
sVwith
p4067
I173
sVcontrols
p4068
I1
sVhall
p4069
I2
sVbeat
p4070
I2
sVincreas
p4071
I9
sVjapan
p4072
I3
sVareas
p4073
I5
sVteams
p4074
I6
sVexists
p4075
I1
sVnational
p4076
I18
sVaccord
p4077
I25
sVdislodge
p4078
I1
sVbargains
p4079
I1
sVreform
p4080
I3
sVbrunt
p4081
I1
sVroutine
p4082
I1
sVprogress
p4083
I4
sVdeliver
p4084
I5
sVjoke
p4085
I1
sVequal
p4086
I2
sVtrips
p4087
I1
sVassure
p4088
I1
sVinstanc
p4089
I1
sValeuy
p4090
I1
sVotherwise
p4091
I1
sVrelevant
p4092
I2
sVguidelin
p4093
I2
sVlaugh
p4094
I2
sVfukushima
p4095
I6
sVattende
p4096
I1
sVag
p4097
I3
sV[feat-pq]
p4098
I2
sVcertain
p4099
I10
sVcurtail
p4100
I1
sVgoddess
p4101
I5
sVburrard
p4102
I1
sVplayer
p4103
I3
sVbull
p4104
I2
sVglitzy
p4105
I1
sVblackouts
p4106
I1
sVmulti
p4107
I1
sVatmospheric
p4108
I1
sVsplits
p4109
I1
sVappearance
p4110
I1
sVpromoter
p4111
I1
sVdefin
p4112
I1
sVentrepreneurial
p4113
I3
sVjeanette
p4114
I1
sValmost
p4115
I11
sVarrangements
p4116
I3
sVarabia
p4117
I4
sVpartner
p4118
I4
sVportray
p4119
I1
sVproductivity
p4120
I3
sVadministration
p4121
I14
sVshuttle
p4122
I1
sVcommodit
p4123
I1
sVpowell
p4124
I1
sVprais
p4125
I2
sVpractice
p4126
I3
sVcubic
p4127
I2
sVsisters
p4128
I2
sVfrancisco
p4129
I3
sVcenter
p4130
I10
sVnevertheless
p4131
I1
sVseth
p4132
I1
sVantonio
p4133
I1
sVsett
p4134
I1
sVsets
p4135
I2
sVposition
p4136
I1
sVmuscle
p4137
I1
sVsoviet
p4138
I1
sVlatest
p4139
I3
sVproximity
p4140
I2
sVambition
p4141
I1
sVdomestic
p4142
I1
sVtone
p4143
I3
sVlake
p4144
I1
sVbench
p4145
I1
sVadd
p4146
I15
sVincorporations
p4147
I1
sVcitizen
p4148
I2
sV280
p4149
I1
sVadl
p4150
I1
sVought
p4151
I1
sVtests
p4152
I1
sVrealiz
p4153
I1
sVlike
p4154
I58
sVsuccess
p4155
I6
sVhousekeeper
p4156
I1
sVkhyber
p4157
I3
sVworks
p4158
I4
sVsoft
p4159
I2
sVbecquerels
p4160
I3
sVhail
p4161
I1
sVhair
p4162
I1
sVproper
p4163
I4
sVhappens
p4164
I3
sVbulbous
p4165
I1
sVcorpse
p4166
I1
sVappreciat
p4167
I1
sVdiscretion
p4168
I1
sVeconomical
p4169
I2
sVregain
p4170
I1
sVstellar
p4171
I1
sVlieutenant
p4172
I1
sVhost
p4173
I4
sValthough
p4174
I1
sVhospitable
p4175
I1
sVglobaliz
p4176
I1
sVpanel
p4177
I4
sVretribution
p4178
I1
sVabout
p4179
I67
sVactual
p4180
I12
sVescanilla
p4181
I8
sVcertainty
p4182
I1
sVbrattle
p4183
I1
sVucluelet
p4184
I2
sVfunctional
p4185
I1
sVchronic
p4186
I1
sVplayoff
p4187
I1
sVfemale
p4188
I2
sV1986
p4189
I2
sV1987
p4190
I1
sV1982
p4191
I1
sV1980
p4192
I1
sV1981
p4193
I3
sVadversarial
p4194
I1
sV1988
p4195
I1
sVrusher
p4196
I3
sVbiggest
p4197
I10
sVchunk
p4198
I1
sVbuy
p4199
I10
sVbus
p4200
I4
sVbrand
p4201
I1
sVbut
p4202
I155
sVrajan
p4203
I1
sVrepeated
p4204
I1
sVremote
p4205
I1
sVversatile
p4206
I1
sVglory
p4207
I1
sVwish
p4208
I4
sVj
p4209
I9
sVflip
p4210
I2
sVsportsnet
p4211
I3
sVundercard
p4212
I1
sVplutonium
p4213
I1
sVpil
p4214
I1
sVpie
p4215
I1
sVperiods
p4216
I1
sVcampus
p4217
I4
sV48
p4218
I1
sV49
p4219
I1
sVcorporation
p4220
I1
sV44
p4221
I1
sV42
p4222
I1
sVdetail
p4223
I5
sVvirtual
p4224
I7
sVdetain
p4225
I2
sVspecial
p4226
I4
sVrelativ
p4227
I1
sVstimulant
p4228
I1
sVdictatorships
p4229
I1
sVseismic
p4230
I2
sVoriginal
p4231
I2
sV4k
p4232
I1
sVslogg
p4233
I1
sVhats
p4234
I1
sVsleep
p4235
I1
sVparis
p4236
I2
sVpoorest
p4237
I1
sVthinness
p4238
I2
sVunder
p4239
I15
sVpride
p4240
I1
sVlegislators
p4241
I1
sVrisk
p4242
I5
sV141st
p4243
I1
sVrise
p4244
I8
sVevery
p4245
I10
sVjack
p4246
I5
sVschool
p4247
I43
sVflashy
p4248
I1
sVfairfax
p4249
I1
sVenjoy
p4250
I1
sVleaders
p4251
I13
sVconsistent
p4252
I3
sVwelfare
p4253
I1
sVdirect
p4254
I10
sVstreet
p4255
I9
sVblue
p4256
I1
sVweren
p4257
I2
sVpoison
p4258
I3
sVconduct
p4259
I7
sVinternships
p4260
I1
sVramps
p4261
I1
sVhundreds
p4262
I1
sVyanke
p4263
I4
sVhumility
p4264
I3
sVpath
p4265
I3
sVvoice
p4266
I5
sVanalysts
p4267
I2
sVchanger
p4268
I1
sVoffs
p4269
I3
sS'<div>'
p4270
I14
sVstrap
p4271
I2
sVvisible
p4272
I1
sVdescrib
p4273
I7
sVwould
p4274
I65
sVhospital
p4275
I1
sV25th
p4276
I1
sVbreathe
p4277
I1
sVunrestrain
p4278
I2
sVphone
p4279
I3
sVmust
p4280
I6
sVme
p4281
I34
sVmd
p4282
I1
sVjoin
p4283
I6
sVmo
p4284
I7
sVdizzy
p4285
I1
sVms
p4286
I46
sVmr
p4287
I99
sVsalvage
p4288
I1
sVdeclassifi
p4289
I1
sVfortress
p4290
I1
sVestate
p4291
I1
sVgadgets
p4292
I4
sVoverheard
p4293
I1
sVattract
p4294
I2
sVguarantee
p4295
I1
sVend
p4296
I10
sVconversation
p4297
I2
sVtoxic
p4298
I1
sVwidespread
p4299
I1
sVkilowatt
p4300
I1
sVelizabeth
p4301
I1
sV[a]
p4302
I13
sVmesh
p4303
I2
sVamid
p4304
I3
sVspous
p4305
I1
sVcomplexity
p4306
I1
sVupside
p4307
I1
sVultimate
p4308
I3
sVenter
p4309
I6
sVharlem
p4310
I4
sVover
p4311
I49
sVexpects
p4312
I4
sVlondon
p4313
I2
sVwomanhood
p4314
I1
sVexpectations
p4315
I1
sVcomprehend
p4316
I1
sVfade
p4317
I2
sV400
p4318
I5
sVcomprehens
p4319
I1
sVclu
p4320
I1
sVtourist
p4321
I1
sValex
p4322
I2
sVcronyism
p4323
I1
sVrockville
p4324
I1
sVundermin
p4325
I1
sVeach
p4326
I11
sV[promo]
p4327
I2
sVsaturday
p4328
I9
sVdepress
p4329
I3
sVpsychic
p4330
I1
sVlaid
p4331
I1
sVmillennium
p4332
I1
sVgot
p4333
I9
sVgov
p4334
I3
sVgop
p4335
I3
sVperception
p4336
I1
sVassociate
p4337
I5
sVhang
p4338
I1
sVfree
p4339
I4
sVrain
p4340
I1
sVdonta
p4341
I1
sVdays
p4342
I9
sVheck
p4343
I1
sVbrioni
p4344
I1
sVaspire
p4345
I1
sVprobab
p4346
I8
sVonto
p4347
I5
sVrand
p4348
I2
sVrang
p4349
I2
sValready
p4350
I14
sVresearcher
p4351
I5
sVnhl
p4352
I1
sVpuck
p4353
I1
sVrank
p4354
I8
sVrestrict
p4355
I3
sVfantasy
p4356
I1
sVtoy
p4357
I3
sVtop
p4358
I17
sVton
p4359
I1
sVtoo
p4360
I21
sVtom
p4361
I3
sVpercentage
p4362
I2
sVmilitancy
p4363
I2
sS'<b>'
p4364
I9
sVmurder
p4365
I9
sVtool
p4366
I2
sVserve
p4367
I2
sVtook
p4368
I12
sVwestern
p4369
I4
sVunsaid
p4370
I1
sVkidnapp
p4371
I1
sVroxbury
p4372
I2
sVimmigrants
p4373
I1
sVrolex
p4374
I1
sVbridge
p4375
I3
sVfashion
p4376
I1
sVrac
p4377
I5
sVran
p4378
I2
sVral
p4379
I1
sVkyle
p4380
I1
sVraw
p4381
I1
sVrat
p4382
I3
sVray
p4383
I2
sV1968
p4384
I1
sV1960
p4385
I1
sV1961
p4386
I1
sV1962
p4387
I1
sVbrandon
p4388
I1
sVcontact
p4389
I1
sVhatch
p4390
I1
sVclunky
p4391
I1
sVthough
p4392
I16
sVdetainee
p4393
I2
sVplenty
p4394
I4
sValabama
p4395
I1
sVflop
p4396
I1
sVflow
p4397
I1
sVreductions
p4398
I2
sVlabels
p4399
I1
sVcoordinat
p4400
I2
sVsolutions
p4401
I1
sVdiminish
p4402
I1
sVearth
p4403
I2
sVbain
p4404
I2
sVspite
p4405
I1
sVsituations
p4406
I2
sVdelays
p4407
I1
sVannounce
p4408
I8
sVhardball
p4409
I2
sVwatch
p4410
I26
sVamazon
p4411
I5
sVdespite
p4412
I8
sVreport
p4413
I33
sVdominique
p4414
I1
sVtwice
p4415
I2
sVerupt
p4416
I4
sVunwitting
p4417
I1
sVruins
p4418
I1
sVswept
p4419
I1
sV1960s
p4420
I2
sVcampbell
p4421
I1
sVcorrupt
p4422
I2
sVsporadic
p4423
I1
sVcapacity
p4424
I3
sVmud
p4425
I1
sVmum
p4426
I1
sVapproach
p4427
I6
sVcollaborat
p4428
I3
sVhowever
p4429
I6
sVboss
p4430
I2
sVwear
p4431
I3
sVcontamination
p4432
I4
sVnews
p4433
I12
sVimprove
p4434
I2
sVprotect
p4435
I10
sVcandidat
p4436
I3
sVplayers
p4437
I7
sVexpense
p4438
I1
sVsullivan
p4439
I3
sVtrust
p4440
I2
sVconference
p4441
I13
sVbathroom
p4442
I4
sS'<strong>'
p4443
I49
sVbeen
p4444
I57
sVconfident
p4445
I1
sVsearch
p4446
I2
sVcraft
p4447
I1
sVcatch
p4448
I2
sVkentucky
p4449
I4
sVn
p4450
I7
sVlesser
p4451
I1
sV[inline-photo]
p4452
I2
sVexperts
p4453
I5
sVsuggest
p4454
I2
sVwound
p4455
I1
sVswall
p4456
I1
sVforehead
p4457
I1
sVutilitarian
p4458
I1
sVcomplex
p4459
I3
sVseveral
p4460
I12
sVcomplet
p4461
I3
sVpick
p4462
I16
sVschem
p4463
I1
sVcharacters
p4464
I1
sVcycle
p4465
I1
sVneurologists
p4466
I1
sVcharlie
p4467
I1
sVlitigator
p4468
I1
sVocean
p4469
I4
sV[meta-loc]
p4470
I1
sVsavings
p4471
I1
sVhearty
p4472
I1
sVgreatest
p4473
I2
sVmother
p4474
I6
sVeveryth
p4475
I5
sVappease
p4476
I2
sVlaptop
p4477
I5
sVcouncilman
p4478
I1
sVfiefs
p4479
I1
sVdepart
p4480
I9
sVelk
p4481
I1
sVkell
p4482
I1
sVteenager
p4483
I2
sVtechnological
p4484
I1
sVconjur
p4485
I1
sVgave
p4486
I7
sVbands
p4487
I2
sVizzedine
p4488
I1
sVauthorship
p4489
I1
sVapart
p4490
I1
sVgift
p4491
I1
sV51
p4492
I1
sV50
p4493
I7
sVspecific
p4494
I2
sVofficer
p4495
I20
sVarbitrary
p4496
I1
sVhung
p4497
I1
sVmatchup
p4498
I1
sVjennifer
p4499
I1
sVclubs
p4500
I1
sVelection
p4501
I1
sVear
p4502
I14
sVcnn
p4503
I5
sVcore
p4504
I1
sVboundar
p4505
I1
sVchapter
p4506
I3
sVattacks
p4507
I1
sVsurround
p4508
I3
sVdinner
p4509
I1
sVplus
p4510
I3
sVefforts
p4511
I2
sVcurry
p4512
I3
sVproduc
p4513
I6
sVunrespons
p4514
I5
sVduke
p4515
I2
sVfroze
p4516
I1
sVpresence
p4517
I2
sVcivil
p4518
I8
sVaccommodate
p4519
I1
sVentrepreneur
p4520
I1
sVbatt
p4521
I2
sVppv
p4522
I1
sVcoastal
p4523
I2
sVrounds
p4524
I2
sVgiv
p4525
I12
sVrely
p4526
I1
sVfrustrat
p4527
I2
sVclass
p4528
I13
sVsends
p4529
I1
sVreli
p4530
I2
sVseeker
p4531
I1
sVsynthesiz
p4532
I1
sVcrews
p4533
I1
sVquestionable
p4534
I1
sVhead
p4535
I9
sVsubsidiz
p4536
I2
sVwireless
p4537
I2
sVuncle
p4538
I1
sVsolar
p4539
I18
sVcounsel
p4540
I2
sVversions
p4541
I1
sVsupp
p4542
I1
sVbargain
p4543
I1
sVdecorate
p4544
I1
sVearthshak
p4545
I1
sVimpropriety
p4546
I1
sVadvancements
p4547
I1
sVrahm
p4548
I1
sVkaufman
p4549
I2
sVsometime
p4550
I1
sVcheck
p4551
I4
sVregime
p4552
I1
sVshenbari
p4553
I8
sVno
p4554
I55
sVwhereas
p4555
I1
sVwhen
p4556
I73
sVne
p4557
I30
sVtir
p4558
I1
sVtim
p4559
I26
sVtin
p4560
I1
sVstagnant
p4561
I1
sVtie
p4562
I1
sVhundr
p4563
I4
sVnodd
p4564
I1
sVfootball
p4565
I3
sVyounger
p4566
I2
sVlonger
p4567
I7
sVserious
p4568
I2
sVcoach
p4569
I2
sV[embedded]
p4570
I1
sVron
p4571
I1
sVrob
p4572
I2
sVfocus
p4573
I10
sVdeprav
p4574
I3
sVrecharge
p4575
I1
sV1947
p4576
I1
sVcharge
p4577
I4
sVmultilinear
p4578
I1
sVhenderson
p4579
I1
sVsourc
p4580
I2
sVfederation
p4581
I1
sVadvantage
p4582
I4
sVimpend
p4583
I1
sVtanks
p4584
I2
sVcook
p4585
I4
sVcool
p4586
I6
sVlevel
p4587
I9
sVcamaraderie
p4588
I1
sVbrother
p4589
I1
sVstandards
p4590
I4
sVyale
p4591
I4
sVquick
p4592
I5
sVsays
p4593
I36
sVtrend
p4594
I1
sVport
p4595
I4
sVsubstitute
p4596
I1
sVconstitution
p4597
I1
sV522
p4598
I1
sVhairy
p4599
I1
sVwater
p4600
I9
sVbaseball
p4601
I1
sVgroups
p4602
I7
sVthirty
p4603
I2
sVhealthy
p4604
I1
sVrethink
p4605
I1
sVguilty
p4606
I3
sVshootings
p4607
I1
sVhopeful
p4608
I1
sVoverthink
p4609
I1
sVcrisis
p4610
I4
sVconcoct
p4611
I1
sVgrievanc
p4612
I1
sVsports
p4613
I4
sViphone
p4614
I6
sVprev
p4615
I7
sVtoday
p4616
I26
sVriot
p4617
I1
sVsessions
p4618
I1
sVoutputs
p4619
I1
sVemployee
p4620
I5
sVdrown
p4621
I1
sVventur
p4622
I1
sVsheds
p4623
I1
sVthousands
p4624
I2
sVbattl
p4625
I1
sVjudy
p4626
I1
sVterrell
p4627
I1
sVstreak
p4628
I1
sVfigure
p4629
I3
sVexpectant
p4630
I1
sVcritic
p4631
I1
sVbezos
p4632
I1
sVquacks
p4633
I1
sVprovoke
p4634
I1
sVrequirements
p4635
I1
sV1
p4636
I22
sVrubio
p4637
I4
sVfourth
p4638
I4
sVensure
p4639
I1
sVspeaks
p4640
I1
sV!
p4641
I1
sVhuge
p4642
I4
sVharvardno
p4643
I1
sVislamic
p4644
I2
sVeighth
p4645
I1
sVclassroom
p4646
I1
sVpractic
p4647
I1
sVcommodity
p4648
I1
sVmayweather
p4649
I9
sVsept
p4650
I2
sVinform
p4651
I3
sVcombin
p4652
I2
sV125
p4653
I1
sVfallout
p4654
I5
sVmidnight
p4655
I1
sVcanard
p4656
I1
sVsuperbelt
p4657
I1
sVgtm
p4658
I6
sVplatform
p4659
I2
sVoffers
p4660
I2
sVgray
p4661
I42
sVconversations
p4662
I1
sVwagon
p4663
I4
sVterm
p4664
I4
sVname
p4665
I11
sVnamo
p4666
I1
sVrealistic
p4667
I1
sVgust
p4668
I1
sVmeasurabl
p4669
I1
sVgaps
p4670
I1
sVbegun
p4671
I1
sVfactors
p4672
I1
sVprofit
p4673
I2
sVtensions
p4674
I3
sVmaneuver
p4675
I1
sVtheory
p4676
I2
sVcontain
p4677
I2
sVisotope
p4678
I2
sVdispatcher
p4679
I1
sVunpaid
p4680
I1
sVplace
p4681
I10
sVlactation
p4682
I1
sVswing
p4683
I1
sVsuspend
p4684
I2
sVexecutiv
p4685
I5
sVrevenue
p4686
I3
sVclumsy
p4687
I1
sVarray
p4688
I1
sVgeorge
p4689
I4
sVengineer
p4690
I4
sVgiven
p4691
I7
sVafterthought
p4692
I1
sVdistrict
p4693
I1
sVstuck
p4694
I4
sVplastic
p4695
I2
sVreturns
p4696
I1
sVfought
p4697
I3
sVwhite
p4698
I6
sVcopi
p4699
I3
sVhuh
p4700
I1
sValan
p4701
I2
sVspecify
p4702
I1
sVdarduna
p4703
I1
sVwide
p4704
I8
sVnathan
p4705
I1
sVrequire
p4706
I2
sVspokeswoman
p4707
I6
sVr
p4708
I24
sVposit
p4709
I1
sVoutcome
p4710
I3
sVoath
p4711
I1
sVtransport
p4712
I6
sVand
p4713
I438
sVpro
p4714
I3
sVrent
p4715
I2
sVanx
p4716
I1
sVany
p4717
I27
sVtechniqu
p4718
I1
sVideas
p4719
I2
sVemphasis
p4720
I1
sVemphasiz
p4721
I1
sVsurf
p4722
I1
sVsurg
p4723
I1
sVsure
p4724
I10
sVmultiple
p4725
I2
sVclearer
p4726
I1
sVrematch
p4727
I1
sVconnor
p4728
I1
sVmultiply
p4729
I1
sVadopt
p4730
I2
sVhungry
p4731
I1
sVruntim
p4732
I1
sVhear
p4733
I3
sVsenior
p4734
I9
sVinequity
p4735
I1
sVcheat
p4736
I4
sVworkshops
p4737
I1
sVallegations
p4738
I2
sVtroy
p4739
I1
sVpermiss
p4740
I1
sVgulf
p4741
I2
sVstate
p4742
I25
sVcrime
p4743
I1
sVwood
p4744
I2
sVpartake
p4745
I1
sVindicat
p4746
I2
sVlighter
p4747
I1
sVcautionary
p4748
I1
sVreveal
p4749
I5
sVbought
p4750
I1
sVken
p4751
I2
sVartworks
p4752
I1
sV1920
p4753
I1
sVcollege
p4754
I29
sVcadets
p4755
I1
sVduggan
p4756
I1
sVdetect
p4757
I2
sVvoluntary
p4758
I1
sVfederal
p4759
I10
sVsubsequent
p4760
I1
sVreview
p4761
I10
sVdefinite
p4762
I1
sVweapons
p4763
I2
sVoutside
p4764
I2
sVsnowmass
p4765
I1
sVarrival
p4766
I1
sVreceivers
p4767
I1
sVcriticiz
p4768
I2
sVguitar
p4769
I1
sVcycl
p4770
I2
sVpens
p4771
I3
sVcome
p4772
I17
sVregion
p4773
I5
sVsenator
p4774
I1
sVregressions
p4775
I1
sVentit
p4776
I1
sVduty
p4777
I1
sV[media__image]
p4778
I1
sVcolor
p4779
I1
sVinspir
p4780
I2
sVperiod
p4781
I2
sVinsist
p4782
I3
sV60
p4783
I5
sV61
p4784
I1
sV62
p4785
I1
sVpundits
p4786
I1
sV66
p4787
I1
sV69
p4788
I1
sVsidelin
p4789
I1
sVturkey
p4790
I1
sVsaudis
p4791
I1
sVcoupl
p4792
I1
sVpeaceful
p4793
I1
sV500
p4794
I4
sVengine
p4795
I1
sVdirection
p4796
I1
sVminister
p4797
I2
sVcareful
p4798
I2
sVchampions
p4799
I4
sVpilot
p4800
I1
sVcase
p4801
I15
sVmyself
p4802
I1
sVlife4
p4803
I1
sVamend
p4804
I1
sVcash
p4805
I4
sVpremature
p4806
I1
sVcast
p4807
I2
sVtelephone
p4808
I1
sVdissident
p4809
I1
sVgood
p4810
I21
sVauthor
p4811
I7
sValphabet
p4812
I1
sVnighter
p4813
I1
sVtrip
p4814
I5
sVreminder
p4815
I4
sVevents
p4816
I4
sVweek
p4817
I23
sVassembl
p4818
I2
sVweei
p4819
I1
sVpersona
p4820
I1
sVdriver
p4821
I3
sVnesn
p4822
I1
sVlamentation
p4823
I1
sVsubmariner
p4824
I1
sVarose
p4825
I1
sVfootprint
p4826
I3
sVweep
p4827
I3
sVminimize
p4828
I1
sV[edTag]
p4829
I1
sVwithout
p4830
I11
sVrelief
p4831
I3
sVcomponents
p4832
I1
sVmodel
p4833
I10
sVreward
p4834
I1
sVresearchers
p4835
I7
sVjustify
p4836
I2
sVdesolate
p4837
I1
sVgavin
p4838
I1
sVviolent
p4839
I3
sVkill
p4840
I5
sVclos
p4841
I1
sVpolish
p4842
I2
sV[inline-photo-normal]
p4843
I2
sVblow
p4844
I2
sVseems
p4845
I3
sVexcept
p4846
I2
sVassociation
p4847
I27
sVdisrupt
p4848
I4
sVross
p4849
I3
sVkingdom
p4850
I1
sVvirginia
p4851
I2
sVexcret
p4852
I1
sVparticle
p4853
I1
sVbracelet
p4854
I1
sVdonations
p4855
I2
sVrecalls
p4856
I1
sVcollapsible
p4857
I1
sVpacific
p4858
I5
sVrespect
p4859
I4
sVmood
p4860
I1
sVoverstat
p4861
I1
sVslick
p4862
I2
sVstops
p4863
I2
sVhanif
p4864
I1
sVporter
p4865
I4
sV[media__image--responsive]
p4866
I1
sVcommunicate
p4867
I1
sVslaughter
p4868
I1
sVbluefins
p4869
I1
sVon
p4870
I248
sVoh
p4871
I1
sVof
p4872
I427
sVchoirs
p4873
I1
sVleagu
p4874
I1
sVstand
p4875
I11
sVgregory
p4876
I1
sVor
p4877
I77
sVcommunication
p4878
I1
sVspinal
p4879
I1
sVaccounts
p4880
I2
sVdetermine
p4881
I2
sVthere
p4882
I71
sVdispersion
p4883
I1
sVinterfac
p4884
I1
sVvalley
p4885
I1
sVenergy
p4886
I26
sVrelig
p4887
I3
sVjug
p4888
I1
sVkittens
p4889
I2
sVregard
p4890
I2
sVdiffus
p4891
I1
sVwholesale
p4892
I2
sVnotab
p4893
I2
sVtreadwell
p4894
I2
sVbritain
p4895
I1
sVyemeni
p4896
I2
sVencompass
p4897
I1
sVrasha
p4898
I1
sV5
p4899
I13
sVsufficient
p4900
I1
sVchampionship
p4901
I3
sVseparate
p4902
I1
sVsymbol
p4903
I1
sVspouse
p4904
I1
sVculminat
p4905
I1
sVcalls
p4906
I7
sVwife
p4907
I5
sVinvest
p4908
I6
sVodds
p4909
I2
sVdirectors
p4910
I1
sVall
p4911
I60
sVchinese
p4912
I1
sVali
p4913
I1
sVscrappy
p4914
I1
sVlack
p4915
I7
sVbaroni
p4916
I2
sVearners
p4917
I1
sVfollow
p4918
I6
sVdecisions
p4919
I5
sVhouthis
p4920
I1
sVcatastrophe
p4921
I2
sVbalenciaga
p4922
I2
sVthursday
p4923
I17
sVaaron
p4924
I1
sVprogram
p4925
I27
sVwoman
p4926
I3
sVworse
p4927
I3
sVsong
p4928
I3
sVfar
p4929
I11
sVfat
p4930
I1
sVcerebellum
p4931
I1
sVpsychologist
p4932
I4
sVsons
p4933
I1
sVfan
p4934
I1
sVawful
p4935
I1
sVsony
p4936
I1
sVticket
p4937
I1
sVticker
p4938
I2
sVlist
p4939
I6
sVgrandfather
p4940
I1
sVundone
p4941
I1
sVmanslaughter
p4942
I13
sVten
p4943
I4
sVtea
p4944
I1
sVquer
p4945
I2
sVtex
p4946
I1
sVmiscarriag
p4947
I1
sVrate
p4948
I2
sVhawdramaut
p4949
I1
sVnbc
p4950
I5
sVnba
p4951
I3
sVwhat
p4952
I48
sVbrien
p4953
I7
sVsun
p4954
I7
sVsum
p4955
I2
sVparalegal
p4956
I3
sVbrief
p4957
I2
sVcrush
p4958
I2
sVversion
p4959
I4
sVguns
p4960
I1
sVthemselv
p4961
I7
sVremarkab
p4962
I4
sVberkeley
p4963
I1
sVtragedy
p4964
I1
sVincrements
p4965
I2
sVallows
p4966
I3
sVoptions
p4967
I4
sV1901
p4968
I1
sVproceed
p4969
I1
sVdraftniks
p4970
I1
sVquasi
p4971
I1
sVmarkets
p4972
I4
sVminor
p4973
I3
sVseeps
p4974
I1
sVflat
p4975
I1
sVisrael
p4976
I6
sVknows
p4977
I3
sVhoffman
p4978
I3
sVproblem
p4979
I10
sVflag
p4980
I2
sVfloyd
p4981
I3
sVstick
p4982
I2
sVknown
p4983
I4
sVglad
p4984
I3
sVeden
p4985
I1
sVequation
p4986
I2
sVoutlin
p4987
I1
sVv
p4988
I1
sVpony
p4989
I1
sVbrown
p4990
I16
sVcoop
p4991
I1
sVszalai
p4992
I1
sVallege
p4993
I1
sVcours
p4994
I6
sVcourt
p4995
I5
sVgoal
p4996
I1
sVevacuat
p4997
I2
sVdesperation
p4998
I1
sVrather
p4999
I12
sVbuzzword
p5000
I1
sVexplains
p5001
I5
sVubiquitous
p5002
I2
sVbrands
p5003
I2
sVpreoccupi
p5004
I1
sVshort
p5005
I9
sVmeticulous
p5006
I1
sVcaus
p5007
I7
sVshade
p5008
I1
sVshadi
p5009
I1
sVturnover
p5010
I1
sVdon't
p5011
I2
sVseptember
p5012
I3
sVessence
p5013
I2
sVcloseness
p5014
I1
sVmission
p5015
I4
sVscientist
p5016
I1
sVmilwaukee
p5017
I1
sVislam
p5018
I1
sVstyle
p5019
I6
sVborder
p5020
I3
sVscor
p5021
I3
sVstephen
p5022
I2
sVargentina
p5023
I1
sVmight
p5024
I16
sVaccompli
p5025
I1
sVwouldn
p5026
I3
sVreturn
p5027
I4
sVclippers
p5028
I3
sVunits
p5029
I1
sVcasio
p5030
I2
sVsmoothness
p5031
I1
sVbigger
p5032
I2
sVmarcus
p5033
I1
sVinequality
p5034
I1
sVundertak
p5035
I1
sVceas
p5036
I1
sVrainmaker
p5037
I1
sVweight
p5038
I5
sVgeneration
p5039
I3
sVexpect
p5040
I16
sVloops
p5041
I1
sVtelltale
p5042
I2
sVdiscrete
p5043
I1
sVnavigational
p5044
I1
sVadhere
p5045
I1
sVhealth
p5046
I11
sVbillikopf
p5047
I2
sVbenjamin
p5048
I2
sVwisconsin
p5049
I1
sVadvanc
p5050
I1
sVfriday
p5051
I9
sVguess
p5052
I1
sVethnomusicologist
p5053
I1
sVteach
p5054
I3
sVthrown
p5055
I1
sVthread
p5056
I2
sVthreat
p5057
I1
sVdivorce
p5058
I1
sVconsequence
p5059
I1
sVfallen
p5060
I2
sVjadoon
p5061
I1
sVseeming
p5062
I2
sVfeel
p5063
I8
sVfancy
p5064
I1
sVfeet
p5065
I5
sVbrave
p5066
I1
sVstory
p5067
I5
sVscript
p5068
I1
sVprescient
p5069
I1
sViraq
p5070
I2
sVgpu
p5071
I3
sVstore
p5072
I5
sVoption
p5073
I2
sVhotel
p5074
I2
sValbeit
p5075
I1
sVkind
p5076
I8
sVremov
p5077
I1
sVstall
p5078
I1
sVrisks
p5079
I1
sVsalazar
p5080
I1
sVrisky
p5081
I1
sVcleaner
p5082
I1
sVskyscrapers
p5083
I1
sVoverrat
p5084
I1
sVimports
p5085
I1
sValike
p5086
I1
sVunikrn
p5087
I1
sVnights
p5088
I1
sVviolat
p5089
I1
sVchairman
p5090
I2
sVdonor
p5091
I1
sVrol
p5092
I1
sVzeus
p5093
I1
sVelectric
p5094
I7
sV[meta-org]
p5095
I2
sVgoldman
p5096
I1
sVaman
p5097
I1
sVreach
p5098
I11
sV76
p5099
I1
sVshareholder
p5100
I1
sV70
p5101
I4
sVgilt
p5102
I1
sVseasons
p5103
I1
sVamaz
p5104
I1
sVwindows
p5105
I4
sVdestruct
p5106
I2
sVtraditional
p5107
I1
sVforerunner
p5108
I1
sVnotch
p5109
I1
sVinstitutions
p5110
I1
sVdeserts
p5111
I1
sVinflection
p5112
I1
sVpenalty
p5113
I2
sVshepherd
p5114
I1
sVhir
p5115
I8
sVhis
p5116
I87
sVhit
p5117
I8
sVgains
p5118
I4
sValicia
p5119
I2
sVemails
p5120
I5
sVadulthood
p5121
I1
sVtimeless
p5122
I1
sVinvestigate
p5123
I1
sVactivity
p5124
I2
sVsustainable
p5125
I2
sVvincent
p5126
I1
sVrelentless
p5127
I1
sVwrote
p5128
I11
sVgroupe
p5129
I1
sVarr
p5130
I1
sVstump
p5131
I1
sVintelligence
p5132
I4
sVdefense
p5133
I5
sVbare
p5134
I2
sVare
p5135
I124
sVdemonstrat
p5136
I2
sVark
p5137
I1
sVarm
p5138
I6
sVcutoffs
p5139
I2
sVthreats
p5140
I3
sVobstructionist
p5141
I1
sVuser
p5142
I3
sVunions
p5143
I1
sVsolo
p5144
I2
sVsold
p5145
I2
sVattention
p5146
I5
sVopposition
p5147
I2
sVfranchise
p5148
I1
sVcondo
p5149
I1
sVc
p5150
I22
sVordinanc
p5151
I1
sVautomatics
p5152
I1
sVbecame
p5153
I6
sVoperat
p5154
I6
sVconsiderab
p5155
I1
sVfinds
p5156
I1
sVprofessorial
p5157
I1
sVreject
p5158
I1
sVranchers
p5159
I1
sVreasons
p5160
I3
sVravi
p5161
I2
sVmistak
p5162
I2
sVseiko
p5163
I3
sVbolster
p5164
I1
sVdecline
p5165
I2
sVoverlook
p5166
I1
sVpolitical
p5167
I13
sVdue
p5168
I6
sVstrategy
p5169
I4
sVwhom
p5170
I1
sVpe
p5171
I1
sVbrick
p5172
I1
sV1950s
p5173
I1
sVuninform
p5174
I1
sVorchestrat
p5175
I2
sVdemand
p5176
I7
sVplants
p5177
I2
sVgeorgia
p5178
I3
sVfrozen
p5179
I1
sVuncontroll
p5180
I1
sVbehavior
p5181
I2
sVengineers
p5182
I3
sVmuhler
p5183
I1
sVris
p5184
I2
sVrip
p5185
I1
sVobstacle
p5186
I1
sVrid
p5187
I2
sVcurrents
p5188
I1
sVqat
p5189
I1
sS'<ul>'
p5190
I2
sV9
p5191
I3
sVadvise
p5192
I1
sVdaughters
p5193
I1
sVhigher
p5194
I9
sVliterature
p5195
I1
sVflows
p5196
I1
sVexpropriat
p5197
I1
sVflown
p5198
I1
sVcontractors
p5199
I3
sVlower
p5200
I6
sVanybody
p5201
I2
sVanalysis
p5202
I3
sVcheer
p5203
I1
sVedge
p5204
I2
sVinspirational
p5205
I1
sVobituar
p5206
I1
sVsystematical
p5207
I1
sVquestions
p5208
I8
sVpatel
p5209
I1
sVcontinent
p5210
I1
sVprofitable
p5211
I1
sVtablet
p5212
I2
sVadvisers
p5213
I1
sVworkers
p5214
I6
sVcontractor
p5215
I1
sVviolations
p5216
I1
sVcomplaint
p5217
I1
sVdiscriminatory
p5218
I2
sVnecessary
p5219
I2
sVawaken
p5220
I1
sVcapitals
p5221
I2
sVcollect
p5222
I4
sVarthur
p5223
I1
sVunstable
p5224
I1
sVessential
p5225
I3
sVtraits
p5226
I1
sVvacate
p5227
I1
sVsurpris
p5228
I4
sVpatterson
p5229
I2
sVprov
p5230
I3
sVpros
p5231
I1
sVinnovation
p5232
I3
sVanne
p5233
I1
sVmartin
p5234
I1
sValoft
p5235
I1
sVsqueez
p5236
I1
sVintense
p5237
I2
sVpipeline
p5238
I1
sVentrepreneurs
p5239
I3
sVsurfers
p5240
I1
sVfrightful
p5241
I1
sVstricken
p5242
I1
sVrange
p5243
I6
sVcutoff
p5244
I2
sVmommy
p5245
I1
sVannounc
p5246
I10
sVrows
p5247
I1
sVlone
p5248
I2
sVlong
p5249
I23
sVvendors
p5250
I2
sVmountains
p5251
I3
sV[figcaption]
p5252
I1
sS'<span>'
p5253
I5
sVfluctuations
p5254
I1
sVfreak
p5255
I1
sVmillar
p5256
I1
sVralli
p5257
I1
sVcoordinator
p5258
I1
sVfamil
p5259
I4
sVrainy
p5260
I1
sVpeace
p5261
I4
sVbacks
p5262
I1
sVnich
p5263
I1
sVgre
p5264
I1
sVincome
p5265
I2
sVmock
p5266
I1
sVnice
p5267
I4
sVusers
p5268
I4
sVproblems
p5269
I5
sVdevelops
p5270
I1
sVhappier
p5271
I1
sVvice
p5272
I8
sVreiner
p5273
I1
sV196th
p5274
I1
sVintentional
p5275
I2
sV[el__gallery_image-title]
p5276
I1
sVonce
p5277
I19
sValleyways
p5278
I1
sVresistance
p5279
I2
sVsteve
p5280
I2
sVwinds
p5281
I1
sVcontributions
p5282
I1
sVspector
p5283
I1
sVgold
p5284
I1
sVuphold
p5285
I1
sVdisposal
p5286
I1
sVinclude
p5287
I8
sVmainstream
p5288
I1
sV[el-editorial-source]
p5289
I2
sVdeals
p5290
I1
sVfriendliness
p5291
I1
sVpleas
p5292
I2
sVsomeday
p5293
I2
sVsmaller
p5294
I3
sVjudg
p5295
I2
sVoverhype
p5296
I1
sVreunion
p5297
I1
sVmakers
p5298
I2
sVcompar
p5299
I3
sVshowcase
p5300
I1
sVcapital
p5301
I6
sVcompan
p5302
I17
sVchose
p5303
I1
sVdegree
p5304
I26
sVgiant
p5305
I2
sVyoungest
p5306
I2
sVexplore
p5307
I1
sVmetro
p5308
I3
sVlarger
p5309
I6
sVmetre
p5310
I2
sVcalvin
p5311
I1
sVsuggests
p5312
I1
sVcesium
p5313
I6
sVmatos
p5314
I1
sVapple
p5315
I35
sVdeputy
p5316
I3
sVappli
p5317
I1
sVapp
p5318
I1
sVapt
p5319
I1
sVmotor
p5320
I1
sVduck
p5321
I2
sVuse
p5322
I20
sVfee
p5323
I2
sVfrom
p5324
I108
sVfec
p5325
I2
sVconsumption
p5326
I1
sVnormal
p5327
I1
sVfew
p5328
I19
sVexamination
p5329
I1
sVpushback
p5330
I1
sVedgewood
p5331
I1
sVdysfunctional
p5332
I1
sVcarroll
p5333
I2
sVmusician
p5334
I1
sVimpress
p5335
I7
sV[inline-content]
p5336
I3
sVcooperate
p5337
I1
sVrabbit
p5338
I1
sVrecount
p5339
I1
sVwomen
p5340
I15
sVannoy
p5341
I1
sVaugment
p5342
I3
sVstroke
p5343
I6
sVcondominium
p5344
I1
sVpedagogy
p5345
I1
sVtap
p5346
I4
sVdedicat
p5347
I2
sVtax
p5348
I3
sVtag
p5349
I1
sVtak
p5350
I14
sVsip
p5351
I1
sVbathiche
p5352
I1
sVsit
p5353
I5
sVsiz
p5354
I2
sVsix
p5355
I20
sVfortunate
p5356
I1
sVbrian
p5357
I3
sVcamels
p5358
I1
sVsid
p5359
I2
sVinstead
p5360
I5
sVpanic
p5361
I3
sVsil
p5362
I2
sVvisceral
p5363
I1
sVattend
p5364
I7
sVabuse
p5365
I4
sVwrist
p5366
I4
sV[meta-per]
p5367
I2
sVhighlands
p5368
I1
sVstrapp
p5369
I1
sVlight
p5370
I6
sVstraps
p5371
I2
sVemanuel
p5372
I1
sVdoubleheader
p5373
I1
sVinescapability
p5374
I1
sVspreads
p5375
I1
sVjoanne
p5376
I1
sV137
p5377
I2
sVlooks
p5378
I3
sV134
p5379
I2
sV139
p5380
I1
sVsuperior
p5381
I1
sVinlet
p5382
I1
sVshipp
p5383
I2
sVpermanent
p5384
I2
sVrestrain
p5385
I1
sVchoose
p5386
I4
sVbye
p5387
I1
sVcrowds
p5388
I1
sVmaterial
p5389
I3
sVflout
p5390
I1
sVnegligent
p5391
I2
sVemerald
p5392
I1
sVrepublican
p5393
I5
sVflee
p5394
I3
sVtrad
p5395
I2
sVprofound
p5396
I1
sVnfl
p5397
I5
sVdepriv
p5398
I1
sVcocoon
p5399
I1
sVbills
p5400
I2
sVcounterinsurgency
p5401
I2
sVour
p5402
I17
sV80
p5403
I1
sV87
p5404
I1
sVout
p5405
I64
sVcategory
p5406
I2
sVfrontier
p5407
I1
sVgerwehr
p5408
I3
sVchaos
p5409
I3
sVdeloitte
p5410
I2
sVsupports
p5411
I2
sVdisclose
p5412
I1
sVipod
p5413
I1
sVyork
p5414
I8
sVconflicts
p5415
I4
sV8p
p5416
I1
sVlazowska
p5417
I1
sVnavy
p5418
I1
sVg
p5419
I13
sVillicit
p5420
I1
sVhence
p5421
I1
sVorganiz
p5422
I4
sVziegler
p5423
I2
sVendemic
p5424
I1
sS'<em>'
p5425
I18
sVdoesn't
p5426
I2
sVovertime
p5427
I2
sVredondo
p5428
I1
sVtheir
p5429
I69
sVboil
p5430
I1
sVseminars
p5431
I1
sVacademy
p5432
I1
sVdecompos
p5433
I1
sVshelv
p5434
I1
sVinstitution
p5435
I2
sVengag
p5436
I3
sVcohen
p5437
I1
sVteenagers
p5438
I2
sVafraid
p5439
I1
sVkristy
p5440
I1
sVagency
p5441
I6
sVdjambias
p5442
I1
sVpossibilit
p5443
I1
sVwhich
p5444
I78
sVfunds
p5445
I1
sVdivert
p5446
I1
sVcombat
p5447
I1
sVmavens
p5448
I1
sVwho
p5449
I106
sVwhy
p5450
I22
sVbarista
p5451
I1
sVdeni
p5452
I2
sVdenn
p5453
I1
sVdetermin
p5454
I3
sVfowler
p5455
I2
sVgain
p5456
I1
sVdemocrats
p5457
I2
sVutter
p5458
I1
sVchicken
p5459
I1
sVdebate
p5460
I5
sVlitigation
p5461
I1
sVholistic
p5462
I1
sVlocat
p5463
I2
sVparlia
p5464
I1
sVeat
p5465
I1
sVsurroundings
p5466
I1
sVhe
p5467
I148
sVlocal
p5468
I14
sVindignant
p5469
I1
sVprosecute
p5470
I1
sVinsead
p5471
I3
sVcontribut
p5472
I3
sVcuba
p5473
I1
sV999
p5474
I1
sVwords
p5475
I7
sVsegin
p5476
I5
sVchampagne
p5477
I1
sVbelts
p5478
I5
sVaffluent
p5479
I1
sVneumy
p5480
I2
sVgenerations
p5481
I4
sVview
p5482
I5
sVavailable
p5483
I6
sVtroubl
p5484
I2
sVcloser
p5485
I2
sVfavor
p5486
I2
sVpants
p5487
I1
sVability
p5488
I3
sVjoy
p5489
I1
sVjob
p5490
I11
sVjoe
p5491
I3
sVjok
p5492
I1
sVswift
p5493
I1
sVjon
p5494
I1
sVapril
p5495
I10
sVwall
p5496
I8
sVarriv
p5497
I7
sVenvironments
p5498
I1
sVwalk
p5499
I7
sVtristar
p5500
I1
sVtable
p5501
I1
sVdecent
p5502
I3
sVcharts
p5503
I1
sVbesid
p5504
I2
sVcounterculture
p5505
I1
sVmike
p5506
I2
sVmenendez
p5507
I2
sV[story-meta]
p5508
I3
sVscrutiny
p5509
I2
sVcoastlin
p5510
I1
sVpresent
p5511
I3
sVunlike
p5512
I2
sVwill
p5513
I55
sVwild
p5514
I2
sVobserv
p5515
I2
sVlayer
p5516
I2
sVmotivational
p5517
I1
sVthus
p5518
I3
sVmotiv
p5519
I1
sVdual
p5520
I2
sVperhaps
p5521
I5
sVvintage
p5522
I1
sVradiation
p5523
I4
sVcross
p5524
I2
sVmember
p5525
I2
sVcummerbunds
p5526
I1
sVlargest
p5527
I4
sVinch
p5528
I5
sVgets
p5529
I3
sVgett
p5530
I9
sVdifficult
p5531
I4
sVdisagree
p5532
I1
sVbeast
p5533
I1
sVbastien
p5534
I1
sVstudent
p5535
I5
sVlobby
p5536
I1
sVenglish
p5537
I3
sVrecollection
p5538
I1
sVtoilets
p5539
I1
sVrapid
p5540
I2
sVconsole
p5541
I1
sVprovision
p5542
I1
sVsmith
p5543
I1
sVdiscuss
p5544
I5
sVclyde
p5545
I1
sVother
p5546
I50
sVadoption
p5547
I1
sVusage
p5548
I1
sVsmart
p5549
I5
sVidentical
p5550
I1
sVlegitimiz
p5551
I1
sVbranch
p5552
I5
sVprotesters
p5553
I2
sVinterrogation
p5554
I12
sVkellogg
p5555
I6
sVknow
p5556
I34
sVpress
p5557
I5
sVmiami
p5558
I4
sVtaxpayers
p5559
I5
sVexceed
p5560
I2
sVbecause
p5561
I38
sVsequence
p5562
I1
sV111
p5563
I1
sV118
p5564
I1
sVsupple
p5565
I1
sVlead
p5566
I9
sVleak
p5567
I2
sVbreakthroughs
p5568
I2
sVlean
p5569
I1
sV14th
p5570
I1
sVleap
p5571
I3
sVleav
p5572
I8
sVsettl
p5573
I2
sVleader
p5574
I3
sVpoets
p5575
I1
sVobey
p5576
I1
sVrare
p5577
I2
sVextension
p5578
I1
sVsaddle
p5579
I1
sVcolumn
p5580
I2
sVuniverse
p5581
I1
sVsectarian
p5582
I1
sVperks
p5583
I2
sVcarrier
p5584
I1
sVsweat
p5585
I1
sVsemifinal
p5586
I1
sVown
p5587
I22
sVwilderness
p5588
I4
sVwarrants
p5589
I1
sVautomat
p5590
I1
sVfundraiser
p5591
I1
sVweather
p5592
I3
sVpromise
p5593
I1
sVbrush
p5594
I2
sVlawful
p5595
I1
sVvan
p5596
I20
sVapps
p5597
I2
sVintention
p5598
I1
sVvar
p5599
I2
sVredmond
p5600
I1
sVshane
p5601
I1
sVmanghani
p5602
I2
sVmutter
p5603
I1
sVvolume
p5604
I1
sVsqueeze
p5605
I2
sVmade
p5606
I21
sVtactics
p5607
I4
sVwhether
p5608
I15
sVinjur
p5609
I3
sVdistract
p5610
I1
sVrecord
p5611
I17
sVbelow
p5612
I3
sVeagerness
p5613
I1
sVjenny
p5614
I1
sVinadequate
p5615
I2
sVmeaningless
p5616
I1
sVmaroon
p5617
I1
sVet
p5618
I5
sVmutual
p5619
I1
sVpercent
p5620
I19
sVsimulat
p5621
I1
sVhurwitz
p5622
I1
sVbook
p5623
I6
sVboom
p5624
I1
sVsick
p5625
I2
sVjune
p5626
I6
sVcontends
p5627
I1
sVexperienc
p5628
I1
sVemerg
p5629
I2
ssg31
I714
ssS'dateline'
p5630
(dp5631
g3
(dp5632
V[dateline]
p5633
I1
sV30
p5634
I1
sg14
I1
sVthursday
p5635
I1
sVapril
p5636
I1
sV2015
p5637
I1
sS'<h6>'
p5638
I1
ssg31
I1
ssS'spam'
p5639
(dp5640
g3
(dp5641
g35
I2
sV[el__position]
p5642
I2
sVhatr
p5643
I1
sV[t-upshot]
p5644
I1
sV[extended-byline]
p5645
I1
sVprotest
p5646
I1
sVornate
p5647
I1
sVtanenbaum
p5648
I1
sVgabriella
p5649
I2
sV[media-100000003598179]
p5650
I1
sVwhose
p5651
I1
sVauthorit
p5652
I1
sVelectricity
p5653
I1
sVspew
p5654
I1
sVunder
p5655
I2
sVonstage
p5656
I1
sVregrets
p5657
I1
sVbenvolin
p5658
I1
sVrisk
p5659
I1
sVrise
p5660
I2
sVpharoah
p5661
I1
sVjack
p5662
I2
sVgovern
p5663
I2
sVfour
p5664
I4
sVschool
p5665
I4
sVwednesday
p5666
I1
sV[layout-small-vertical]
p5667
I1
sS'<a>'
p5668
I132
sVsecond
p5669
I2
sVlehigh
p5670
I2
sVair
p5671
I2
sVeven
p5672
I1
sVhide
p5673
I4
sVagainreplaymore
p5674
I1
sV[g-show-xsmall]
p5675
I1
sVasia
p5676
I1
sVfuerza
p5677
I1
sVabove
p5678
I1
sS'<header>'
p5679
I9
sVnew
p5680
I32
sV[el__leafmedia]
p5681
I5
sVnever
p5682
I1
sVyanke
p5683
I1
sVprotection
p5684
I1
sVethanol
p5685
I1
sVpath
p5686
I1
sVdoro
p5687
I1
sVdaughter
p5688
I2
sVforum
p5689
I1
sV[media__image--cut-format]
p5690
I2
sVannounc
p5691
I3
sVitems
p5692
I1
sg73
I2
sVreports
p5693
I1
sVcredit
p5694
I31
sVsmoke
p5695
I2
sVmilitary
p5696
I1
sVgolden
p5697
I1
sV[hed-section]
p5698
I3
sVsplitapril
p5699
I1
sVpsychological
p5700
I2
sVchieppo
p5701
I1
sVtotal
p5702
I1
sVunit
p5703
I2
sVturrialba
p5704
I1
sVarmy
p5705
I1
sVarms
p5706
I1
sV[cn]
p5707
I1
sVrattl
p5708
I1
sVtell
p5709
I1
sVmusk
p5710
I1
sVbedrosian
p5711
I9
sVsaber
p5712
I2
sVcardiology
p5713
I1
sVrelat
p5714
I9
sVwars
p5715
I1
sVconnecticut
p5716
I1
sVhold
p5717
I3
sVtampa
p5718
I1
sVmust
p5719
I1
sV[story-print-citation]
p5720
I5
sV[value]
p5721
I1
sV1997
p5722
I1
sV1999
p5723
I2
sVwork
p5724
I3
sVroof
p5725
I1
sVera
p5726
I1
sVms
p5727
I2
sV[story-footer-links]
p5728
I5
sVcould
p5729
I1
sVleonhardt
p5730
I2
sVin
p5731
I36
sVindia
p5732
I1
sVinvolve
p5733
I1
sV[footer]
p5734
I5
sVwant
p5735
I1
sVceremony
p5736
I1
sVkarymsky
p5737
I1
sV[g-show-small]
p5738
I1
sVhom
p5739
I1
sVfoursom
p5740
I1
sVdamage
p5741
I1
sVhow
p5742
I5
sVhot
p5743
I1
sVupdat
p5744
I2
sVladder
p5745
I1
sVafter
p5746
I7
sV[a]
p5747
I10
sV[dfp-right2]
p5748
I1
sVpresident
p5749
I4
sVlaw
p5750
I5
sV[interactive-kicker]
p5751
I2
sVlas
p5752
I1
sVthird
p5753
I1
sVgreet
p5754
I1
sVpressphoto
p5755
I2
sVenviron
p5756
I1
sV[rg-header]
p5757
I1
sVorder
p5758
I6
sVwind
p5759
I1
sV[video__end-slate__engage__more]
p5760
I1
sV[video__end-slate__tertiary]
p5761
I1
sVoffice
p5762
I2
sV[theme-upshot]
p5763
I1
sVover
p5764
I3
sVresidents
p5765
I2
sVbefore
p5766
I3
sVhighlights
p5767
I1
sVfix
p5768
I2
sg14
I57
sVoffic
p5769
I1
sVproduction
p5770
I1
sS'<button>'
p5771
I7
sV400
p5772
I1
sV[rg-th]
p5773
I1
sVfil
p5774
I1
sVthen
p5775
I3
sVworkout
p5776
I1
sVsafe
p5777
I1
sVwelterweight
p5778
I1
sVthey
p5779
I1
sValex
p5780
I2
sV05play
p5781
I1
sg1571
I4
sVundermin
p5782
I2
sV[layout-large-horizontal]
p5783
I25
sVvictory
p5784
I1
sVeach
p5785
I2
sVvolcano
p5786
I4
sVwent
p5787
I1
sVside
p5788
I1
sVcarlos
p5789
I1
sVncalbuco
p5790
I2
sVfinancial
p5791
I1
sVknockout
p5792
I1
sVemeralds
p5793
I1
sV[promo]
p5794
I4
sVsaturday
p5795
I3
sV[image_data]
p5796
I2
sV[bg-related__button-overlay]
p5797
I5
sV[byline]
p5798
I1
sVlaif
p5799
I1
sV[cd__headline-text]
p5800
I1
sVarizona
p5801
I1
sV[twitter-follow-button]
p5802
I1
sVgiven
p5803
I1
sVfree
p5804
I3
sVstandard
p5805
I1
sV[story-footer]
p5806
I5
sV[el__video__replay-button-wrapper]
p5807
I1
sVstarts
p5808
I1
sVdays
p5809
I1
sVisn
p5810
I1
sV[summary-credit]
p5811
I1
sVonto
p5812
I1
sVstewart
p5813
I1
sValready
p5814
I2
sVresearcher
p5815
I1
sVcapturadas
p5816
I1
sVcaviahue
p5817
I1
sV[interactive]
p5818
I8
sVhook
p5819
I1
sV[theme-speech-bubble]
p5820
I6
sV[hide-caption]
p5821
I2
sVmaster
p5822
I1
sVtoo
p5823
I2
sVtom
p5824
I1
sVupshot
p5825
I1
sVjohn
p5826
I1
sS'<b>'
p5827
I3
sVa30
p5828
I1
sVmckinsey
p5829
I1
sVluncheon
p5830
I1
sVtook
p5831
I3
sVphotosvillarrica
p5832
I1
sVwestern
p5833
I1
sVprovid
p5834
I1
sV[interactive-leadin]
p5835
I2
sVfinal
p5836
I2
sVproject
p5837
I1
sViron
p5838
I1
sVknights
p5839
I1
sS'<table>'
p5840
I2
sVpalace
p5841
I1
sVnadella
p5842
I2
sVboston
p5843
I1
sVral
p5844
I1
sVrap
p5845
I1
sVseen
p5846
I2
sVaffairs
p5847
I1
sV[upshot-sharetools]
p5848
I1
sVclimate
p5849
I1
sV[skip-to-text-link]
p5850
I77
sVbrandon
p5851
I2
sV[video__end-slate__secondary]
p5852
I1
sV[counter]
p5853
I1
sVquarterback
p5854
I1
sVthough
p5855
I1
sViceland
p5856
I1
sVcopahue
p5857
I1
sVanatomy
p5858
I1
sVletter
p5859
I1
sV[js-media__video]
p5860
I1
sVstawberry
p5861
I1
sVmaria
p5862
I1
sV[cn--idx-0]
p5863
I1
sVdon
p5864
I2
sVmajd
p5865
I1
sg1069
I1
sVprinciple
p5866
I1
sVpope
p5867
I1
sVdegreeassociate
p5868
I1
sVtallahassee
p5869
I1
sVpopp
p5870
I1
sV18recent
p5871
I1
sVinvolv
p5872
I1
sVheadline
p5873
I5
sV[g-label-13]
p5874
I1
sS'<tr>'
p5875
I2
sVsugar
p5876
I1
sVbush
p5877
I2
sVrick
p5878
I1
sV[caption]
p5879
I36
sVlady
p5880
I1
sVmonica
p5881
I2
sV10
p5882
I4
sVde
p5883
I2
sVstop
p5884
I1
sVcoast
p5885
I1
sVston
p5886
I1
sVchristopher
p5887
I1
sS'<td>'
p5888
I2
sVreport
p5889
I6
sVdt
p5890
I2
sVpearson
p5891
I1
sVbay
p5892
I1
sVerupt
p5893
I2
sV[el__storyhighlights]
p5894
I1
sVrival
p5895
I1
sVphotosdense
p5896
I1
sVruins
p5897
I1
sVrunn
p5898
I1
sVethical
p5899
I1
sV[ad--mobile]
p5900
I2
sV[media-100000003612027]
p5901
I1
sV[story-notes]
p5902
I4
sVbrazil
p5903
I2
sVsaid
p5904
I3
sVduff
p5905
I1
sV[el__resize]
p5906
I2
sVfigur
p5907
I1
sVloth
p5908
I1
sVmobilenov
p5909
I1
sVaccord
p5910
I1
sVharvard
p5911
I1
sVwindows
p5912
I1
sV[pipe]
p5913
I6
sVdedication
p5914
I1
sVnews
p5915
I2
sVdebt
p5916
I1
sVgoddess
p5917
I1
sVpsychologists
p5918
I1
sVcountry
p5919
I1
sVunemploy
p5920
I1
sVagainst
p5921
I3
sVreceiver
p5922
I1
sVcom
p5923
I10
sVsoutheastern
p5924
I1
sV[ad-slide--inactive]
p5925
I2
sVflavio
p5926
I1
sVtough
p5927
I1
sV[limit-small]
p5928
I4
sVsullivan
p5929
I2
sV[media-100000003660940]
p5930
I1
sVsao
p5931
I1
sVguid
p5932
I1
sVspeak
p5933
I1
sVconference
p5934
I3
sVbathroom
p5935
I1
sVrangers
p5936
I1
sVthree
p5937
I2
sVbeen
p5938
I2
sg15
I71
sVsubmarine
p5939
I1
sVstadium
p5940
I1
sVcraig
p5941
I1
sVwebsite
p5942
I1
sVlife
p5943
I4
sVeastern
p5944
I2
sV[video]
p5945
I3
sV[thumb]
p5946
I8
sVchile
p5947
I3
sV165
p5948
I1
sVcommerce
p5949
I1
sVeast
p5950
I1
sg4450
I2
sVnear
p5951
I2
sVunsolv
p5952
I1
sV[video__end-slate__replay-text]
p5953
I1
sV[media-100000003598510]
p5954
I1
sVmexico
p5955
I1
sVis
p5956
I17
sVit
p5957
I14
sVaspendailynews
p5958
I1
sVim
p5959
I2
sVcone
p5960
I1
sVallen
p5961
I1
sV[bg-related__heading]
p5962
I5
sVseattle
p5963
I1
sV[el-embed-twitter]
p5964
I2
sVif
p5965
I1
sVfotos
p5966
I1
sVperform
p5967
I1
sVsuggest
p5968
I1
sVmake
p5969
I1
sVswall
p5970
I3
sV[media__caption]
p5971
I3
sVspews
p5972
I1
sVphotosfountains
p5973
I1
sVseveral
p5974
I1
sVeuropean
p5975
I2
sVhani
p5976
I1
sVrain
p5977
I1
sVheadsetjan
p5978
I1
sV1977
p5979
I1
sVcharlie
p5980
I1
sVdriv
p5981
I1
sVocean
p5982
I1
sVgreatest
p5983
I1
sVthe
p5984
I122
sV[el__storyelement__gray]
p5985
I3
sVleft
p5986
I2
sV[dfp-ad]
p5987
I1
sVcapitol
p5988
I1
sVjust
p5989
I4
sVphoto
p5990
I31
sVthumbs
p5991
I1
sVciara
p5992
I1
sVyet
p5993
I1
sVjose
p5994
I1
sVkell
p5995
I1
sVhad
p5996
I1
sVeasy
p5997
I1
sVprison
p5998
I2
sVneuquen
p5999
I1
sVhas
p6000
I6
sVhav
p6001
I1
sV[most-shared]
p6002
I1
sS'<div>'
p6003
I144
sV[lede-container-ads]
p6004
I10
sVboxer
p6005
I2
sVroach
p6006
I1
sVorlando
p6007
I1
sVsteps
p6008
I2
sVsandtown
p6009
I1
sVnight
p6010
I4
sV[js__gallery--fullstandardwidth]
p6011
I2
sVsecurity
p6012
I3
sVsebastian
p6013
I1
sVattorney
p6014
I2
sVright
p6015
I3
sVold
p6016
I1
sVpacquiao
p6017
I4
sVchesto
p6018
I1
sV[kicker]
p6019
I1
sS'<noscript>'
p6020
I3
sVbernardo
p6021
I1
sVadvertise
p6022
I7
sV[media-100000003598187]
p6023
I1
sVfor
p6024
I34
sVfox
p6025
I1
sV[video__end-slate__engage__text]
p6026
I1
sVcnn
p6027
I3
sV[media-action-overlay]
p6028
I2
sV[el__video__replayer-wrapper]
p6029
I1
sVpose
p6030
I1
sVnuevas
p6031
I1
sVemitt
p6032
I1
sVcolima
p6033
I1
sVsuper
p6034
I1
sVemits
p6035
I1
sVchilean
p6036
I1
sVanoma
p6037
I1
sVcoral
p6038
I1
sVkaitlyn
p6039
I1
sg351
I1
sVdinner
p6040
I1
sV[show-desktop]
p6041
I1
sVmahoney
p6042
I1
sV[rg-source]
p6043
I1
sV[interactive-embedded]
p6044
I5
sV[has-lede-adjacency]
p6045
I7
sValmeida
p6046
I2
sVselfie
p6047
I1
sVprofession
p6048
I1
sVwww
p6049
I1
sV[]
p6050
I14
sVahm
p6051
I1
sVcommuters
p6052
I1
sVentrepreneur
p6053
I1
sV[large]
p6054
I2
sV[subhead]
p6055
I1
sV[landscape]
p6056
I2
sVgiv
p6057
I1
sVmalcom
p6058
I4
sVwag
p6059
I1
sVpeople
p6060
I3
sVwatchresidents
p6061
I1
sVfight
p6062
I3
sVeditor
p6063
I1
sVway
p6064
I1
sVwav
p6065
I1
sVwas
p6066
I5
sVoffer
p6067
I1
sS'<h2>'
p6068
I21
sV[bucketwrap]
p6069
I2
sVfailure
p6070
I1
sVhear
p6071
I1
sVsolar
p6072
I2
sVbalancesept
p6073
I1
sV[button]
p6074
I7
sVfach_chile
p6075
I1
sVuntil
p6076
I1
sV[media-100000003598161]
p6077
I1
sVemotional
p6078
I1
sVmoore
p6079
I1
sVtesla
p6080
I1
sS'<figure>'
p6081
I43
sV[eln-updates-all]
p6082
I1
sVelon
p6083
I1
sVplan
p6084
I1
sV[headline]
p6085
I1
sVcommunit
p6086
I1
sVno
p6087
I1
sVstake
p6088
I1
sVne
p6089
I1
sVreality
p6090
I1
sVtim
p6091
I26
sVrole
p6092
I2
sV[story-list]
p6093
I1
sVnw
p6094
I1
sVmodels
p6095
I1
sVoffenseapril
p6096
I1
sVemission
p6097
I1
sVfell
p6098
I1
sVsacks
p6099
I1
sV[nytint-upshot-stream-sharetools]
p6100
I1
sVryder
p6101
I1
sV[js__gallery-showhide]
p6102
I2
sVtime
p6103
I3
sV[invert]
p6104
I1
sVetna
p6105
I1
sV[embedded]
p6106
I23
sV[b]
p6107
I1
sV[media-100000003659423]
p6108
I1
sV[media-100000003660677]
p6109
I1
sVglobal
p6110
I3
sVfocus
p6111
I2
sVlaura
p6112
I1
sVmile
p6113
I1
sVskin
p6114
I1
sVshot
p6115
I1
sV[el__storyhighlights__item]
p6116
I1
sVrow
p6117
I1
sV[media-100000003658526]
p6118
I1
sVkillings
p6119
I1
sVfather
p6120
I1
sg3195
I1
sVcharge
p6121
I1
sVbrown
p6122
I4
sVfederation
p6123
I1
sVbillionaire
p6124
I1
sV[video__end-slate--inactive]
p6125
I1
sVkitten
p6126
I1
sVminute
p6127
I1
sVcool
p6128
I1
sVclouds
p6129
I1
sVlevel
p6130
I1
sVdid
p6131
I1
sVturns
p6132
I1
sVbrother
p6133
I1
sVstandards
p6134
I1
sg1827
I1
sVteam
p6135
I2
sV[zn-body__paragraph]
p6136
I2
sVround
p6137
I3
sV[interactive-headline]
p6138
I8
sVrevolution
p6139
I1
sVsays
p6140
I1
sVsign
p6141
I4
sV[featured]
p6142
I2
sVcolin
p6143
I2
sVjameis
p6144
I1
sVparticipat
p6145
I1
sVsemifinals
p6146
I1
sVappear
p6147
I1
sVcurrent
p6148
I1
sV[media]
p6149
I34
sV[interactive-caption]
p6150
I7
sVinternational
p6151
I5
sVexplosion
p6152
I1
sVinstall
p6153
I1
sVhololens
p6154
I1
sVwater
p6155
I1
sV[ad-slide]
p6156
I2
sVappears
p6157
I5
sVbox
p6158
I5
sV[story-heading-text]
p6159
I8
sVhealthy
p6160
I1
sV[media-100000003657432]
p6161
I1
sVrafael
p6162
I1
sVlove
p6163
I1
sVsaunders
p6164
I1
sVjebby
p6165
I1
sV[media-100000003612025]
p6166
I1
sVcrisis
p6167
I1
sVmarket
p6168
I1
sVvisit
p6169
I1
sVfrance
p6170
I1
sVblack
p6171
I1
sVprev
p6172
I1
sVtoday
p6173
I5
sVclub
p6174
I1
sVenhanc
p6175
I1
sVcar
p6176
I1
sV[media-meta]
p6177
I1
sVcap
p6178
I1
sV[js-video__end-slate__tertiary]
p6179
I1
sV[metadata]
p6180
I1
sVcan
p6181
I6
sV[inline-photo]
p6182
I1
sV[bg-related__more__list]
p6183
I2
sV[g-label-12]
p6184
I1
sVdecember
p6185
I2
sVawesome
p6186
I1
sVwinston
p6187
I1
sS'<h3>'
p6188
I5
sVparachute
p6189
I1
sVchin
p6190
I1
sVcouncil
p6191
I2
sVspe
p6192
I2
sV[nytg-chartmaker-outer]
p6193
I1
sg4636
I14
sV[js-owl-carousel]
p6194
I2
sV[bg-related__description]
p6195
I5
sVshasta
p6196
I1
sVspeaks
p6197
I1
sVmap
p6198
I1
sVmay
p6199
I8
sV[marginalia-anchor-ad]
p6200
I10
sVdate
p6201
I1
sVsuch
p6202
I1
sVmak
p6203
I3
sVsakurajima
p6204
I1
sVrenovation
p6205
I1
sVmayweather
p6206
I4
sVsr
p6207
I1
sVsw
p6208
I1
sV[rg-content]
p6209
I1
sVso
p6210
I1
sVtalk
p6211
I1
sV[photo]
p6212
I29
sV[truncate]
p6213
I1
sVmatchups
p6214
I1
sVinterrogationapril
p6215
I1
sVstill
p6216
I2
sVsatya
p6217
I2
sVgroup
p6218
I4
sVjim
p6219
I1
sV[el__storyhighlights--new]
p6220
I1
sVrolefeb
p6221
I1
sVpolicy
p6222
I2
sVmain
p6223
I78
sVprisoners
p6224
I1
sVtexas
p6225
I2
sVvaras
p6226
I1
sV[advertisement]
p6227
I4
sVerupci
p6228
I2
sV[article-more]
p6229
I13
sVnation
p6230
I1
sVverveer
p6231
I1
sVnot
p6232
I4
sVnow
p6233
I1
sVhall
p6234
I1
sVdown
p6235
I2
sVargentina
p6236
I1
sV[interactive-image-container]
p6237
I3
sVjanuary
p6238
I2
sVdidn
p6239
I1
sV[chart-header]
p6240
I1
sVmariota
p6241
I1
sVsquare
p6242
I1
sV[ad]
p6243
I63
sV[js-el__gallery-caption]
p6244
I2
sVplant
p6245
I2
sVey
p6246
I1
sVyear
p6247
I2
sVkagoshima
p6248
I1
sVcanvas
p6249
I1
sVnapolitano
p6250
I1
sVspace
p6251
I1
sVinfuriat
p6252
I1
sVprotections
p6253
I1
sVnotre
p6254
I1
sVwaheidi
p6255
I1
sVmontoya
p6256
I1
sVshows
p6257
I1
sVquito
p6258
I1
sVcamacol
p6259
I1
sV[media-100000003660676]
p6260
I1
sVmillion
p6261
I1
sVseventh
p6262
I1
sVargu
p6263
I1
sVcalifornia
p6264
I1
sVitapril
p6265
I1
sV[media-100000003658527]
p6266
I1
sVturn
p6267
I1
sVswing
p6268
I1
sVfirst
p6269
I4
sVsuspend
p6270
I1
sV[theme-summary]
p6271
I8
sVone
p6272
I2
sV[enlarge_html]
p6273
I2
sVaccountablemay
p6274
I1
sVvote
p6275
I1
sVopen
p6276
I4
sVgeorge
p6277
I2
sV'em
p6278
I1
sVcity
p6279
I3
sVlittle
p6280
I2
sV[g-bold]
p6281
I1
sg512
I5
sVdraft
p6282
I1
sVcarousel
p6283
I1
sVconvention
p6284
I1
sVwhite
p6285
I3
sVribeiro
p6286
I1
sVnetworksapril
p6287
I1
sVthat
p6288
I4
sVseason
p6289
I1
sV[most-read-widget-item-5]
p6290
I1
sVhillary
p6291
I1
sVshirley
p6292
I1
sVthan
p6293
I3
sV11
p6294
I3
sVprofessionals
p6295
I1
sV13
p6296
I2
sV12
p6297
I4
sV15
p6298
I3
sV14
p6299
I3
sV17
p6300
I3
sV16
p6301
I2
sV19
p6302
I2
sV18
p6303
I3
sg4708
I3
sVventure
p6304
I2
sVwere
p6305
I3
sVwatchtower
p6306
I1
sVrussia
p6307
I1
sVand
p6308
I36
sV[kicker-label]
p6309
I1
sVsan
p6310
I1
sVsam
p6311
I1
sV[js-video__end-slate__replay-text]
p6312
I1
sVrent
p6313
I1
sVtexassports
p6314
I1
sV[enlargebtn]
p6315
I2
sVkevin
p6316
I1
sV[byline-twitter-handles]
p6317
I1
sVphotosa
p6318
I1
sVtechniqu
p6319
I1
sVgreek
p6320
I1
sVideas
p6321
I1
sVforc
p6322
I1
sVhorowitz
p6323
I1
sVperformance
p6324
I1
sVaspen
p6325
I1
sV[summary]
p6326
I1
sVfails
p6327
I1
sVrerout
p6328
I1
sV[has-adjacency]
p6329
I26
sVabus
p6330
I1
sVcomplaints
p6331
I1
sV[rg-hed]
p6332
I1
sVsurprising
p6333
I1
sV[bg-related]
p6334
I5
sVsenior
p6335
I1
sV[js__video--standard]
p6336
I1
sVshow
p6337
I2
sVdannypsych
p6338
I1
sVbright
p6339
I1
sV[video__end-slate]
p6340
I1
sVcorner
p6341
I1
sVmaine
p6342
I1
sVpacific
p6343
I1
sVground
p6344
I1
sV[comments-marginalia]
p6345
I18
sVtitle
p6346
I3
sV[content-ad-wrapper]
p6347
I4
sVjolt
p6348
I2
sVcrime
p6349
I1
sVpresse
p6350
I1
sVtestif
p6351
I1
sVpahoa
p6352
I1
sVget
p6353
I3
sVplanalto
p6354
I1
sVjazz
p6355
I1
sVita
p6356
I1
sVgen
p6357
I2
sVreprints
p6358
I5
sV[metadata__source]
p6359
I1
sVphotospresident
p6360
I1
sV[el__leafmedia--raw-html]
p6361
I2
sVdarlington
p6362
I1
sVisabel
p6363
I1
sVphotosjapan
p6364
I1
sVcollege
p6365
I3
sVjapan
p6366
I2
sVisraeli
p6367
I1
sVphotossmoke
p6368
I1
sVreview
p6369
I1
sg2035
I3
sVbureau
p6370
I1
sVbetween
p6371
I1
sVinfrastructure
p6372
I1
sVaugust
p6373
I2
sVmarvin
p6374
I1
sVdicampo
p6375
I4
sVjr
p6376
I3
sV[byline-sharetools-container]
p6377
I10
sVarticle
p6378
I3
sVfissure
p6379
I1
sVmany
p6380
I2
sVcars
p6381
I1
sVslamet
p6382
I1
sVcelebrat
p6383
I1
sg590
I21
sVsolarcraft
p6384
I1
sVimprov
p6385
I1
sVnearby
p6386
I1
sV[media__image]
p6387
I3
sVbrecht
p6388
I1
sVpor
p6389
I1
sV60
p6390
I1
sV[sharetools-story]
p6391
I10
sV[most-read-widget-item-4]
p6392
I1
sV68
p6393
I1
sVpoll
p6394
I1
sVcustody
p6395
I1
sV[js-media__caption]
p6396
I2
sV[fb-btn]
p6397
I2
sVbiobio
p6398
I1
sVwest
p6399
I3
sVmark
p6400
I1
sVphotosportrait
p6401
I1
sVscot
p6402
I2
sV[story-link]
p6403
I8
sV500
p6404
I1
sV[hideFromView]
p6405
I2
sS'<th>'
p6406
I1
sV[ad-wrapper]
p6407
I1
sVandrew
p6408
I2
sVplskdu5ewt
p6409
I1
sVisaac
p6410
I1
sVformer
p6411
I1
sVthose
p6412
I1
sVcase
p6413
I2
sVisabella
p6414
I1
sV[carousel--full]
p6415
I2
sVthese
p6416
I2
sVmount
p6417
I1
sVstraighten
p6418
I1
sVcast
p6419
I1
sVstoriesdid
p6420
I1
sVeditorial
p6421
I2
sV[el__gallery-caption]
p6422
I2
sVdissident
p6423
I1
sVfami
p6424
I2
sVonlymaster'sadvance
p6425
I1
sVeveryday
p6426
I1
sVmisconductmay
p6427
I1
sVauthor
p6428
I1
sVpay
p6429
I3
sV[rg-container]
p6430
I1
sVbowl
p6431
I1
sVlava
p6432
I1
sVspeech
p6433
I1
sV[g-show-large]
p6434
I1
sVevents
p6435
I1
sVstatus
p6436
I1
sVdirector
p6437
I2
sVweep
p6438
I1
sVcosta
p6439
I1
sVpennsylvania
p6440
I1
sVsevere
p6441
I1
sVexecut
p6442
I3
sVagainapril
p6443
I1
sVactions
p6444
I1
sV[zn-body__footer]
p6445
I2
sV[inline-photo-normal]
p6446
I1
sVblow
p6447
I1
sVdeath
p6448
I2
sVmcdonald
p6449
I1
sVrose
p6450
I1
sg3464
I7
sVjake
p6451
I1
sVaround
p6452
I1
sVread
p6453
I92
sVmov
p6454
I1
sVglobemahoney
p6455
I1
sVworld
p6456
I5
sVrebecca
p6457
I1
sVfairgrounds
p6458
I1
sVaudience
p6459
I1
sVrea_
p6460
I1
sg2108
I6
sVvandenbroucke
p6461
I1
sVcalbuco
p6462
I1
sV[js-ad-slide]
p6463
I2
sV[video__end-slate__replay]
p6464
I1
sV[story-info]
p6465
I1
sVcompetition
p6466
I1
sVfightersapril
p6467
I1
sV[social-buttons]
p6468
I2
sVsen
p6469
I1
sVjoan
p6470
I1
sVgross
p6471
I1
sVstops
p6472
I1
sVsr1
p6473
I1
sV[media__image--responsive]
p6474
I3
sVbusiness
p6475
I2
sV[article-aside]
p6476
I1
sVfrancis
p6477
I1
sVoo
p6478
I1
sVon
p6479
I28
sVcentral
p6480
I2
sVorigins
p6481
I1
sVkeolis
p6482
I1
sVof
p6483
I32
sVviolence
p6484
I1
sVstand
p6485
I1
sVbrenham
p6486
I1
sVbarry
p6487
I1
sVor
p6488
I2
sVroad
p6489
I2
sVop
p6490
I2
sVimage
p6491
I1
sV[featured-comment-marginalia]
p6492
I6
sVburton
p6493
I1
sVjerusalem
p6494
I1
sVyour
p6495
I3
sV20jeb
p6496
I1
sVher
p6497
I4
sVarea
p6498
I1
sVthere
p6499
I3
sV[ad--epic]
p6500
I3
sV[bg-related__body]
p6501
I5
sVstart
p6502
I1
sVlow
p6503
I3
sVbrazilian
p6504
I1
sVujdf6zdq2n
p6505
I1
sV[js__leafmedia--gallery]
p6506
I2
sV[media-100000003660674]
p6507
I1
sVbanksy
p6508
I4
sVcabinet
p6509
I1
sV[bar]
p6510
I1
sVwith
p6511
I22
sVpull
p6512
I1
sV[interactive-credit]
p6513
I3
sVoctober
p6514
I2
sVagree
p6515
I1
sV[img_wrap]
p6516
I2
sVab
p6517
I1
sVag
p6518
I2
sVrica
p6519
I1
sVal
p6520
I1
sVan
p6521
I9
sVap
p6522
I5
sVas
p6523
I6
sVat
p6524
I17
sVfile
p6525
I3
sVwalks
p6526
I1
sVpolitics
p6527
I1
sV[horizontal]
p6528
I2
sVagain
p6529
I3
sVheather
p6530
I1
sVsulaiman
p6531
I1
sVgraduate
p6532
I2
sVdevicesapril
p6533
I1
sg4899
I3
sV[g-text-width]
p6534
I1
sVyou
p6535
I1
sVleblond
p6536
I1
sV[interactive-overlay-text]
p6537
I3
sV[story-meta]
p6538
I5
sVa1
p6539
I1
sVa4
p6540
I1
sVcoverage
p6541
I9
sVtackle
p6542
I1
sVhavana
p6543
I1
sVmcnamee
p6544
I1
sVwife
p6545
I1
sVphotos
p6546
I2
sg3531
I1
sVredux
p6547
I1
sVall
p6548
I4
sVforget
p6549
I1
sVsuburban
p6550
I1
sVlack
p6551
I1
sV22about
p6552
I1
sV[el__headline]
p6553
I1
sVfuego
p6554
I1
sV[selected-comment-marginalia]
p6555
I6
sV[media-100000003659124]
p6556
I1
sVfollow
p6557
I9
sS'<figcaption>'
p6558
I42
sVchildren
p6559
I1
sVgriffin
p6560
I1
sVtv
p6561
I1
sVthursday
p6562
I1
sVto
p6563
I27
sVprogram
p6564
I2
sVsmee
p6565
I1
sVfan
p6566
I1
sVdifference
p6567
I2
sVcondition
p6568
I1
sVpbu
p6569
I1
sVheist
p6570
I1
sV[media__video--thumbnail]
p6571
I1
sVsaudi
p6572
I1
sVharry
p6573
I1
sVmanslaughter
p6574
I1
sVneighborhood
p6575
I1
sVclinch
p6576
I1
sVrate
p6577
I1
sVinvention
p6578
I1
sVlawyer
p6579
I1
sVwhat
p6580
I1
sVleora
p6581
I1
sVsection
p6582
I2
sVbrief
p6583
I1
sVphotosthe
p6584
I2
sVversion
p6585
I5
sVabu
p6586
I1
sV[text]
p6587
I1
sVpublic
p6588
I1
sV[el__leafmedia--twitter]
p6589
I2
sVnovember
p6590
I2
sV[labels]
p6591
I1
sV[accessibility-ad-header]
p6592
I7
sVbardarbunga
p6593
I1
sVsoldier
p6594
I1
sVairport
p6595
I1
sVpick
p6596
I4
sVaction
p6597
I1
sVstruggle
p6598
I1
sVtrainer
p6599
I1
sVvia
p6600
I2
sV[media-100000003660673]
p6601
I1
sVcatwalkmay
p6602
I1
sV[related-links]
p6603
I3
sVselect
p6604
I1
sVeye
p6605
I1
sVmohamm
p6606
I4
sVtackl
p6607
I1
sVtwo
p6608
I5
sg780
I4
sVfuror
p6609
I1
sVinjury
p6610
I2
sVmore
p6611
I6
sVdoor
p6612
I1
sV[comment-prompt-marginalia]
p6613
I6
sVfloyd
p6614
I4
sV[el__gallery-photocount]
p6615
I2
sV[inner]
p6616
I1
sVmaryland
p6617
I1
sVtown
p6618
I2
sVhour
p6619
I1
sVpatroll
p6620
I1
sVdel
p6621
I2
sVlearn
p6622
I2
sV[rg-table]
p6623
I1
sVyemen
p6624
I1
sV[share-print]
p6625
I2
sVproblemmay
p6626
I1
sVprompt
p6627
I2
sVrodriguez
p6628
I1
sVambient
p6629
I1
sVshare
p6630
I10
sVtungurahua
p6631
I1
sV[most-read-widget-item-2]
p6632
I1
sVprotects
p6633
I1
sVhomicide
p6634
I1
sVinformation
p6635
I1
sVneeds
p6636
I1
sVevacuat
p6637
I1
sVdaiichi
p6638
I1
sVexplains
p6639
I1
sVfr
p6640
I1
sV[interactive-image]
p6641
I3
sV[bg-related__link]
p6642
I2
sVjustin
p6643
I2
sVstreets
p6644
I1
sVff
p6645
I1
sS'<li>'
p6646
I17
sg2231
I35
sVcaus
p6647
I1
sV[upshot-share]
p6648
I1
sVfundamental
p6649
I1
sV[sharetools-inline-article-ad]
p6650
I11
sVbegan
p6651
I1
sVmexican
p6652
I1
sVhelp
p6653
I2
sVseptember
p6654
I2
sV[share-email]
p6655
I2
sS'<blockquote>'
p6656
I2
sV[youtube]
p6657
I2
sVtrade
p6658
I1
sVthermal
p6659
I1
sVpaper
p6660
I5
sVthrough
p6661
I2
sVcommittee
p6662
I1
sVsuffer
p6663
I1
sVavenue
p6664
I1
sVits
p6665
I3
sV24
p6666
I3
sV25
p6667
I5
sV26
p6668
I3
sV27
p6669
I3
sV20
p6670
I2
sV21
p6671
I3
sV22
p6672
I2
sVjacoby
p6673
I1
sV28
p6674
I1
sV29
p6675
I3
sVreuters
p6676
I4
sV[post-colon]
p6677
I1
sVbout
p6678
I1
sVmight
p6679
I1
sValter
p6680
I1
sV[wide]
p6681
I7
sVgood
p6682
I1
sVreturn
p6683
I2
sV[medium-rect]
p6684
I1
sVfood
p6685
I1
sVsinabung
p6686
I1
sV[attachment-large]
p6687
I2
sVassociation
p6688
I4
sVmystery
p6689
I1
sVmarcus
p6690
I1
sV[layout-flex-medium]
p6691
I1
sVmbta
p6692
I2
sVmosby
p6693
I3
sVisn't
p6694
I1
sVweek
p6695
I1
sVneil
p6696
I1
sVhouse
p6697
I1
sVenergy
p6698
I2
sV[bg-related__button-text]
p6699
I5
sVhawaii
p6700
I1
sVexpect
p6701
I1
sV[bg-related__button]
p6702
I5
sVoperation
p6703
I1
sVevent
p6704
I2
sVperry
p6705
I1
sVcarandolet
p6706
I1
sVsince
p6707
I2
sVpublish
p6708
I2
sVresearch
p6709
I1
sVhealth
p6710
I1
sVhill
p6711
I1
sg2270
I3
sVprint
p6712
I5
sVitoggle
p6713
I2
sVtimeline
p6714
I1
sVfriday
p6715
I3
sVbulls
p6716
I1
sVbase
p6717
I1
sVpuu
p6718
I1
sVash
p6719
I1
sVbenefits
p6720
I1
sV[js-el__video__replayer-wrapper]
p6721
I1
sVbarbara
p6722
I1
sS'<i>'
p6723
I8
sVamericas
p6724
I1
sV[video__end-slate__top-wrapper]
p6725
I1
sVcaption
p6726
I4
sVamerican
p6727
I7
sVbusinessmen
p6728
I1
sg857
I2
sVnickerson
p6729
I2
sV[chart-footer]
p6730
I1
sVmajor
p6731
I2
sS'<nav>'
p6732
I2
sVdleonhardt
p6733
I1
sVbrave
p6734
I2
sVmiss
p6735
I1
sVstory
p6736
I85
sVguest
p6737
I1
sV[ratio-tall]
p6738
I17
sVinteract
p6739
I1
sVleast
p6740
I1
sV[module-heading]
p6741
I8
sVjeb
p6742
I1
sVpaint
p6743
I1
sVstation
p6744
I1
sVphotosbush
p6745
I1
sVecuador
p6746
I1
sVtfl
p6747
I1
sVbehind
p6748
I1
sV[nobg]
p6749
I1
sV[show-tablet]
p6750
I1
sVpart
p6751
I2
sV[number]
p6752
I1
sV[media-100000003657158]
p6753
I1
sVobama
p6754
I1
sVpyroclastic
p6755
I1
sg3684
I2
sVmarshall
p6756
I1
sVbiobiochile
p6757
I1
sVlisten
p6758
I1
sVindonesia
p6759
I1
sVnoelle
p6760
I1
sV[robots-nocontent]
p6761
I67
sVairstrike
p6762
I1
sVgala
p6763
I1
sVmeltdown
p6764
I1
sVkaro
p6765
I1
sVsell
p6766
I1
sVwilson
p6767
I2
sVofficers
p6768
I3
sValso
p6769
I3
sVliv
p6770
I2
sVbuild
p6771
I1
sVdemczuk
p6772
I2
sVvillager
p6773
I1
sVprovince
p6774
I1
sVplay
p6775
I3
sVelectric
p6776
I1
sVreach
p6777
I7
sVfreddie
p6778
I6
sVmost
p6779
I2
sVcharl
p6780
I1
sV[media__video]
p6781
I1
sVseasons
p6782
I1
sVcharg
p6783
I4
sVmobile
p6784
I1
sVcover
p6785
I1
sVgabl
p6786
I1
sV[i]
p6787
I2
sVqbh
p6788
I1
sVmicrosoft
p6789
I5
sVgold
p6790
I1
sV[toggle-caption]
p6791
I2
sVtenet
p6792
I1
sV[imagewrap]
p6793
I2
sVfinn
p6794
I1
sV[g-label-14]
p6795
I1
sV[el__storyhighlights_wrapper]
p6796
I1
sVbillsdisbelief
p6797
I1
sVnorthern
p6798
I1
sVduncan
p6799
I1
sV[js-video__end-slate__replay]
p6800
I1
sVflights
p6801
I1
sVeruptions
p6802
I1
sg3722
I3
sVhis
p6803
I4
sVcheaper
p6804
I1
sVbatter
p6805
I1
sVreporters
p6806
I2
sVhim
p6807
I3
sV[most-read-widget-item-1]
p6808
I1
sVbelichick
p6809
I2
sV[xxl-ad]
p6810
I10
sVriver
p6811
I1
sVsanaa
p6812
I1
sVtapril
p6813
I1
sVwaters
p6814
I1
sVbars
p6815
I1
sVset
p6816
I1
sVart
p6817
I1
sVser
p6818
I2
sVactivists
p6819
I1
sVcnnbrk
p6820
I1
sVculture
p6821
I2
sV[interactive-source]
p6822
I1
sVare
p6823
I8
sVdemonstrat
p6824
I1
sVclose
p6825
I2
sS'<img>'
p6826
I12
sVprobable
p6827
I1
sVguinea
p6828
I1
sVplease
p6829
I1
sVwon
p6830
I1
sVwide
p6831
I1
sVlatin
p6832
I1
sVspray
p6833
I1
sVfranchise
p6834
I1
sVmarilyn
p6835
I3
sVboth
p6836
I1
sg5150
I2
sVlast
p6837
I5
sVputland
p6838
I1
sVsecrets
p6839
I1
sVannual
p6840
I1
sVforeign
p6841
I1
sVfinds
p6842
I2
sVbaltimore
p6843
I8
sVjeff
p6844
I1
sVbattery
p6845
I1
sVbelt
p6846
I5
sVjoan_vennochi
p6847
I1
sVraise
p6848
I1
sVpolitical
p6849
I1
sV[el__video__expand--standard]
p6850
I1
sVsecret
p6851
I2
sVofficersapril
p6852
I1
sVdur
p6853
I2
sVempty
p6854
I1
sVdame
p6855
I1
sVfirm
p6856
I1
sVpayoct
p6857
I1
sVimag
p6858
I10
sVgat
p6859
I1
sVgas
p6860
I1
sVgap
p6861
I1
sVdemand
p6862
I1
sVphotosthen
p6863
I1
sVsteeplechaser
p6864
I1
sVpierce
p6865
I1
sVlook
p6866
I1
sVbill
p6867
I4
sV[module]
p6868
I1
sVgovernor
p6869
I1
sVinstitute
p6870
I2
sVwhile
p6871
I3
sVris
p6872
I1
sVcollegesome
p6873
I1
sV[media-100000003659425]
p6874
I1
sVshar
p6875
I1
sVbangert
p6876
I1
sV[caption-text]
p6877
I24
sS'<ul>'
p6878
I18
sg5191
I3
sVshak
p6879
I1
sVphotoswestern
p6880
I1
sVconflict
p6881
I2
sVsham
p6882
I1
sV42nd
p6883
I1
sVcomplicat
p6884
I1
sVflows
p6885
I1
sVotherwiseapril
p6886
I1
sVplugs
p6887
I1
sVclimb
p6888
I1
sVrecent
p6889
I1
sVbrookline
p6890
I1
sVanalysis
p6891
I3
sVpicks
p6892
I2
sVexpens
p6893
I1
sVorganization
p6894
I3
sVprevention
p6895
I1
sVambassador
p6896
I1
sVquestions
p6897
I1
sVtablet
p6898
I2
sVcup
p6899
I1
sS'<footer>'
p6900
I8
sVworkers
p6901
I1
sVbarack
p6902
I1
sVsource
p6903
I2
sVhomeland
p6904
I1
sValancar
p6905
I1
sVmarch
p6906
I3
sV[first]
p6907
I2
sVemergency
p6908
I1
sVbig
p6909
I2
sV[comments-button]
p6910
I7
sV[visually-hidden]
p6911
I104
sVgame
p6912
I3
sVbaskets
p6913
I1
sVsignal
p6914
I1
sVcapitals
p6915
I1
sV[js-video__end-slate]
p6916
I1
sV[figure]
p6917
I1
sVcontinue
p6918
I90
sVpatriots
p6919
I2
sV[sharetools-label]
p6920
I10
sV[media-100000003657434]
p6921
I1
sV33rd
p6922
I1
sVback
p6923
I3
sVdelegation
p6924
I1
sVerupts
p6925
I3
sVnewsletter
p6926
I2
sV[bg-related--wide]
p6927
I5
sVchamber
p6928
I1
sVprov
p6929
I1
sVper
p6930
I1
sVeither
p6931
I1
sVbe
p6932
I12
sVrun
p6933
I1
sVeruption
p6934
I1
sVjumps
p6935
I1
sV[byline-author]
p6936
I1
sVflanks
p6937
I1
sVvincente
p6938
I1
sVby
p6939
I12
sV[lede-container]
p6940
I10
sVfaith
p6941
I1
sVpapua
p6942
I1
sVmasterpiec
p6943
I1
sV72
p6944
I1
sVdisclosure
p6945
I1
sVclinton
p6946
I1
sVinto
p6947
I5
sVsteven
p6948
I2
sVcontributor
p6949
I1
sVsports
p6950
I1
sV[bg-related__more]
p6951
I2
sVstatistics
p6952
I1
sVspan
p6953
I1
sVlong
p6954
I1
sVaccountability
p6955
I1
sVoyster
p6956
I1
sVforward
p6957
I1
sVimmigration
p6958
I1
sVgetty
p6959
I10
sVlibrary
p6960
I1
sVline
p6961
I1
sV[nytg-chartmaker]
p6962
I1
sVpaolo
p6963
I1
sVmelanne
p6964
I1
sV[figcaption]
p6965
I8
sVup
p6966
I6
sVus
p6967
I2
sV[multimedia-template]
p6968
I3
sVplanet
p6969
I1
sV[dateline]
p6970
I11
sV[label]
p6971
I1
sS'<span>'
p6972
I74
sVprosecutor
p6973
I1
sVphotosformer
p6974
I1
sVkennebunkport
p6975
I1
sVbath
p6976
I1
sVcolumba
p6977
I1
sV[most-read-widget-item]
p6978
I1
sVadults
p6979
I1
sVchad
p6980
I1
sVflow
p6981
I1
sVquoapril
p6982
I1
sVinfluence
p6983
I1
sV[media-100000003645372]
p6984
I1
sVcotton
p6985
I1
sVparadox
p6986
I1
sVpeace
p6987
I1
sVbacks
p6988
I1
sVnam
p6989
I1
sVnick
p6990
I1
sVnat
p6991
I1
sV[video__end-slate__engage__wrapper]
p6992
I1
sVviral
p6993
I1
sVevan
p6994
I2
sV[enlarge_measure]
p6995
I2
sg3503
I2
sVvice
p6996
I1
sVkilauea
p6997
I1
sV2002
p6998
I2
sV2003
p6999
I1
sV2000
p7000
I1
sV2001
p7001
I1
sV2006
p7002
I1
sV2007
p7003
I1
sV2004
p7004
I2
sV2005
p7005
I2
sV[el__gallery_image-title]
p7006
I2
sVessay
p7007
I1
sVgo
p7008
I3
sVencrust
p7009
I1
sVsimon
p7010
I3
sVleung
p7011
I1
sVsuite
p7012
I1
sV[g-show-xlarge]
p7013
I1
sVfatal
p7014
I1
sVadviserfeb
p7015
I1
sVtorture
p7016
I2
sVoutside
p7017
I2
sVfacebook
p7018
I2
sVdande
p7019
I1
sVnorthwestern
p7020
I1
sVharbor
p7021
I1
sVpositions
p7022
I1
sVjoel
p7023
I1
sVmichael
p7024
I1
sV[theme-classic]
p7025
I11
sVrace
p7026
I1
sVambato
p7027
I1
sVfriendliness
p7028
I1
sVprepar
p7029
I1
sVlogistics
p7030
I1
sVmural
p7031
I1
sVvideo
p7032
I8
sVvictor
p7033
I1
sVpower
p7034
I4
sVchicago
p7035
I1
sVpayday
p7036
I1
sVcapital
p7037
I2
sg2525
I3
sVmauricio
p7038
I1
sVphotosmount
p7039
I1
sVdegree
p7040
I1
sVexchange
p7041
I1
sVgiant
p7042
I1
sV[post-load]
p7043
I2
sVbecom
p7044
I1
sVgreat
p7045
I1
sVonlybachelor
p7046
I1
sVwesley
p7047
I9
sV30
p7048
I7
sV35
p7049
I1
sV34
p7050
I1
sV[video-credit]
p7051
I1
sVopinion
p7052
I3
sVchang
p7053
I1
sVvolc
p7054
I2
sVwin
p7055
I1
sVapp
p7056
I1
sVprivate
p7057
I1
sVmanny
p7058
I3
sVbuildup
p7059
I1
sVcloud
p7060
I1
sVuse
p7061
I2
sVfrom
p7062
I10
sVillegal
p7063
I1
sVnext
p7064
I1
sVsamina
p7065
I1
sV[js-cd__headline-text]
p7066
I1
sV[image]
p7067
I32
sVgivens
p7068
I1
sV[el__storyelement__header]
p7069
I3
sVimpress
p7070
I1
sV[inline-content]
p7071
I2
sV[interactive-graphic]
p7072
I5
sVwomen
p7073
I6
sVaugment
p7074
I1
sg3952
I1
sVthis
p7075
I20
sVride
p7076
I1
sVhousehusky
p7077
I1
sVisland
p7078
I1
sVmeet
p7079
I3
sVdrops
p7080
I1
sV[ad-placeholder]
p7081
I22
sVdo
p7082
I3
sV[story-heading]
p7083
I8
sVhigh
p7084
I3
sV[rg-source-and-credit]
p7085
I1
sVtab
p7086
I1
sV[el__gallery-showhide]
p7087
I2
sV[highlight]
p7088
I1
sVrape
p7089
I1
sVtak
p7090
I3
sV[lede]
p7091
I9
sVbathiche
p7092
I2
sVoverse
p7093
I1
sV[skip-nav]
p7094
I13
sS'<thead>'
p7095
I1
sVcamille
p7096
I1
sVbrian
p7097
I1
sV[bg-related__link--primary]
p7098
I5
sS'<tbody>'
p7099
I1
sVinstead
p7100
I1
sVattend
p7101
I2
sVwatch
p7102
I1
sVfram
p7103
I1
sVact
p7104
I1
sVgardner
p7105
I1
sVtack
p7106
I1
sS'<h4>'
p7107
I7
sVstrawberr
p7108
I1
sV[layout-large-vertical]
p7109
I4
sVguatemala
p7110
I1
sVissu
p7111
I2
sVchief
p7112
I3
sVwrit
p7113
I1
sS'<article>'
p7114
I8
sVsix
p7115
I1
sV[el__storyhighlights__list]
p7116
I1
sVmove
p7117
I1
sVlooks
p7118
I1
sV[limit-xsmall]
p7119
I1
sV[related-coverage-marginalia]
p7120
I8
sVblake
p7121
I1
sVla
p7122
I2
sVbrook
p7123
I1
sVsunday
p7124
I1
sVlabor
p7125
I1
sV[g-show-medium]
p7126
I1
sV2015
p7127
I23
sV2014
p7128
I4
sVholiday
p7129
I1
sV2011
p7130
I2
sV2013
p7131
I2
sV2012
p7132
I4
sV[el__video--standard]
p7133
I1
sV[nytg-chart]
p7134
I1
sVmaterial
p7135
I1
sVintelligentapril
p7136
I1
sVdocu
p7137
I1
sVdar
p7138
I1
sVhands
p7139
I1
sVfront
p7140
I1
sVrepublican
p7141
I1
sVday
p7142
I2
sVfebruary
p7143
I2
sV[img-expandable]
p7144
I2
sVanyth
p7145
I1
sVuniversity
p7146
I2
sVnfl
p7147
I1
sV[story]
p7148
I8
sS'<p>'
p7149
I81
sVmode
p7150
I1
sVbills
p7151
I1
sVglobe
p7152
I7
sV[l-container]
p7153
I1
sV88
p7154
I1
sV[middle-left-ad]
p7155
I10
sV82
p7156
I1
sVour
p7157
I1
sVacireale
p7158
I1
sVspecial
p7159
I2
sVout
p7160
I3
sVlonghorns
p7161
I2
sV[layout-small]
p7162
I5
sVren
p7163
I1
sVevacuation
p7164
I1
sVcause
p7165
I1
sVdefens
p7166
I1
sVpixelsense
p7167
I1
sVblackaswhite1
p7168
I1
sVtercera
p7169
I2
sVyork
p7170
I29
sVshum
p7171
I1
sV1983
p7172
I1
sVlexey
p7173
I3
sVautomatic
p7174
I1
sVroute
p7175
I1
sV[inline-photo-right]
p7176
I1
sVflorida
p7177
I2
sVghraib
p7178
I1
sVdavid
p7179
I3
sVnotebook
p7180
I1
sVdavis
p7181
I1
sV[interactive-summary]
p7182
I2
sVsouth
p7183
I1
sVchristoph
p7184
I1
sVpowerful
p7185
I1
sVbedsrussell
p7186
I1
sVlebond
p7187
I1
sS'<em>'
p7188
I2
sVsharon
p7189
I1
sVfestival
p7190
I1
sVsystem
p7191
I1
sVtheir
p7192
I3
sVpotts
p7193
I1
sS'<aside>'
p7194
I31
sVgeorgetown
p7195
I1
sV[text-ad]
p7196
I9
sV[marginalia]
p7197
I26
sVdetaine
p7198
I1
sVkamchatka
p7199
I1
sVphotograph
p7200
I2
sVben
p7201
I3
sV[owl-filmstrip]
p7202
I2
sVsee
p7203
I3
sVassociat
p7204
I2
sVspurt
p7205
I1
sV[el__gallery--fullstandardwidth]
p7206
I2
sVhave
p7207
I2
sVthayer
p7208
I1
sVneed
p7209
I1
sVphotoslava
p7210
I1
sVsoak
p7211
I1
sVagency
p7212
I3
sVvalcarcel
p7213
I1
sVsh
p7214
I1
sVwhich
p7215
I2
sVagence
p7216
I1
sV02
p7217
I2
sVcollaboration
p7218
I1
sVwho
p7219
I8
sS'<time>'
p7220
I11
sV[byline-dateline]
p7221
I3
sVevacuate
p7222
I1
sVwhy
p7223
I2
sVstatute
p7224
I1
sVfach
p7225
I1
sVfrederick
p7226
I1
sVbreb
p7227
I1
sVface
p7228
I1
sVdetermin
p7229
I1
sVson
p7230
I2
sV[pb-caption]
p7231
I2
sVanyway
p7232
I1
sV[credit-caption]
p7233
I2
sVneurotoxin
p7234
I1
sS'<h5>'
p7235
I1
sVrough
p7236
I1
sVdebate
p7237
I1
sVdecade
p7238
I1
sVstaff
p7239
I2
sVtapp
p7240
I1
sVjan
p7241
I1
sV[el__storyhighlights--normal]
p7242
I1
sVlocal
p7243
I2
sV[hidden]
p7244
I11
sV[el-carousel__wrapper]
p7245
I2
sVcontribut
p7246
I2
sVbeat
p7247
I1
sVjonchesto
p7248
I1
sVfallout
p7249
I1
sVincreas
p7250
I1
sVyears
p7251
I2
sVgray
p7252
I5
sVgraduat
p7253
I1
sg1288
I2
sVteams
p7254
I2
sVshe
p7255
I2
sV[photo-credit]
p7256
I1
sVview
p7257
I7
sVofficial
p7258
I1
sV[interactive-overlay]
p7259
I3
sVnational
p7260
I1
sV[g-show-submedium]
p7261
I1
sVedition
p7262
I4
sVofficials
p7263
I1
sVnuclear
p7264
I1
sV[js-gallery-aspect-ratio-wrapper]
p7265
I2
sVstate
p7266
I4
sV[gplus-btn]
p7267
I2
sVed14
p7268
I1
sV[nocontent]
p7269
I67
sVjanet
p7270
I1
sVdeliver
p7271
I1
sV[credit]
p7272
I43
sVjob
p7273
I1
sVpolice
p7274
I6
sVkershner
p7275
I1
sVjon
p7276
I1
sVapril
p7277
I15
sVwear
p7278
I2
sVco
p7279
I1
sVwall
p7280
I1
sVca
p7281
I1
sVsubscribe
p7282
I5
sV[moses-ad]
p7283
I7
sVfukushima
p7284
I1
sVtable
p7285
I1
sV[body]
p7286
I2
sVattende
p7287
I1
sV[cn-list-hierarchical-xs]
p7288
I1
sVvideos
p7289
I1
sVgillette
p7290
I1
sV[eln-sul]
p7291
I1
sV[rg-subhed]
p7292
I1
sVtreat
p7293
I1
sVgaza
p7294
I2
sV[layout-small-horizontal]
p7295
I2
sV[layout-large]
p7296
I2
sVpuerto
p7297
I1
sVmike
p7298
I1
sVtreasur
p7299
I1
sVeverglad
p7300
I1
sVgasper
p7301
I1
sVscrutiny
p7302
I1
sVontake
p7303
I1
sVgraphics
p7304
I1
sVcriminal
p7305
I1
sVbrasilia
p7306
I1
sVwill
p7307
I2
sVvolin
p7308
I2
sV[cd__headline]
p7309
I1
sVresident
p7310
I1
sVsite
p7311
I1
sVsurface
p7312
I2
sVbystanders
p7313
I1
sVpartner
p7314
I2
sVvolcanism
p7315
I1
sVbrekken
p7316
I1
sVplum
p7317
I1
sVtapper
p7318
I1
sVjenna
p7319
I1
sVpkgs
p7320
I1
sVandroid
p7321
I1
sVgett
p7322
I2
sVpowell
p7323
I1
sVhttp
p7324
I2
sV[middle-right-ad]
p7325
I19
sVdiploma
p7326
I1
sVdai
p7327
I1
sV[twitter-btn]
p7328
I2
sVdestruction
p7329
I1
sVrift
p7330
I1
sVoff
p7331
I7
sVcenter
p7332
I2
sV[twitter-tweet]
p7333
I2
sg2757
I4
sV[js-owl-filmstrip]
p7334
I2
sVwell
p7335
I1
sVbohn
p7336
I1
sVsets
p7337
I1
sVlatest
p7338
I1
sVnewest
p7339
I1
sVtavurvur
p7340
I1
sVgeller
p7341
I2
sVdistant
p7342
I1
sVrooms
p7343
I1
sVglobechadfinn
p7344
I1
sVsmith
p7345
I1
sVarrest
p7346
I2
sVbook
p7347
I2
sV[sharetools]
p7348
I11
sVcrack
p7349
I1
sVmatch
p7350
I1
sVinterrogation
p7351
I2
sV[bg-related__text]
p7352
I5
sVburden
p7353
I1
sVpress
p7354
I3
sV[owl-carousel]
p7355
I2
sVlincoln
p7356
I1
sVpacheco
p7357
I1
sVlike
p7358
I1
sVlost
p7359
I1
sVmiami
p7360
I1
sVgangsters
p7361
I1
sVbecome
p7362
I1
sVworks
p7363
I1
sVpage
p7364
I15
sVbecause
p7365
I2
sVtwitter
p7366
I9
sVconservat
p7367
I1
sVhome
p7368
I4
sVpeter
p7369
I4
sVthiev
p7370
I1
sV[zebra]
p7371
I1
sVlead
p7372
I1
sVoutgo
p7373
I1
sVleav
p7374
I1
sV[el__storyelement__title]
p7375
I3
sg2790
I6
sVslight
p7376
I1
sVcamile
p7377
I1
sVslut
p7378
I1
sVpressure
p7379
I1
sVhost
p7380
I1
sV[story-content]
p7381
I5
sVpanel
p7382
I1
sV[most-read-widget-item-3]
p7383
I1
sVabout
p7384
I6
sVescanilla
p7385
I1
sVcolumn
p7386
I1
sVactualizado
p7387
I1
sV[right]
p7388
I1
sVrevisa
p7389
I1
sVmassachusetts
p7390
I1
sVvennochi
p7391
I1
sVvibywiucjs
p7392
I1
sVwashington
p7393
I3
sS'<strong>'
p7394
I2
sVassess
p7395
I1
sVguard
p7396
I1
sVprofessionaldoctoral13
p7397
I1
sVfemale
p7398
I1
sVmarketapril
p7399
I1
sV1986
p7400
I1
sVadditional
p7401
I1
sVpictur
p7402
I1
sVmuseum
p7403
I1
sV[el__leafmedia--storyhighlights]
p7404
I1
sVsmil
p7405
I1
sV[g-show-smallplus]
p7406
I1
sVnorth
p7407
I3
sVfunds
p7408
I1
sVbut
p7409
I5
sVbum
p7410
I1
sVhighest
p7411
I1
sVhe
p7412
I4
sg4209
I2
sVtroubl
p7413
I1
sVbelow
p7414
I13
sV[el__storyelements--expand]
p7415
I1
sVrealmjan
p7416
I1
sVpic
p7417
I2
sVphotosjeb
p7418
I1
sVeducation
p7419
I3
sVeric
p7420
I1
sV47
p7421
I1
sVshoulders
p7422
I1
sV40
p7423
I1
sV41
p7424
I1
sVother
p7425
I2
sVmass
p7426
I2
sVdiplomah
p7427
I1
sVconclusion
p7428
I1
sVstat
p7429
I1
sVfrancisco
p7430
I1
sVstar
p7431
I1
sVmargaret
p7432
I1
sV[most-read-container]
p7433
I1
sVbaker
p7434
I1
sVwatchedresidents
p7435
I1
ssg31
I220
ss.