(dp0
S'headline'
p1
(dp2
S'Token_counts'
p3
(dp4
S'<a>'
p5
I1
sVapple
p6
I1
sVbattery
p7
I1
sVwww
p8
I1
sS'<h1>'
p9
I1
sV[permalink]
p10
I1
sV04
p11
I1
sVapril
p12
I1
sVplease
p13
I1
sV,
p14
I2
sV.
p15
I1
sS'<header>'
p16
I1
sV2015
p17
I1
sVoutliers
p18
I1
sVmore
p19
I1
sVmarco
p20
I1
sVhttp
p21
I1
sS'<h2>'
p22
I1
sVwatch
p23
I1
sS'<time>'
p24
I1
sV[printonly]
p25
I1
sVorg
p26
I1
sV17
p27
I1
sS'<p>'
p28
I1
sS'<span>'
p29
I1
sV[noprint]
p30
I1
ssS'Doc_count'
p31
I2
ssS'article'
p32
(dp33
S'Token_counts'
p34
(dp35
V
p36
I1
sVjirgas
p37
I1
sVworkaholism
p38
I1
sVfoul
p39
I1
sVnarcotic
p40
I1
sVfour
p41
I32
sVwoods
p42
I4
sVpayoff
p43
I1
sVauthorit
p44
I4
sVelectricity
p45
I6
sVauthoriz
p46
I1
sVimamate
p47
I1
sVdigit
p48
I2
sVoceans
p49
I1
sVwjz
p50
I2
sVdisturb
p51
I2
sVbasics
p52
I1
sVprize
p53
I1
sVwednesday
p54
I6
sVreliable
p55
I1
sVswitchblade
p56
I1
sVpulse
p57
I1
sVsecond
p58
I23
sVsooth
p59
I1
sVruthless
p60
I1
sVfossil
p61
I2
sVdatabank
p62
I1
sVincreasing
p63
I4
sVherm
p64
I1
sVreporter
p65
I3
sVavery
p66
I1
sVhere
p67
I20
sVherd
p68
I16
sVreported
p69
I2
sVchina
p70
I3
sVsoutherners
p71
I2
sVpersonifi
p72
I1
sVplumlee
p73
I1
sVk
p74
I13
sVreports
p75
I5
sVcontroversy
p76
I1
sVfumbl
p77
I1
sVmilitary
p78
I12
sVi'm
p79
I3
sVcriticism
p80
I3
sVgolden
p81
I1
sVhamas
p82
I7
sVpsychological
p83
I10
sVsett
p84
I1
sVunit
p85
I11
sVspoke
p86
I5
sVmusic
p87
I5
sVtherefore
p88
I2
sVuntil
p89
I11
sVsuccessful
p90
I4
sVbrings
p91
I1
sVrelat
p92
I5
sVhurt
p93
I1
sV98
p94
I1
sVexce
p95
I1
sV90
p96
I3
sVhole
p97
I5
sVhold
p98
I8
sV95
p99
I1
sVantagoniz
p100
I1
sVpursue
p101
I2
sVexhale
p102
I1
sVexample
p103
I7
sVhousehold
p104
I1
sVcaution
p105
I1
sVwant
p106
I60
sVorganizer
p107
I1
sVgargantuan
p108
I1
sVabsolute
p109
I2
sVprovincial
p110
I2
sVwinkenwerder
p111
I1
sVtravel
p112
I2
sVhom
p113
I6
sVfeature
p114
I2
sVclassifi
p115
I1
sVrevisit
p116
I1
sVhow
p117
I55
sVhot
p118
I18
sVhop
p119
I2
sVsignificance
p120
I1
sVperspect
p121
I5
sVcredential
p122
I1
sVregional
p123
I1
sVstoller
p124
I1
sVinvitation
p125
I1
sVmodest
p126
I2
sVreshap
p127
I1
sVvance
p128
I1
sVeffective
p129
I3
sVwins
p130
I1
sVyouths
p131
I1
sVrevolt
p132
I1
sVheadquarters
p133
I4
sVdemocratic
p134
I3
sVhellbent
p135
I1
sVwind
p136
I4
sVsenators
p137
I3
sVvary
p138
I1
sVhandcuff
p139
I2
sVvari
p140
I2
sVfir
p141
I3
sVfit
p142
I3
sVrankings
p143
I3
sVfix
p144
I3
sVstevens
p145
I3
sVpritchard
p146
I1
sVadmirable
p147
I1
sVeasier
p148
I2
sVfil
p149
I3
sVglorify
p150
I1
sVproce
p151
I1
sVeffects
p152
I4
sVschools
p153
I13
sVyourself
p154
I2
sVsilver
p155
I1
sVskills
p156
I7
sVvolcano
p157
I5
sVfinancial
p158
I2
sVblinder
p159
I1
sVspider
p160
I1
sVborne
p161
I1
sVmayah
p162
I1
sVre
p163
I34
sVencourage
p164
I1
sVmillions
p165
I3
sVcomplicat
p166
I4
sV[story-footer]
p167
I4
sValert
p168
I1
sVenormous
p169
I2
sVmcqueen
p170
I1
sVsilicon
p171
I1
sV1970s
p172
I2
sVmedicaid
p173
I2
sVconfus
p174
I1
sVmingl
p175
I1
sVwash
p176
I1
sVwasn
p177
I5
sV177
p178
I1
sVpulsar
p179
I1
sV172
p180
I1
sV170
p181
I1
sVservice
p182
I55
sVunderstat
p183
I1
sVmaster
p184
I2
sVfocal
p185
I1
sVmiller
p186
I2
sVremote
p187
I1
sVlisten
p188
I1
sVmckinsey
p189
I4
sVwisdom
p190
I5
sVsurer
p191
I1
sVnations
p192
I2
sVshower
p193
I1
sVwillingness
p194
I1
sVboston
p195
I16
sVunprecedent
p196
I1
sVdozen
p197
I3
sVaffairs
p198
I6
sVconcrete
p199
I2
sVresponsible
p200
I2
sVdoors
p201
I2
sVlayoffs
p202
I1
sVobject
p203
I1
sVdebonair
p204
I1
sVmetrics
p205
I1
sVtoil
p206
I1
sVgallagher
p207
I1
sVletter
p208
I2
sVmacbook
p209
I7
sVthriller
p210
I1
sVsinger
p211
I1
sVchemistry
p212
I1
sVantitrust
p213
I1
sVmajd
p214
I1
sVprofessor
p215
I6
sVprisons
p216
I1
sVtech
p217
I5
sVscream
p218
I2
sVcame
p219
I12
sVincorporate
p220
I2
sVbomb
p221
I2
sVreactor
p222
I1
sVpric
p223
I7
sVpriz
p224
I1
sVbomp
p225
I1
sVparticipate
p226
I2
sVheadline
p227
I1
sVbust
p228
I1
sVbush
p229
I25
sVrick
p230
I2
sVmend
p231
I1
sVrice
p232
I2
sVbadam
p233
I1
sVserv
p234
I1
sVpsychiatric
p235
I1
sVnew
p236
I53
sVrelish
p237
I1
sVrelease
p238
I5
sVatomic
p239
I1
sVfait
p240
I1
sVdisaster
p241
I2
sVfair
p242
I1
sVresult
p243
I6
sVfail
p244
I14
sVbest
p245
I18
sVoceanic
p246
I1
sVambitions
p247
I1
sVlots
p248
I1
sVspecializ
p249
I1
sVfigur
p250
I2
sVscore
p251
I2
sVimprimatur
p252
I1
sVpreserve
p253
I10
sVhorological
p254
I1
sVmen
p255
I7
sVnationwide
p256
I2
sVextens
p257
I3
sVextent
p258
I3
sVcarbon
p259
I3
sVadvertis
p260
I2
sVdebt
p261
I5
sVaccident
p262
I2
sVdisdain
p263
I1
sVcountry
p264
I12
sVunemploy
p265
I2
sVmisguid
p266
I1
sVconcentrat
p267
I2
sVlogic
p268
I3
sVargue
p269
I1
sVschmooze
p270
I1
sVand
p271
I488
sVassur
p272
I1
sVirresponsible
p273
I1
sVpregnancy
p274
I1
sV250
p275
I1
sVassum
p276
I2
sV255
p277
I1
sVpenalize
p278
I1
sVinvestors
p279
I2
sVrangers
p280
I26
sVunion
p281
I18
sVfri
p282
I1
sV.
p283
I798
sVsubsidy
p284
I1
sVmuch
p285
I29
sV[inline-video-caption]
p286
I1
sVgraphical
p287
I1
sVspit
p288
I1
sVeastern
p289
I3
sVworker
p290
I3
sVwish
p291
I4
sVkids
p292
I5
sVchile
p293
I7
sVdoubts
p294
I1
sVcommerce
p295
I1
sVpresidency
p296
I1
sVemploy
p297
I2
sVcalcium
p298
I1
sVmarriag
p299
I1
sVcharacterize
p300
I1
sVelicit
p301
I1
sVhygienist
p302
I1
sVsongwrit
p303
I4
sVmemorial
p304
I1
sVthings
p305
I10
sVrebellion
p306
I1
sVradioecology
p307
I1
sVharmony
p308
I1
sVbid
p309
I1
sVeuropean
p310
I1
sVownership
p311
I1
sVtuna
p312
I1
sVfeatherweight
p313
I1
sVtune
p314
I1
sVslotnik
p315
I1
sVacademic
p316
I2
sVcorporate
p317
I5
sVopinions
p318
I1
sVsleeps
p319
I1
sVwaterboard
p320
I1
sVprevious
p321
I4
sVbroncos
p322
I1
sVeasi
p323
I3
sVhad
p324
I82
sVeasy
p325
I4
sVendur
p326
I1
sVeast
p327
I2
sVhat
p328
I1
sVhav
p329
I6
sVelders
p330
I1
sVpossible
p331
I6
sVshadow
p332
I1
sVreplace
p333
I1
sVwelterweightness
p334
I1
sVdesire
p335
I1
sVmeasur
p336
I3
sVoncor
p337
I2
sVremind
p338
I2
sVsteps
p339
I3
sVgroundwater
p340
I1
sVstepp
p341
I1
sVbonkers
p342
I1
sVattorney
p343
I7
sVright
p344
I24
sVold
p345
I27
sVcrowd
p346
I2
sVpeople
p347
I55
sVlandfall
p348
I1
sVconsultants
p349
I6
sVaspen
p350
I13
sVfor
p351
I234
sVcontinue
p352
I7
sVperiphery
p353
I1
sVdental
p354
I2
sVcolleg
p355
I8
sVmemorable
p356
I1
sVdollars
p357
I4
sVcitizens
p358
I1
sVsealver
p359
I1
sVo
p360
I16
sVvonage
p361
I1
sVpalestinians
p362
I1
sVmatch
p363
I3
sVson
p364
I5
sVadminister
p365
I3
sVsox
p366
I3
sVunambiguous
p367
I2
sVmalcom
p368
I1
sValtitude
p369
I1
sVhappi
p370
I1
sVjoseph
p371
I1
sVbloomington
p372
I1
sVhalls
p373
I1
sVheadach
p374
I1
sVoffer
p375
I8
sVarrays
p376
I1
sVinside
p377
I14
sVcomplications
p378
I1
sVpanels
p379
I5
sVpassenger
p380
I2
sVjuvenile
p381
I1
sVadopt
p382
I2
sVliberal
p383
I2
sVexist
p384
I3
sVelon
p385
I4
sVeventual
p386
I5
sVfloor
p387
I3
sVcrowns
p388
I3
sVrepublic
p389
I2
sVjenkins
p390
I2
sVdevelopers
p391
I2
sVroll
p392
I2
sVintend
p393
I1
sVmodels
p394
I5
sVdevot
p395
I1
sVmuslims
p396
I1
sVyellowstone
p397
I1
sVeulitt
p398
I1
sVsociet
p399
I1
sVglass
p400
I3
sVtime
p401
I63
sVpush
p402
I10
sVcincinnati
p403
I1
sVchain
p404
I2
sVwhoever
p405
I1
sVdecid
p406
I4
sVcrater
p407
I1
sVprepaid
p408
I1
sVspate
p409
I1
sVchoice
p410
I3
sVwharton
p411
I2
sVembark
p412
I2
sVstays
p413
I1
sVmultistory
p414
I1
sVminute
p415
I1
sVleave
p416
I12
sVsettle
p417
I1
sVteam
p418
I12
sVloads
p419
I1
sVprevent
p420
I3
sVrents
p421
I1
sVfindings
p422
I7
sVsign
p423
I12
sVheavyweight
p424
I1
sVshirts
p425
I1
sVrelocat
p426
I1
sVheadset
p427
I2
sVjeopardy
p428
I1
sVabdullah
p429
I1
sVcurrent
p430
I13
sVboost
p431
I1
sVjury
p432
I1
sS'<sup>'
p433
I6
sVgladys
p434
I1
sVaddress
p435
I4
sValone
p436
I3
sValong
p437
I5
sVenroll
p438
I6
sVbrilliant
p439
I1
sVfledgl
p440
I1
sVabsenteeism
p441
I1
sVtasks
p442
I1
sVlove
p443
I6
sVsanta
p444
I1
sVprefer
p445
I1
sVhousemat
p446
I1
sVfake
p447
I4
sVfuqua
p448
I2
sVgrimmest
p449
I1
sVundergone
p450
I1
sVpredictions
p451
I1
sVgroundbreak
p452
I2
sVfilms
p453
I2
sVprosecutor
p454
I13
sVapparent
p455
I2
sVenhanc
p456
I3
sVignorant
p457
I1
sVbehalf
p458
I1
sVfourths
p459
I1
sVpretend
p460
I1
sVstrain
p461
I2
sVoffense
p462
I1
sVwinter
p463
I4
sVvancouver
p464
I1
sVsnaps
p465
I2
sVexplorer
p466
I1
sVspot
p467
I1
sVapplications
p468
I2
sVcardiac
p469
I1
sVsuch
p470
I19
sVdata
p471
I6
sVstress
p472
I4
sVnatural
p473
I15
sVoculus
p474
I1
sVapplicant
p475
I1
sVsu
p476
I1
sVso
p477
I51
sVsb
p478
I1
sVse
p479
I4
sVdevonshire
p480
I1
sVunacceptable
p481
I1
sVyears
p482
I44
sVcourse
p483
I10
sVexperiments
p484
I1
sVunfavorable
p485
I1
sVexplosiv
p486
I24
sVcelebrate
p487
I1
sVbipartisan
p488
I1
sVcivilian
p489
I1
sVnation
p490
I4
sVrecords
p491
I3
sVakron
p492
I1
sVrunners
p493
I1
sVfreya
p494
I2
sVdidn
p495
I18
sVquarter
p496
I2
sVquartet
p497
I1
sVsquare
p498
I2
sVsponsor
p499
I1
sVcanvas
p500
I1
sVinvestigation
p501
I9
sVgunnison
p502
I8
sVformula
p503
I1
sVfacedown
p504
I1
sVmillion
p505
I7
sVseventh
p506
I2
sVpossibility
p507
I1
sVquite
p508
I4
sVrecordings
p509
I2
sVbenioff
p510
I1
sVreisner
p511
I1
sVwrong
p512
I4
sVmassive
p513
I1
sVneglect
p514
I1
sVspoken
p515
I1
sVone
p516
I98
sVspanish
p517
I2
sVvote
p518
I5
sVons
p519
I1
sVopen
p520
I14
sVlanguish
p521
I3
sVbrochur
p522
I1
sVcity
p523
I9
sV2
p524
I20
sVdraft
p525
I9
sVwilliams
p526
I4
sVvoyce
p527
I1
sVridiculous
p528
I1
sVprocter
p529
I3
sVfuture
p530
I8
sVsophia
p531
I1
sVillness
p532
I1
sVsan
p533
I4
sVsal
p534
I1
sVafternoons
p535
I1
sValleg
p536
I1
sVsay
p537
I34
sVbalkaniz
p538
I1
sVallen
p539
I8
sVsaw
p540
I14
sVsat
p541
I6
sVaside
p542
I1
sVzon
p543
I3
sVmasse
p544
I1
sVgoodman
p545
I1
sVtake
p546
I25
sVdestroy
p547
I11
sVmayer
p548
I1
sVnoth
p549
I6
sVprinter
p550
I1
sVthirt
p551
I1
sVopposite
p552
I1
sVknew
p553
I7
sV[has-adjacency]
p554
I1
sVabus
p555
I3
sVremarks
p556
I1
sVenamel
p557
I1
sVaverage
p558
I10
sVphil
p559
I1
sVsale
p560
I1
sVfederal
p561
I17
sVmessier
p562
I1
sVlink
p563
I2
sVlaws
p564
I4
sVmurmurs
p565
I1
sVinconsistent
p566
I1
sVaggressive
p567
I2
sVslot
p568
I1
sVslow
p569
I8
sVinterrogations
p570
I5
sVoberndorf
p571
I1
sVtears
p572
I2
sVcongressional
p573
I3
sVcarolina
p574
I1
sVassistant
p575
I1
sVrecruiters
p576
I1
sVrequir
p577
I6
sVartist
p578
I5
sVborrow
p579
I1
sVworkweek
p580
I1
sVroger
p581
I2
sVwhere
p582
I41
sVsnapback
p583
I1
sVvision
p584
I3
sVespn
p585
I2
sVisabel
p586
I1
sVdeadlin
p587
I1
sVsurgery
p588
I2
sVdibella
p589
I3
sV830
p590
I1
sVkilometer
p591
I1
sVjobs
p592
I12
sVmature
p593
I1
sVscreen
p594
I7
sVsupermarket
p595
I1
sVawards
p596
I1
sVshortag
p597
I1
sVundermine
p598
I1
sVoust
p599
I1
sVresidence
p600
I1
sVcelebrat
p601
I1
sVpersonal
p602
I4
sVs
p603
I274
sVworkplace
p604
I3
sVanti
p605
I1
sVpowerpack
p606
I1
sVconsiders
p607
I1
sVteddy
p608
I1
sVstretch
p609
I5
sVtoothpaste
p610
I1
sVvacation
p611
I2
sVbreath
p612
I1
sVwants
p613
I5
sV38mm
p614
I1
sVthousand
p615
I5
sVmechanicals
p616
I1
sVphotos
p617
I2
sVobserve
p618
I1
sVformer
p619
I17
sVisabella
p620
I1
sVconsultant
p621
I3
sVtribal
p622
I6
sVpolls
p623
I1
sVnewspaper
p624
I2
sVsituation
p625
I3
sVblar
p626
I1
sVpurse
p627
I1
sVconvinc
p628
I1
sVbros
p629
I1
sVfami
p630
I15
sVtechnology
p631
I17
sVivy
p632
I1
sVshutt
p633
I1
sVsurveillance
p634
I1
sVvandalism
p635
I1
sVbreakdown
p636
I2
sVassigns
p637
I1
sVoceanographic
p638
I1
sVdefy
p639
I1
sVcheers
p640
I1
sVrenewable
p641
I4
sVpsychiatrists
p642
I2
sVisotop
p643
I1
sVcosts
p644
I6
sVtrains
p645
I2
sVsummer
p646
I4
sV215
p647
I1
sV210
p648
I1
sVpakistan
p649
I4
sVrest
p650
I3
sVfateful
p651
I1
sVstopwatch
p652
I2
sVsilverberg
p653
I2
sVaround
p654
I32
sVsums
p655
I2
sVpos
p656
I2
sVretract
p657
I1
sVtraffic
p658
I6
sVinsist
p659
I3
sVacronyms
p660
I1
sVworld
p661
I23
sVdare
p662
I1
sVclan
p663
I3
sVintel
p664
I2
sVmanag
p665
I9
sVsuperintendent
p666
I1
sVmagma
p667
I1
sVthinks
p668
I2
sVstrewn
p669
I1
sVnoon
p670
I3
sVdefinit
p671
I1
sVjuggernaut
p672
I1
sV911
p673
I3
sVkurkjian
p674
I1
sVcontingent
p675
I1
sVpower
p676
I26
sVleadership
p677
I2
sVstone
p678
I2
sVpackage
p679
I1
sVindustry
p680
I13
sVfavorite
p681
I3
sVstoni
p682
I1
sVacr
p683
I1
sVact
p684
I9
sVmean
p685
I5
sVstony
p686
I1
sVheadsets
p687
I1
sVimage
p688
I5
sVwads
p689
I1
sVher
p690
I32
sVhey
p691
I2
sVhea
p692
I3
sVhec
p693
I3
sVhem
p694
I1
sVbubble
p695
I1
sVcomplete
p696
I7
sVconclud
p697
I3
sVdefrost
p698
I8
sVamplifi
p699
I1
sVcategor
p700
I4
sVpull
p701
I5
sVrush
p702
I2
sVoctober
p703
I2
sVagree
p704
I8
sVgone
p705
I4
sVad
p706
I1
sVcreat
p707
I11
sVah
p708
I1
sVam
p709
I2
sVal
p710
I9
sVan
p711
I137
sVbutterfl
p712
I2
sVas
p713
I155
sVat
p714
I163
sVwalks
p715
I5
sVcreak
p716
I1
sVvocational
p717
I3
sVgraduate
p718
I12
sVtight
p719
I1
sVsummit
p720
I1
sVreimagin
p721
I1
sVintention
p722
I1
sVcongress
p723
I3
sVa4
p724
I1
sVoriginat
p725
I1
sVtricks
p726
I1
sVlapaglia
p727
I1
sVmass
p728
I5
sVnelson
p729
I2
sVbehavioral
p730
I5
sVoriginal
p731
I2
sVextricat
p732
I1
sVessay
p733
I2
sVconsider
p734
I8
sVdebris
p735
I2
sVfairness
p736
I1
sVty
p737
I2
sVtv
p738
I2
sVtr
p739
I10
sVchampions
p740
I4
sVto
p741
I548
sVth
p742
I14
sVti
p743
I2
sVsmile
p744
I1
sVintroduc
p745
I5
sVdetention
p746
I1
sVmanageable
p747
I1
sVcondition
p748
I4
sVsans
p749
I1
sVlashkars
p750
I1
sVheist
p751
I1
sVcolleagu
p752
I10
sVlarge
p753
I23
sVadjust
p754
I1
sVharry
p755
I1
sVsmall
p756
I12
sVexhilarat
p757
I1
sVpast
p758
I13
sVdisplays
p759
I1
sVpass
p760
I6
sVrichard
p761
I1
sVdisruptions
p762
I1
sVsection
p763
I1
sVcenters
p764
I1
sV[caption]
p765
I1
sVscientists
p766
I7
sVcorker
p767
I3
sVconundrums
p768
I1
sVcontrast
p769
I3
sVhasn
p770
I2
sVfull
p771
I12
sVinstallations
p772
I2
sVempower
p773
I3
sVhours
p774
I18
sVsmartest
p775
I1
sVcivilians
p776
I1
sVnovember
p777
I3
sVintroductory
p778
I1
sVcompliance
p779
I1
sVexperience
p780
I4
sVprior
p781
I2
sVatelier
p782
I1
sVpick
p783
I16
sVaction
p784
I5
sVskepticism
p785
I1
sVreactors
p786
I1
sVdepart
p787
I9
sVselect
p788
I7
sVdk001
p789
I1
sVmort
p790
I1
sVmorn
p791
I3
sVautomate
p792
I1
sV6
p793
I10
sVrhea
p794
I1
sVmore
p795
I84
sVearthshak
p796
I1
sVdoor
p797
I4
sVcompany
p798
I36
sVpossession
p799
I1
sVdoom
p800
I1
sVbedford
p801
I2
sVzaydi
p802
I1
sVscience
p803
I6
sVmall
p804
I1
sVlearn
p805
I11
sVmale
p806
I2
sVprompt
p807
I1
sVscan
p808
I2
sVrodriguez
p809
I4
sVchalleng
p810
I2
sVsuggestions
p811
I1
sVaccept
p812
I3
sVstater
p813
I1
sVsense
p814
I4
sVgallon
p815
I1
sVdress
p816
I1
sVinformation
p817
I7
sVfruition
p818
I1
sVearnings
p819
I1
sVplant
p820
I1
sVplans
p821
I4
sVentrepreneurship
p822
I1
sVsoundtrack
p823
I1
sVplane
p824
I1
sVwaver
p825
I1
sVimpassion
p826
I1
sVethics
p827
I2
sVresemble
p828
I1
sVregister
p829
I1
sVfundamental
p830
I3
sVpans
p831
I1
sVnighter
p832
I1
sVfaricy
p833
I2
sVtrade
p834
I3
sVstylus
p835
I2
sVattitude
p836
I1
sVpaper
p837
I5
sVscott
p838
I2
sVsigns
p839
I2
sVinstaller
p840
I1
sVturbine
p841
I1
sVits
p842
I66
sVreschedul
p843
I1
sVwry
p844
I1
sVgadget
p845
I4
sValways
p846
I12
sVachiev
p847
I1
sVfound
p848
I20
sVshocking
p849
I1
sVinvestigators
p850
I1
sVstatus
p851
I1
sVengland
p852
I1
sVreduce
p853
I2
sVclockwork
p854
I1
sVrasha
p855
I1
sVpsychology
p856
I3
sVviisble
p857
I1
sVresearch
p858
I26
sVrace
p859
I2
sVoccurr
p860
I4
sVoccurs
p861
I1
sVbelief
p862
I1
sVatms
p863
I1
sVbeliev
p864
I3
sVimagine
p865
I4
sVmarri
p866
I3
sVdirector
p867
I6
sVowners
p868
I1
sVstruggl
p869
I3
sVw
p870
I11
sVcontingency
p871
I1
sVmajor
p872
I8
sVnumber
p873
I8
sVdiffer
p874
I1
sVheads
p875
I2
sVguest
p876
I1
sVjeb
p877
I2
sVflimsy
p878
I1
sVhotb
p879
I1
sVcalculations
p880
I1
sVrelationship
p881
I4
sVzeus
p882
I1
sVimmediate
p883
I4
sVdemonstrations
p884
I1
sVconsult
p885
I7
sVtheater
p886
I1
sVobama
p887
I10
sViranian
p888
I2
sVvocal
p889
I1
sVpennsylvania
p890
I2
sVcomput
p891
I2
sVfights
p892
I2
sVpackag
p893
I1
sVgraffiti
p894
I1
sVcleverness
p895
I1
sVsell
p896
I3
sVself
p897
I2
sVreliance
p898
I2
sValso
p899
I58
sVinternal
p900
I6
sVplay
p901
I19
sVplan
p902
I6
sVplac
p903
I8
sVtpg
p904
I1
sVunderstands
p905
I1
sVcovet
p906
I1
sVcover
p907
I6
sVartistic
p908
I1
sVfashions
p909
I1
sVmicrosoft
p910
I39
sVtaxi
p911
I1
sVgolf
p912
I1
sVcruiser
p913
I1
sVmidwestern
p914
I1
sVclog
p915
I1
sVimpact
p916
I10
sVineffect
p917
I1
sVwriter
p918
I1
sVfactor
p919
I4
sVbernstein
p920
I1
sVgiants
p921
I1
sVtricia
p922
I1
sVsunny
p923
I1
sVresent
p924
I2
sVgavin
p925
I1
sVreporters
p926
I5
sVenemy
p927
I1
sVbelichick
p928
I2
sVriven
p929
I1
sVobscure
p930
I1
sVbuesseler
p931
I5
sV319
p932
I1
sVset
p933
I11
sVser
p934
I8
sVoverwhelm
p935
I4
sVactivists
p936
I4
sVsex
p937
I1
sVseg
p938
I2
sVsee
p939
I17
sVmauricio
p940
I1
sVsea
p941
I3
sVpolish
p942
I2
sVsen
p943
I2
sVanalog
p944
I2
sVproject
p945
I5
sVbaritone
p946
I1
sVmovie
p947
I2
sVeurope
p948
I1
sVtristar
p949
I1
sVprospects
p950
I2
sVlast
p951
I57
sVinfluential
p952
I1
sVconnection
p953
I1
sVpoverty
p954
I1
sVwhole
p955
I5
sVload
p956
I2
sVvolcanic
p957
I2
sVelectrician
p958
I1
sVbell
p959
I1
sVschedul
p960
I7
sVloan
p961
I1
sVholmdahl
p962
I2
sVcommunity
p963
I8
sVagents
p964
I1
sVchurch
p965
I1
sVbelt
p966
I8
sVdefang
p967
I1
sVdevic
p968
I5
sVgeoffrey
p969
I1
sVdevis
p970
I1
sVfirm
p971
I16
sVchampion
p972
I6
sVfire
p973
I1
sVcsnne
p974
I1
sVfund
p975
I4
sVtowns
p976
I1
sVfunk
p977
I1
sVmlb
p978
I1
sVuncertain
p979
I1
sVstraight
p980
I3
sVmls
p981
I1
sVswim
p982
I2
sVpound
p983
I2
sVmotors
p984
I3
sVcomport
p985
I1
sVchase
p986
I2
sVmint
p987
I1
sVshorten
p988
I1
sVread
p989
I5
sVstacy
p990
I1
sVlevels
p991
I5
sVrabie
p992
I1
sVnecessity
p993
I2
sVstack
p994
I1
sVinfamous
p995
I1
sVrecent
p996
I27
sVpicks
p997
I2
sVperson
p998
I6
sVexpens
p999
I14
sVsimp
p1000
I6
sVwearable
p1001
I1
sVreaders
p1002
I2
sVeager
p1003
I2
sVparents
p1004
I6
sVputnam
p1005
I1
sVcordon
p1006
I1
sVdemands
p1007
I3
sVcouple
p1008
I1
sVyemenis
p1009
I1
sVabound
p1010
I1
sVbureaucrac
p1011
I1
sVprojects
p1012
I2
sVformal
p1013
I2
sVd
p1014
I15
sVspine
p1015
I2
sVconsensus
p1016
I1
sVcommunications
p1017
I1
sVindividuals
p1018
I1
sVstylish
p1019
I1
sVmighti
p1020
I1
sVmethods
p1021
I1
sV1325
p1022
I1
sVsenate
p1023
I5
sVacknowledg
p1024
I5
sVbouncy
p1025
I1
sVsampl
p1026
I2
sVpall
p1027
I1
sVpalo
p1028
I1
sVgreener
p1029
I1
sVmeasurements
p1030
I1
sVbenefit
p1031
I7
sVrecogniz
p1032
I2
sVbe
p1033
I146
sVbb
p1034
I1
sVbr
p1035
I3
sVvitals
p1036
I1
sVby
p1037
I143
sVmyhrvold
p1038
I1
sVzip
p1039
I1
sVambush
p1040
I1
sVlibert
p1041
I1
sVsiliga
p1042
I1
sVmouth
p1043
I1
sVrepair
p1044
I1
sVcomputational
p1045
I1
sVclinton
p1046
I2
sVcolorado
p1047
I8
sVinto
p1048
I45
sVdoubters
p1049
I1
sVappropriate
p1050
I2
sVintegrat
p1051
I2
sVkatie
p1052
I1
sVoccupi
p1053
I2
sVspac
p1054
I2
sVcustom
p1055
I1
sVcrackdown
p1056
I1
sVsuit
p1057
I2
sVregulator
p1058
I1
sVelsewhere
p1059
I3
sVretina
p1060
I2
sVbluefin
p1061
I1
sVatlantic
p1062
I6
sVcompetition
p1063
I2
sVatom
p1064
I1
sVline
p1065
I10
sVconsiderable
p1066
I3
sVup
p1067
I95
sVus
p1068
I69
sVum
p1069
I1
sVmaturity
p1070
I2
sVun
p1071
I2
sVuk
p1072
I1
sVcit
p1073
I6
sValarm
p1074
I1
sVaerial
p1075
I8
sVpencil
p1076
I1
sVshowtime
p1077
I1
sVnighttime
p1078
I1
sVinfluence
p1079
I3
sVoccasional
p1080
I11
sVswirl
p1081
I1
sVpolonium
p1082
I1
sVago
p1083
I12
sVlane
p1084
I2
sVland
p1085
I13
sVage
p1086
I1
sVfeud
p1087
I2
sVbeverage
p1088
I1
sVwalker
p1089
I3
sVensenada
p1090
I1
sVsquatt
p1091
I1
sVmonterey
p1092
I1
sVcode
p1093
I1
sVadvisory
p1094
I2
sVresults
p1095
I5
sVslick
p1096
I2
sVlegal
p1097
I20
sVencrust
p1098
I1
sVyoung
p1099
I6
sVsens
p1100
I1
sVsent
p1101
I4
sVgarden
p1102
I1
sVtorture
p1103
I6
sVtri
p1104
I4
sVnorthwestern
p1105
I2
sVmagic
p1106
I5
sVtre
p1107
I1
sVeve
p1108
I1
sVfewer
p1109
I3
sVtry
p1110
I19
sVqaeda
p1111
I2
sVmassachusetts
p1112
I2
sVtru
p1113
I3
sVlogistics
p1114
I1
sVvehicl
p1115
I3
sVvideo
p1116
I15
sVdynamics
p1117
I1
sVvictor
p1118
I1
sVhouthi
p1119
I1
sVfirms
p1120
I8
sVslabs
p1121
I1
sVlee
p1122
I5
sVlet
p1123
I10
sVoctave
p1124
I1
sVlew
p1125
I1
sVfifteen
p1126
I2
sVgreat
p1127
I10
sVtechnical
p1128
I4
sVcasino
p1129
I1
sVtechnolog
p1130
I5
sVsurvey
p1131
I1
sVderby
p1132
I4
sVresidents
p1133
I4
sVmarc
p1134
I2
sVsgt
p1135
I2
sVcounsels
p1136
I1
sVtools
p1137
I1
sVconfidence
p1138
I1
sVcertificate
p1139
I1
sVillegal
p1140
I3
sVupgrad
p1141
I1
sVnext
p1142
I11
sVeleven
p1143
I1
sVbonds
p1144
I1
sVcommut
p1145
I1
sVmidday
p1146
I1
sVgivens
p1147
I1
sVconfiscate
p1148
I1
sV[story-body-text]
p1149
I329
sVintegrate
p1150
I1
sVbaby
p1151
I4
sVgambl
p1152
I1
sVcustomer
p1153
I1
sVhigh
p1154
I22
sVanimals
p1155
I50
sVthis
p1156
I108
sVchallenge
p1157
I4
sVclients
p1158
I6
sVinsists
p1159
I1
sVemerson
p1160
I2
sVthin
p1161
I2
sVweaker
p1162
I1
sVprocess
p1163
I5
sVlock
p1164
I1
sVcoolness
p1165
I1
sVwilfork
p1166
I3
sVrode
p1167
I1
sVdepiction
p1168
I1
sVbend
p1169
I1
sVdelay
p1170
I1
sVclogg
p1171
I1
sVcartier
p1172
I1
sVespecial
p1173
I9
sVblocks
p1174
I3
sVgardner
p1175
I1
sVfits
p1176
I1
sVidalene
p1177
I1
sVshuman
p1178
I1
sVfitt
p1179
I1
sVcounter
p1180
I3
sVissu
p1181
I9
sVwrit
p1182
I1
sVallow
p1183
I19
sVvolunteers
p1184
I1
sVhouston
p1185
I1
sVproducer
p1186
I2
sVmove
p1187
I8
sVwarren
p1188
I2
sVperfect
p1189
I4
sVchosen
p1190
I1
sVkelley
p1191
I4
sV2019
p1192
I2
sV2015
p1193
I6
sVpuerto
p1194
I4
sVdecad
p1195
I9
sV2016
p1196
I4
sV2011
p1197
I6
sV2010
p1198
I3
sV2013
p1199
I10
sV2012
p1200
I3
sVphysicians
p1201
I1
sVdesigns
p1202
I2
sVseatbelt
p1203
I1
sVbelch
p1204
I1
sVrepercussions
p1205
I1
sVstrateg
p1206
I1
sVseawater
p1207
I1
sVkiss
p1208
I1
sVrotation
p1209
I1
sVpopularizer
p1210
I1
sVrealize
p1211
I1
sVpresidential
p1212
I5
sVanyth
p1213
I7
sVbetty
p1214
I1
sVtruth
p1215
I4
sVhomogeneous
p1216
I1
sVactivit
p1217
I3
sVsociety
p1218
I8
sVbooks
p1219
I2
sVirritation
p1220
I1
sVbay
p1221
I2
sVwander
p1222
I17
sVwitness
p1223
I1
sVboutique
p1224
I1
sVvalve
p1225
I1
sVsubmerg
p1226
I1
sVhanoun
p1227
I1
sVburke
p1228
I1
sVarchitecture
p1229
I3
sVshut
p1230
I3
sVunwieldy
p1231
I1
sVtempt
p1232
I1
sVshum
p1233
I6
sVlexey
p1234
I1
sVgallons
p1235
I1
sVscarr
p1236
I8
sVdavid
p1237
I6
sVlength
p1238
I1
sVdavis
p1239
I2
sVendors
p1240
I2
sV450
p1241
I1
sVscene
p1242
I1
sVowner
p1243
I2
sVisolat
p1244
I1
sVhourlynerd
p1245
I1
sVlos
p1246
I4
sVlicens
p1247
I1
sVsystem
p1248
I12
sVsergeant
p1249
I6
sVnpr
p1250
I2
sVsongwriters
p1251
I2
sVinterests
p1252
I1
sVenernoc
p1253
I8
sVdetaine
p1254
I2
sVelite
p1255
I2
sVhaven
p1256
I3
sVbother
p1257
I1
sVassociat
p1258
I3
sVsteep
p1259
I1
sVsteer
p1260
I1
sVfalse
p1261
I7
sVmuir
p1262
I1
sVtonight
p1263
I2
sVreceptionist
p1264
I1
sVdocuments
p1265
I6
sVsoak
p1266
I1
sVaccuracy
p1267
I2
sVdevice
p1268
I6
sVsternlieb
p1269
I1
sVstronger
p1270
I2
sVface
p1271
I12
sVmechanical
p1272
I2
sVfact
p1273
I7
sVatmosphere
p1274
I1
sV[pb-caption]
p1275
I3
sVhadramawt
p1276
I2
sVbring
p1277
I1
sVgreenhouse
p1278
I1
sVrough
p1279
I6
sVeconomist
p1280
I5
sVdecade
p1281
I7
sVprincipal
p1282
I1
sVnois
p1283
I1
sVstamps
p1284
I1
sVshould
p1285
I22
sVbuttons
p1286
I1
sVjam
p1287
I5
sVsuppos
p1288
I3
sVintrigu
p1289
I1
sVflinch
p1290
I1
sVhope
p1291
I4
sVmeant
p1292
I4
sVmeans
p1293
I14
sVfamiliar
p1294
I1
sVlucky
p1295
I1
sVautor
p1296
I3
sVgpus
p1297
I1
sVh
p1298
I5
sVsummon
p1299
I1
sVextremists
p1300
I3
sVohio
p1301
I1
sVnoodl
p1302
I1
sVframe
p1303
I2
sVedition
p1304
I1
sVparticl
p1305
I1
sVcoils
p1306
I1
sVwire
p1307
I2
sVsuperhero
p1308
I1
sVextend
p1309
I5
sVnuclear
p1310
I7
sVpartisan
p1311
I1
sVinjustice
p1312
I2
sVlegitimize
p1313
I1
sVemail
p1314
I12
sVshiite
p1315
I1
sVends
p1316
I2
sVcomebacks
p1317
I1
sVconfiguration
p1318
I1
sVrestrictions
p1319
I1
sVla
p1320
I1
sVramp
p1321
I1
sVhauls
p1322
I1
sVco
p1323
I3
sVcm
p1324
I1
sVconclude
p1325
I1
sVlabor
p1326
I8
sVundergraduate
p1327
I1
sVoutsider
p1328
I1
sVobstacl
p1329
I1
sVwaste
p1330
I1
sVfudan
p1331
I1
sVpsychotherapist
p1332
I1
sV2014
p1333
I11
sVrunway
p1334
I1
sVpomus
p1335
I1
sVchernobyl
p1336
I2
sVva
p1337
I1
sVpurchas
p1338
I4
sVve
p1339
I21
sVlush
p1340
I2
sVhardware
p1341
I6
sVvs
p1342
I2
sVsits
p1343
I2
sVsitt
p1344
I4
sVransom
p1345
I1
sVhubbard
p1346
I2
sVandroid
p1347
I1
sVcompetit
p1348
I2
sVball
p1349
I1
sVcolumbia
p1350
I3
sVraymond
p1351
I1
sVexpans
p1352
I1
sVforecasts
p1353
I1
sVdust
p1354
I1
sVexpand
p1355
I1
sVoff
p1356
I35
sVphilippin
p1357
I1
sVpatterns
p1358
I3
sVexampl
p1359
I2
sVcommand
p1360
I1
sVshackl
p1361
I2
sVdepict
p1362
I1
sVnegligence
p1363
I3
sVless
p1364
I14
sVmoments
p1365
I3
sVgeller
p1366
I19
sVpaul
p1367
I1
sVweb
p1368
I2
sVresidential
p1369
I1
sVarrest
p1370
I17
sVcombine
p1371
I2
sVmcphatter
p1372
I1
sVwet
p1373
I1
sVcompet
p1374
I1
sVpiec
p1375
I1
sVhaul
p1376
I8
sVpassword
p1377
I1
sVrecurr
p1378
I1
sVschmitz
p1379
I1
sVresin
p1380
I1
sVgarage
p1381
I1
sVimprison
p1382
I4
sVbecome
p1383
I12
sVindications
p1384
I1
sVincent
p1385
I1
sVhabitat
p1386
I8
sVfootage
p1387
I2
sVconservat
p1388
I2
sVguarante
p1389
I1
sVthiev
p1390
I1
sVtransport
p1391
I6
sVavoid
p1392
I5
sVdemonstrators
p1393
I1
sVbreakout
p1394
I1
sVbelal
p1395
I1
sVschedule
p1396
I3
sVpressure
p1397
I2
sVcelebrit
p1398
I1
sVstage
p1399
I2
sVputs
p1400
I2
sVingest
p1401
I1
sVchrome
p1402
I1
sVsoftware
p1403
I13
sVletters
p1404
I1
sVerrands
p1405
I1
sVassess
p1406
I3
sVtiny
p1407
I2
sVjoyce
p1408
I1
sVroads
p1409
I1
sVmere
p1410
I7
sVmerg
p1411
I1
sVdockside
p1412
I1
sVsnyder
p1413
I3
sVspots
p1414
I1
sVpeters
p1415
I1
sVfrustration
p1416
I2
sVupris
p1417
I1
sVfunction
p1418
I2
sVfunnel
p1419
I1
sVcosmopolitan
p1420
I1
sVdelivery
p1421
I1
sVconstruction
p1422
I3
sVapollo
p1423
I2
sVcount
p1424
I7
sVbehemoth
p1425
I1
sVofficial
p1426
I10
sVsmooth
p1427
I2
sVconvince
p1428
I2
sVdistribution
p1429
I1
sVthrew
p1430
I1
sVrecognize
p1431
I1
sVrubble
p1432
I2
sVlife
p1433
I20
sVreplica
p1434
I2
sVo'malley
p1435
I1
sVinc
p1436
I1
sVmushroom
p1437
I1
sVvariety
p1438
I2
sVsharia
p1439
I1
sVsexual
p1440
I2
sVdetails
p1441
I5
sVfrisbee
p1442
I1
sVmonday
p1443
I5
sVfootprints
p1444
I1
sVchance
p1445
I4
sVrepeal
p1446
I3
sVexposure
p1447
I1
sVoutsourc
p1448
I2
sVrule
p1449
I2
sVshutkin
p1450
I1
sVlift
p1451
I3
sVcompete
p1452
I1
sVdefend
p1453
I4
sVparalegals
p1454
I1
sVchild
p1455
I5
sVdesirable
p1456
I1
sVtenuous
p1457
I1
sVrelationships
p1458
I2
sVspew
p1459
I1
sVedward
p1460
I4
sVseparat
p1461
I8
sVworth
p1462
I2
sVgeology
p1463
I2
sVblanket
p1464
I1
sVdistort
p1465
I1
sVsellers
p1466
I1
sVwe'll
p1467
I1
sVdaydream
p1468
I1
sVincorporat
p1469
I1
sVruebusch
p1470
I1
sVsuite
p1471
I1
sVreinvent
p1472
I1
sVchew
p1473
I1
sS'<a>'
p1474
I107
sVhord
p1475
I1
sVinstitutionaliz
p1476
I1
sVpresidio
p1477
I6
sVbrill
p1478
I1
sVhors
p1479
I9
sVlongstand
p1480
I2
sVsupervis
p1481
I1
sVstardom
p1482
I1
sVdeliberate
p1483
I1
sVreconstruction
p1484
I1
sVconsequenc
p1485
I3
sVtold
p1486
I19
sVfeghali
p1487
I1
sVprotection
p1488
I1
sVdaughter
p1489
I2
sVstudy
p1490
I11
sVsmoke
p1491
I2
sVstudi
p1492
I1
sVreasonab
p1493
I1
sVsecure
p1494
I4
sVseven
p1495
I4
sVattitud
p1496
I1
sVhindsight
p1497
I1
sVatrium
p1498
I1
sVtotal
p1499
I7
sVpalestinian
p1500
I2
sVcomcast
p1501
I1
sVindiana
p1502
I2
sVcontaminat
p1503
I1
sVplenitude
p1504
I1
sVconclusions
p1505
I2
sVsupergroup
p1506
I1
sVaware
p1507
I4
sVmust've
p1508
I1
sV1991
p1509
I1
sV1990
p1510
I3
sV1993
p1511
I2
sV1995
p1512
I3
sVwore
p1513
I2
sV1997
p1514
I2
sVrestor
p1515
I1
sV1999
p1516
I1
sV1998
p1517
I1
sVwork
p1518
I76
sVworn
p1519
I1
sVera
p1520
I4
sVcould
p1521
I47
sVbennett
p1522
I3
sVindia
p1523
I1
sVwoman
p1524
I3
sVrecovery
p1525
I1
sVcarriers
p1526
I1
sVprovide
p1527
I4
sVoperativ
p1528
I1
sVinterview
p1529
I8
sVordinary
p1530
I1
sVbeach
p1531
I2
sVgamble
p1532
I3
sVlan
p1533
I3
sVfever
p1534
I1
sVafter
p1535
I46
sVtackle
p1536
I5
sV[box]
p1537
I2
sVlaw
p1538
I24
sVarch
p1539
I1
sVlas
p1540
I1
sVhomeowners
p1541
I4
sVretort
p1542
I1
sVgreet
p1543
I1
sVundermatch
p1544
I1
sVsupermarkets
p1545
I1
sVgreek
p1546
I1
sVgreen
p1547
I4
sVaboveground
p1548
I1
sVorder
p1549
I9
sVoffice
p1550
I28
sVconsent
p1551
I2
sVfundrais
p1552
I3
sVboutchard
p1553
I1
sVelevat
p1554
I1
sVmisconduct
p1555
I9
sVmayor
p1556
I1
sVadolescence
p1557
I1
sVsomewhere
p1558
I1
sVhighlights
p1559
I1
sVchristie
p1560
I8
sVdenver
p1561
I1
sVoffic
p1562
I3
sVproduction
p1563
I1
sVsplit
p1564
I1
sVthen
p1565
I32
sVthem
p1566
I57
sVsafe
p1567
I7
sVbreak
p1568
I13
sVband
p1569
I3
sVbang
p1570
I2
sVthey
p1571
I133
sVbann
p1572
I1
sVbank
p1573
I3
sVgregorio
p1574
I1
sVrocky
p1575
I8
sVl
p1576
I15
sVreasonable
p1577
I1
sVcarlos
p1578
I2
sVdownshift
p1579
I1
sVmeets
p1580
I1
sVcouncils
p1581
I1
sVnetwork
p1582
I9
sVcameras
p1583
I2
sVdaniel
p1584
I1
sVmedicine
p1585
I1
sVarpeggios
p1586
I1
sVstandard
p1587
I1
sVadmits
p1588
I1
sV[story-subheading]
p1589
I9
sVadmitt
p1590
I3
sVmvp
p1591
I1
sVreconfigur
p1592
I1
sVdispersal
p1593
I1
sVoppose
p1594
I1
sVrender
p1595
I1
sVmessag
p1596
I3
sVanother
p1597
I27
sVthick
p1598
I2
sVelectronic
p1599
I3
sVcentrifuge
p1600
I1
sVtimothy
p1601
I1
sVdogg
p1602
I1
sVingen
p1603
I1
sVupshot
p1604
I1
sVjohn
p1605
I3
sV40th
p1606
I1
sVdogs
p1607
I1
sVgrandchildren
p1608
I1
sVoffhand
p1609
I1
sVtarget
p1610
I6
sVprovid
p1611
I6
sVhike
p1612
I8
sVforensic
p1613
I1
sViron
p1614
I1
sVdesign
p1615
I7
sVminut
p1616
I7
sVnavigate
p1617
I1
sVsubsid
p1618
I1
sVstrength
p1619
I2
sVgenuine
p1620
I3
sVwiden
p1621
I1
sVladen
p1622
I1
sVlatter
p1623
I1
sVcasual
p1624
I1
sVsubjects
p1625
I1
sVluxury
p1626
I3
sVcurfew
p1627
I2
sVbruce
p1628
I1
sV[footnotes]
p1629
I2
sVprohibitive
p1630
I1
sVanatomy
p1631
I1
sVautopsy
p1632
I1
sVgrave
p1633
I2
sVexcus
p1634
I1
sValumni
p1635
I3
sVbrief
p1636
I2
sVfacto
p1637
I1
sVinvolv
p1638
I10
sVjust
p1639
I51
sVguidance
p1640
I1
sVadequate
p1641
I2
sVpersonality
p1642
I1
sVdo
p1643
I71
sVdi
p1644
I14
sVde
p1645
I2
sVleisure
p1646
I1
sVdy
p1647
I1
sVdr
p1648
I10
sVchanel
p1649
I1
sVruns
p1650
I4
sVemi
p1651
I1
sVanalytical
p1652
I1
sVsteam
p1653
I1
sVsecretary
p1654
I2
sVpeshawar
p1655
I1
sVobserver
p1656
I1
sVanalytics
p1657
I1
sVdepends
p1658
I2
sVcattle
p1659
I8
sVdiscussions
p1660
I1
sVmiserable
p1661
I1
sVdraws
p1662
I1
sVaway
p1663
I12
sVunable
p1664
I2
sVdrawn
p1665
I2
sVaccord
p1666
I25
sVterms
p1667
I1
sVwo
p1668
I1
sVhandful
p1669
I3
sVunfold
p1670
I1
sVclimate
p1671
I1
sVpsychologists
p1672
I10
sVbrav
p1673
I1
sVill
p1674
I1
sVrecruiter
p1675
I1
sVproliferat
p1676
I1
sVdevotion
p1677
I1
sVbrad
p1678
I2
sVrequests
p1679
I1
sVcom
p1680
I21
sVtough
p1681
I2
sVseizure
p1682
I2
sVguid
p1683
I1
sVtelecommunications
p1684
I1
sVspeak
p1685
I5
sVpetty
p1686
I1
sVbuffett
p1687
I1
sVrevenu
p1688
I1
sVflexible
p1689
I2
sVdozens
p1690
I3
sVpartnership
p1691
I4
sVbaum
p1692
I1
sVprison
p1693
I6
sVhas
p1694
I110
sVahead
p1695
I1
sVair
p1696
I15
sVaid
p1697
I7
sVvoice
p1698
I5
sVmistake
p1699
I1
sVthursdays
p1700
I1
sVseparatist
p1701
I1
sVdizzy
p1702
I1
sVexile
p1703
I1
sVstint
p1704
I1
sVperform
p1705
I7
sVjerry
p1706
I1
sV[media__caption]
p1707
I1
sVgrapple
p1708
I1
sVwheel
p1709
I1
sVindependent
p1710
I8
sVhang
p1711
I1
sVcounterparts
p1712
I2
sVhand
p1713
I6
sVrais
p1714
I4
sVtraffick
p1715
I1
sVkept
p1716
I2
sVscenario
p1717
I2
sV1978
p1718
I1
sV1977
p1719
I2
sV1976
p1720
I1
sV1975
p1721
I1
sVdriv
p1722
I3
sV1973
p1723
I1
sV1972
p1724
I1
sV1971
p1725
I1
sVclient
p1726
I5
sVthe
p1727
I696
sVcamps
p1728
I1
sVmclean
p1729
I1
sVathletic
p1730
I1
sVphoto
p1731
I2
sVmid
p1732
I1
sVthanks
p1733
I2
sVstepdaughter
p1734
I1
sVunique
p1735
I1
sVphotographer
p1736
I1
sVjosh
p1737
I1
sVshout
p1738
I2
sVspread
p1739
I2
sVboard
p1740
I11
sVarab
p1741
I1
sVboxer
p1742
I1
sVunification
p1743
I3
sVmays
p1744
I1
sVdesigners
p1745
I1
sVbpd
p1746
I2
sVxbox
p1747
I2
sVconfid
p1748
I1
sVnight
p1749
I13
sVsecurity
p1750
I12
sVfluoride
p1751
I1
sVsixt
p1752
I2
sVnegat
p1753
I1
sS'<noscript>'
p1754
I1
sVborn
p1755
I1
sVflatten
p1756
I1
sVcriminology
p1757
I1
sVcomments
p1758
I2
sVparticipation
p1759
I1
sVpose
p1760
I1
sVpost
p1761
I6
sVhackensack
p1762
I2
sVmonths
p1763
I4
sVobv
p1764
I7
sVkyle
p1765
I1
sVpays
p1766
I1
sVprisoners
p1767
I2
sVprofession
p1768
I3
sVformidable
p1769
I1
sVwak
p1770
I1
sVwag
p1771
I5
sVwad
p1772
I2
sVlegislation
p1773
I1
sVfight
p1774
I15
sVclinical
p1775
I1
sVway
p1776
I32
sVwav
p1777
I2
sVwas
p1778
I160
sVwar
p1779
I8
sVpeninsula
p1780
I3
sVtrue
p1781
I6
sVisis
p1782
I1
sVgchat
p1783
I1
sVmaximum
p1784
I3
sVdovetails
p1785
I1
sVcrystal
p1786
I1
sVcomplaint
p1787
I1
sVemotional
p1788
I3
sVretir
p1789
I2
sVmoore
p1790
I5
sVtesla
p1791
I14
sVopportunistic
p1792
I1
sVevidence
p1793
I3
sS'<figure>'
p1794
I2
sVphysical
p1795
I2
sVstake
p1796
I1
sVtesa
p1797
I1
sVreality
p1798
I6
sVtest
p1799
I9
sVoperators
p1800
I3
sVheyday
p1801
I1
sVbrothers
p1802
I2
sVupdate
p1803
I7
sVyardage
p1804
I1
sVoutdat
p1805
I1
sVradioactivity
p1806
I1
sVbedd
p1807
I1
sVtogether
p1808
I4
sVloyal
p1809
I2
sVclassmate
p1810
I1
sVlineup
p1811
I3
sVsongs
p1812
I1
sVconcept
p1813
I1
sVbroke
p1814
I1
sV[b]
p1815
I8
sVdance
p1816
I4
sVglobal
p1817
I6
sVbattle
p1818
I1
sVkillings
p1819
I1
sVzone
p1820
I1
sVgigs
p1821
I1
sVdonnel
p1822
I1
sVhumm
p1823
I1
sVterror
p1824
I3
sVdartmouth
p1825
I1
sVbrown
p1826
I16
sVeducat
p1827
I1
sVvegas
p1828
I1
sVkitten
p1829
I4
sVtrouble
p1830
I2
sVbrows
p1831
I1
sVfragile
p1832
I1
sVgun
p1833
I8
sVp
p1834
I29
sV[zn-body__paragraph]
p1835
I47
sVguy
p1836
I3
sVrevolution
p1837
I5
sVdiscover
p1838
I9
sVcost
p1839
I6
sVcargo
p1840
I1
sVappear
p1841
I9
sVassistance
p1842
I5
sVappeal
p1843
I2
sVunravell
p1844
I1
sVexplosion
p1845
I1
sVhololens
p1846
I16
sVstrontium
p1847
I3
sVappears
p1848
I7
sVchange
p1849
I9
sVdepositions
p1850
I1
sVmacintosh
p1851
I1
sVregardless
p1852
I1
sVextra
p1853
I1
sVmarked
p1854
I1
sVnero
p1855
I2
sVfirearm
p1856
I1
sVmarket
p1857
I17
sVprove
p1858
I3
sVangela
p1859
I1
sVtape
p1860
I3
sVcommissioner
p1861
I4
sVclue
p1862
I1
sVdarrelle
p1863
I1
sVorganizations
p1864
I4
sVgraphic
p1865
I1
sVcas
p1866
I3
sVcar
p1867
I6
sVprepar
p1868
I6
sVcap
p1869
I1
sVcat
p1870
I1
sVhardest
p1871
I1
sVgathers
p1872
I1
sVcan
p1873
I71
sVheart
p1874
I5
sVspr
p1875
I3
sVdidn't
p1876
I3
sV1980s
p1877
I2
sVheard
p1878
I8
sVoccur
p1879
I2
sVoccup
p1880
I1
sVallott
p1881
I1
sVspreads
p1882
I1
sVwrite
p1883
I5
sVentrench
p1884
I1
sVeconomy
p1885
I4
sVproduct
p1886
I15
sVzimmerman
p1887
I1
sVsouthern
p1888
I3
sVproduce
p1889
I4
sVremember
p1890
I1
sVtrumpets
p1891
I1
sVdivid
p1892
I1
sVfavorit
p1893
I1
sVbenny
p1894
I1
sVoffens
p1895
I3
sVoffend
p1896
I1
sVidiosyncratic
p1897
I1
sVtypical
p1898
I7
sV[photo]
p1899
I1
sVpakhtunkhwa
p1900
I2
sVbrain
p1901
I3
sVtablets
p1902
I1
sVcold
p1903
I1
sVstill
p1904
I33
sVethic
p1905
I3
sVrooftop
p1906
I3
sVsymonds
p1907
I1
sVacknowledge
p1908
I1
sVsexiest
p1909
I1
sVforms
p1910
I1
sVwindow
p1911
I2
sVnon
p1912
I1
sVhalt
p1913
I1
sVvaras
p1914
I2
sVhalv
p1915
I1
sVnod
p1916
I1
sVrake
p1917
I1
sVintroduce
p1918
I1
sV1954
p1919
I1
sV1956
p1920
I1
sV1950
p1921
I1
sVhalf
p1922
I11
sVnot
p1923
I129
sVnow
p1924
I32
sV1959
p1925
I1
sV1958
p1926
I2
sVnor
p1927
I1
sVnos
p1928
I1
sVjanuary
p1929
I1
sVdrop
p1930
I1
sVdron
p1931
I1
sVdramatical
p1932
I3
sVem
p1933
I1
sVel
p1934
I1
sVunblemish
p1935
I1
sVen
p1936
I1
sVreplac
p1937
I3
sVey
p1938
I5
sVyear
p1939
I54
sVubiquitous
p1940
I2
sVhappen
p1941
I9
sVmonitors
p1942
I2
sVer
p1943
I1
sValbum
p1944
I1
sVshown
p1945
I4
sVaccomplish
p1946
I1
sVspace
p1947
I6
sVincrease
p1948
I2
sVwaheidi
p1949
I1
sVshows
p1950
I7
sVcarr
p1951
I2
sVcars
p1952
I4
sVcarv
p1953
I1
sVargu
p1954
I6
sVcarl
p1955
I1
sVmarine
p1956
I2
sVinevitable
p1957
I2
sVcare
p1958
I3
sVcouldn
p1959
I10
sVdeprivation
p1960
I1
sVtransition
p1961
I3
sVclarion
p1962
I1
sVbritish
p1963
I5
sVsheikhdoms
p1964
I1
sVnonprofit
p1965
I2
sVsupport
p1966
I9
sVstriking
p1967
I1
sVcpus
p1968
I1
sVwedg
p1969
I1
sVballmer
p1970
I5
sVzay
p1971
I2
sVimpossible
p1972
I11
sVmessage
p1973
I5
sVdrove
p1974
I2
sV6538
p1975
I1
sVsize
p1976
I6
sVsheep
p1977
I1
sVsheet
p1978
I1
sVcaught
p1979
I3
sVtraction
p1980
I1
sVtragic
p1981
I1
sVcarousel
p1982
I1
sVfriend
p1983
I7
sVthaw
p1984
I8
sVthat
p1985
I330
sVbrains
p1986
I1
sVexpanse
p1987
I1
sVtehran
p1988
I2
sVquad
p1989
I1
sVthan
p1990
I70
sVnizam
p1991
I1
sVprofessionals
p1992
I4
sVtelevision
p1993
I5
sVlucrat
p1994
I1
sVrecruit
p1995
I4
sVvocals
p1996
I1
sVsurname
p1997
I1
sVangel
p1998
I3
sVcorrection
p1999
I1
sVcrossover
p2000
I1
sVslam
p2001
I1
sVrecover
p2002
I2
sVimplod
p2003
I1
sVveteran
p2004
I1
sVforc
p2005
I10
sVonline
p2006
I4
sVobjective
p2007
I1
sVbusinessweek
p2008
I1
sVbegin
p2009
I1
sVfenway
p2010
I1
sVprice
p2011
I4
sVamerica
p2012
I3
sVmichelle
p2013
I1
sVdream
p2014
I2
sVsteady
p2015
I1
sVtooth
p2016
I1
sVprofessional
p2017
I4
sVsteadi
p2018
I1
sVfifty
p2019
I1
sVfifth
p2020
I1
sVground
p2021
I1
sVinevitab
p2022
I1
sVtitle
p2023
I2
sVdeployments
p2024
I1
sVstain
p2025
I11
sVcannon
p2026
I1
sS'<blockquote>'
p2027
I4
sVloath
p2028
I1
sVcannot
p2029
I4
sVbracelets
p2030
I1
sVstroll
p2031
I1
sVreprints
p2032
I1
sVscientist
p2033
I1
sVhusband
p2034
I3
sVconcert
p2035
I1
sVburst
p2036
I1
sVwhitewash
p2037
I1
sVsport
p2038
I2
sVconcern
p2039
I12
sVisraeli
p2040
I4
sVfeuds
p2041
I1
sV3
p2042
I8
sVlandline
p2043
I1
sVbetween
p2044
I18
sVmandarin
p2045
I1
sVnicest
p2046
I1
sVislam
p2047
I1
sVnathaniel
p2048
I1
sVkesner
p2049
I1
sVnotice
p2050
I1
sVjacobs
p2051
I1
sVarticle
p2052
I2
sVinstallation
p2053
I1
sVnearby
p2054
I17
sV150
p2055
I3
sVjeans
p2056
I1
sVdispatch
p2057
I2
sVcouldn't
p2058
I1
sVmoreover
p2059
I2
sVrebuild
p2060
I1
sVterritorial
p2061
I1
sVsportscaster
p2062
I1
sVcountless
p2063
I1
sVthese
p2064
I27
sVtrick
p2065
I1
sVscul
p2066
I1
sVcoolest
p2067
I1
sValcoholic
p2068
I1
sVworri
p2069
I10
sVbias
p2070
I1
sVembrace
p2071
I1
sVsoldz
p2072
I2
sVmediocre
p2073
I2
sVworry
p2074
I6
sVdevelop
p2075
I14
sVmedia
p2076
I3
sVmedic
p2077
I2
sVceo
p2078
I1
sVinquiry
p2079
I2
sVlite
p2080
I1
sVfinish
p2081
I8
sVclosest
p2082
I1
sV199th
p2083
I1
sVfrankincense
p2084
I1
sVin
p2085
I436
sVbiederman
p2086
I1
sVtrapp
p2087
I1
sVconstitutional
p2088
I3
sVsevere
p2089
I4
sVcoordinate
p2090
I1
sVinterface
p2091
I3
sVheaps
p2092
I1
sVnoah
p2093
I1
sVvaluable
p2094
I1
sVmaternity
p2095
I2
sVtouch
p2096
I2
sVunderinvests
p2097
I2
sVdeath
p2098
I10
sVnimbler
p2099
I1
sVrole
p2100
I10
sVstruck
p2101
I2
sVreal
p2102
I26
sVhover
p2103
I4
sVstepien
p2104
I1
sVspectacular
p2105
I2
sVappearanc
p2106
I1
sVcalendars
p2107
I1
sVoutsource
p2108
I1
sVrebecca
p2109
I1
sVheadpiece
p2110
I1
sVfortuna
p2111
I1
sVfortune
p2112
I1
sVpounds
p2113
I2
sVsuppliers
p2114
I1
sVoblivion
p2115
I1
sVt
p2116
I151
sVcalbuco
p2117
I4
sVverbal
p2118
I2
sVperverse
p2119
I1
sVethos
p2120
I1
sVwillie
p2121
I1
sVbusiness
p2122
I31
sVsixth
p2123
I1
sVequivalent
p2124
I1
sVtuition
p2125
I1
sVcredits
p2126
I5
sVsixty
p2127
I1
sV1938
p2128
I1
sVthrow
p2129
I1
sVcomparison
p2130
I1
sVcentral
p2131
I5
sVintens
p2132
I1
sVunderway
p2133
I1
sVbackup
p2134
I1
sVprotests
p2135
I1
sVsnapchat
p2136
I1
sVyour
p2137
I18
sVlog
p2138
I1
sVprepare
p2139
I1
sVarea
p2140
I20
sVaren
p2141
I3
sVstark
p2142
I3
sVstart
p2143
I40
sVlov
p2144
I2
sVlow
p2145
I12
sVlot
p2146
I20
sVlou
p2147
I1
sVmilitias
p2148
I1
sVhire
p2149
I1
sVoutliers
p2150
I1
sVstanford
p2151
I10
sV600
p2152
I1
sVdescribe
p2153
I3
sVnerv
p2154
I1
sVreliability
p2155
I1
sVsaleh
p2156
I3
sVsulaiman
p2157
I1
sVstorage
p2158
I20
sVevent
p2159
I5
sVyou
p2160
I80
sVpoor
p2161
I8
sV60s
p2162
I1
sVdrift
p2163
I1
sVpeak
p2164
I4
sVcoverage
p2165
I2
sVtrekk
p2166
I1
sVpool
p2167
I3
sVreduc
p2168
I6
sVstrings
p2169
I1
sVskeleton
p2170
I1
sVmonth
p2171
I6
sVunrest
p2172
I3
sVmontt
p2173
I3
sVdeadline
p2174
I2
sS'<figcaption>'
p2175
I2
sVcarpet
p2176
I1
sVicons
p2177
I1
sVfoster
p2178
I1
sVsustain
p2179
I3
sVblackouts
p2180
I1
sVgoodson
p2181
I6
sVhill
p2182
I1
sVmasquerad
p2183
I1
sVconfidential
p2184
I1
sVvery
p2185
I13
sVdecide
p2186
I10
sVlouis
p2187
I1
sVmild
p2188
I2
sVinstagram
p2189
I1
sVstreets
p2190
I2
sVpromoter
p2191
I1
sVresound
p2192
I1
sVenvisions
p2193
I1
sVconsumers
p2194
I1
sVdeborah
p2195
I2
sVmultinational
p2196
I1
sVturmoil
p2197
I1
sViran
p2198
I7
sVloose
p2199
I1
sVmisread
p2200
I1
sVtracks
p2201
I1
sVexcess
p2202
I3
sViraq
p2203
I2
sVshibam
p2204
I1
sVconviction
p2205
I1
sVtelecast
p2206
I1
sVamount
p2207
I2
sVmarginal
p2208
I3
sVput
p2209
I15
sVlagos
p2210
I1
sVaggress
p2211
I1
sVconventional
p2212
I3
sVtaker
p2213
I1
sVkhal
p2214
I2
sVcontains
p2215
I1
sVtaken
p2216
I14
sVinjury
p2217
I7
sVlineups
p2218
I1
sVbrowner
p2219
I1
sVexcuse
p2220
I2
sVclassmat
p2221
I1
sVcoalition
p2222
I2
sVnine
p2223
I9
sVyemen
p2224
I17
sVhistory
p2225
I5
sVcows
p2226
I49
sVphrase
p2227
I1
sVdaiichi
p2228
I1
sVjihadi
p2229
I1
sVbillionaire
p2230
I2
sVfr
p2231
I1
sVsneak
p2232
I1
sVembrac
p2233
I1
sVfe
p2234
I2
sS'<li>'
p2235
I4
sVfl
p2236
I1
sVa
p2237
I515
sVdocumentation
p2238
I1
sVovernight
p2239
I2
sVmantras
p2240
I1
sVdaggers
p2241
I1
sVdread
p2242
I1
sVegg
p2243
I1
sVhelp
p2244
I29
sVsood
p2245
I2
sVerod
p2246
I2
sVurine
p2247
I1
sVsoon
p2248
I6
sVheld
p2249
I5
sVcommittee
p2250
I4
sVstaunch
p2251
I1
sVexact
p2252
I2
sVlateral
p2253
I1
sVfruitful
p2254
I1
sVabsence
p2255
I1
sVsystems
p2256
I5
sVfounders
p2257
I2
sVgovernments
p2258
I2
sVfood
p2259
I6
sVsentenc
p2260
I1
sVstarbucks
p2261
I2
sVfoot
p2262
I3
sVterrorism
p2263
I1
sVmosby
p2264
I23
sVisn't
p2265
I1
sVheavy
p2266
I4
sVeasley
p2267
I1
sVheavi
p2268
I2
sVtodd
p2269
I1
sVbeyond
p2270
I4
sVundraftable
p2271
I1
sVrobert
p2272
I2
sVsince
p2273
I24
sVpublish
p2274
I3
sVtrusts
p2275
I1
sVsafety
p2276
I4
sV7
p2277
I7
sVtruste
p2278
I1
sVissue
p2279
I1
sVchronical
p2280
I1
sVrece
p2281
I5
sVlabs
p2282
I1
sVreason
p2283
I14
sVbase
p2284
I8
sVask
p2285
I22
sVash
p2286
I6
sVms
p2287
I46
sVlaunch
p2288
I3
sS'<i>'
p2289
I2
sVlawler
p2290
I1
sVamerican
p2291
I12
sV[citation]
p2292
I1
sVsyria
p2293
I1
sVassign
p2294
I1
sVeffortless
p2295
I1
sVmist
p2296
I1
sVmiss
p2297
I15
sVhorse
p2298
I5
sV[ratio-tall]
p2299
I1
sVairborne
p2300
I1
sVstation
p2301
I6
sVidentity
p2302
I1
sVnigeria
p2303
I1
sVscheme
p2304
I3
sVbanana
p2305
I1
sVauthors
p2306
I2
sValbums
p2307
I1
sVgrew
p2308
I7
sVkindle
p2309
I1
sVtoward
p2310
I7
sVprocedural
p2311
I1
sValongside
p2312
I1
sVoverstate
p2313
I2
sVteslas
p2314
I1
sVsubstantial
p2315
I3
sVcontrovers
p2316
I1
sVmy
p2317
I30
sVvulnerable
p2318
I2
sVoption
p2319
I2
sVimagin
p2320
I1
sVunintend
p2321
I1
sVtrance
p2322
I1
sVlin
p2323
I3
sVcave
p2324
I1
sVofficers
p2325
I28
sVlik
p2326
I5
sVliv
p2327
I13
sVuseless
p2328
I1
sVcaliphate
p2329
I1
sVsupervolcano
p2330
I1
sVoft
p2331
I1
sVindecis
p2332
I1
sVfreddie
p2333
I6
sVcomparisons
p2334
I1
sVcapitaliz
p2335
I1
sVsalary
p2336
I2
sVchronicle
p2337
I1
sVmobile
p2338
I2
sVclear
p2339
I11
sVwindowless
p2340
I1
sVclean
p2341
I2
sVlatest
p2342
I3
sVtenet
p2343
I2
sVtranslation
p2344
I2
sVreminiscent
p2345
I1
sVnorthern
p2346
I2
sVjustice
p2347
I7
sVquer
p2348
I2
sVpretty
p2349
I10
sVedelman
p2350
I1
sVdominant
p2351
I1
sVmeanwhile
p2352
I2
sVintensifi
p2353
I1
sVdeteriorat
p2354
I1
sVfeels
p2355
I2
sValexander
p2356
I1
sV[el__leafmedia--sourced-paragraph]
p2357
I2
sVretaliation
p2358
I1
sVx
p2359
I1
sVcommonwealthmagazine
p2360
I1
sVbacktrack
p2361
I1
sVculture
p2362
I3
sVclose
p2363
I9
sS'<img>'
p2364
I1
sVprobable
p2365
I1
sVwop
p2366
I1
sVwoo
p2367
I1
sVwon
p2368
I8
sVconditions
p2369
I1
sVbettor
p2370
I1
sVspray
p2371
I4
sVleague
p2372
I2
sVmega
p2373
I1
sVbuzz
p2374
I1
sVexperimental
p2375
I1
sVjeff
p2376
I2
sVbattery
p2377
I20
sVwhatever
p2378
I2
sVneumeier
p2379
I14
sVempti
p2380
I1
sVrugg
p2381
I1
sVthreaten
p2382
I2
sVterritory
p2383
I3
sVdelights
p2384
I1
sVcosmetics
p2385
I1
sValto
p2386
I1
sVdialogue
p2387
I1
sVpacks
p2388
I1
sVimag
p2389
I3
sVelse
p2390
I10
sVdetermination
p2391
I1
sVloom
p2392
I1
sVlook
p2393
I29
sVsocialist
p2394
I2
sVgovernor
p2395
I5
sVpace
p2396
I2
sVwhile
p2397
I52
sVsmart
p2398
I12
sVloot
p2399
I2
sVmitchell
p2400
I2
sVguide
p2401
I1
sVloop
p2402
I1
sVpack
p2403
I10
sVvoters
p2404
I3
sVskype
p2405
I6
sVready
p2406
I4
sVshar
p2407
I4
sVanymore
p2408
I2
sVgrant
p2409
I2
sVbelong
p2410
I1
sV[caption-text]
p2411
I1
sVgrand
p2412
I1
sVconflict
p2413
I8
sVsham
p2414
I1
sVlawyers
p2415
I3
sVdime
p2416
I1
sVbonus
p2417
I1
sVcamera
p2418
I7
sVinflat
p2419
I2
sV000
p2420
I14
sVuser
p2421
I3
sVcrucible
p2422
I1
sVolder
p2423
I2
sVminecraft
p2424
I3
sVcruz
p2425
I1
sVtheology
p2426
I1
sVsettlements
p2427
I1
sVskat
p2428
I2
sVelect
p2429
I3
sVbotch
p2430
I1
sVinformal
p2431
I2
sVbarack
p2432
I1
sVmarco
p2433
I2
sVmarch
p2434
I14
sV[visually-hidden]
p2435
I1
sVgame
p2436
I19
sVdonor
p2437
I1
sVdamage
p2438
I8
sVequity
p2439
I7
sVsignal
p2440
I1
sVstrife
p2441
I1
sVpopular
p2442
I4
sVcompensat
p2443
I1
sVterminology
p2444
I1
sVfathers
p2445
I1
sVcreation
p2446
I2
sVsome
p2447
I42
sVoutnumber
p2448
I1
sVurgent
p2449
I2
sVeconomic
p2450
I7
sVimpoverish
p2451
I1
sVfanfare
p2452
I1
sVsimmer
p2453
I3
sVminimal
p2454
I8
sVrun
p2455
I17
sVrul
p2456
I7
sVreach
p2457
I11
sVgmat
p2458
I1
sVkimbis
p2459
I1
sVstep
p2460
I2
sVassists
p2461
I1
sVonenote
p2462
I1
sVabroad
p2463
I3
sVfaith
p2464
I1
sVidp
p2465
I1
sVblock
p2466
I1
sVdisclosure
p2467
I3
sVdetectiv
p2468
I1
sVwithin
p2469
I8
sVpentagon
p2470
I2
sVrolls
p2471
I1
sVstatistics
p2472
I1
sVcomputer
p2473
I11
sVaccountability
p2474
I3
sVheritage
p2475
I3
sVamaz
p2476
I1
sVeons
p2477
I1
sVhimself
p2478
I6
sVspecialty
p2479
I1
sVlarry
p2480
I1
sVhail
p2481
I1
sVdrifters
p2482
I7
sVsimilar
p2483
I8
sVadults
p2484
I2
sVdoesn
p2485
I16
sVcotton
p2486
I2
sVamounts
p2487
I2
sVtitl
p2488
I6
sVfears
p2489
I1
sVnam
p2490
I8
sVhoopla
p2491
I1
sVnat
p2492
I1
sVdepartment
p2493
I1
sVmanhattan
p2494
I2
sVdraw
p2495
I3
sVspectators
p2496
I1
sVdrap
p2497
I1
sVfewest
p2498
I1
sVresign
p2499
I1
sVwilliam
p2500
I8
sVmilitants
p2501
I2
sVstructure
p2502
I2
sVe
p2503
I13
sVtailpipe
p2504
I1
sVdepth
p2505
I2
sVgarrett
p2506
I2
sVproposition
p2507
I2
sVgo
p2508
I60
sVradiochemistry
p2509
I1
sVarrogance
p2510
I1
sVaris
p2511
I1
sVfacebook
p2512
I3
sVgurley
p2513
I1
sVpositions
p2514
I1
sVbutton
p2515
I3
sVmichael
p2516
I12
sVryan
p2517
I2
sVverdict
p2518
I1
sVepstein
p2519
I1
sVestimat
p2520
I4
sVbarbara
p2521
I1
sVenforce
p2522
I1
sVconfigurations
p2523
I1
sVriyadh
p2524
I1
sVjump
p2525
I2
sVbooth
p2526
I1
sVdownload
p2527
I2
sVclick
p2528
I1
sVplays
p2529
I3
sVexperiment
p2530
I1
sVvolatile
p2531
I1
sVcollins
p2532
I1
sV;
p2533
I23
sVshoreline
p2534
I1
sVstance
p2535
I1
sVcommercial
p2536
I3
sVbecom
p2537
I6
sVconvert
p2538
I2
sVchant
p2539
I1
sVsuburbanit
p2540
I1
sVproducts
p2541
I12
sVchang
p2542
I11
sVgene
p2543
I1
sVchanc
p2544
I1
sVdanger
p2545
I3
sVwin
p2546
I1
sVmanage
p2547
I10
sVevacuations
p2548
I1
sVwir
p2549
I1
sVcloud
p2550
I3
sVcrav
p2551
I1
sVaspirants
p2552
I1
sVconnery
p2553
I2
sVremains
p2554
I3
sVrandy
p2555
I1
sVvehicle
p2556
I4
sVjonathan
p2557
I2
sVcheeks
p2558
I1
sVretribution
p2559
I1
sVappointee
p2560
I1
sVretriev
p2561
I8
sVsanctions
p2562
I6
sVride
p2563
I2
sVsalar
p2564
I2
sVdropp
p2565
I2
sVmeet
p2566
I12
sVnurture
p2567
I1
sVdrops
p2568
I1
sVcontrol
p2569
I5
sVlinks
p2570
I1
sS'<address>'
p2571
I1
sVsought
p2572
I9
sVskirt
p2573
I1
sVoverse
p2574
I1
sVcircular
p2575
I1
sVfinanc
p2576
I2
sV[el__image--standard]
p2577
I1
sVtimekeep
p2578
I1
sS'<h4>'
p2579
I9
sVnewsworthy
p2580
I1
sVfamous
p2581
I3
sVpowerpoint
p2582
I1
sVclaire
p2583
I1
sVbyproducts
p2584
I1
sVwon't
p2585
I1
sVhelicopters
p2586
I16
sVouter
p2587
I1
sVexclusion
p2588
I1
sVguerrilla
p2589
I2
sVbrook
p2590
I4
sVhim
p2591
I23
sVovechkin
p2592
I1
sVhandl
p2593
I3
sVrelentless
p2594
I1
sVhands
p2595
I1
sVfront
p2596
I5
sVnajma
p2597
I1
sVimpresario
p2598
I1
sVchronic
p2599
I1
sVfundraisers
p2600
I1
sVuniversity
p2601
I15
sVguard
p2602
I2
sS'<p>'
p2603
I820
sVmagnitude
p2604
I1
sVmode
p2605
I1
sVilluminate
p2606
I1
sVmap
p2607
I1
sVchunk
p2608
I1
sV700
p2609
I3
sVconstitute
p2610
I1
sVinverter
p2611
I1
sVmargins
p2612
I2
sVrelegat
p2613
I1
sVspecial
p2614
I4
sVcritics
p2615
I9
sVactivist
p2616
I1
sVcause
p2617
I1
sVreacts
p2618
I1
sV70s
p2619
I2
sVadvisor
p2620
I1
sV1980
p2621
I1
sVroute
p2622
I1
sV1981
p2623
I3
sVflorida
p2624
I8
sVtimer
p2625
I1
sVkeep
p2626
I13
sVwonks
p2627
I1
sVevans
p2628
I5
sVblogger
p2629
I1
sVpowerful
p2630
I2
sVbars
p2631
I8
sVdate
p2632
I1
sVdisapproval
p2633
I1
sVremak
p2634
I1
sVstump
p2635
I1
sVquality
p2636
I1
sVprivacy
p2637
I1
sVrespond
p2638
I8
sVankle
p2639
I1
sVfinal
p2640
I8
sVpunish
p2641
I2
sVherself
p2642
I4
sVwaist
p2643
I1
sVphotograph
p2644
I1
sVben
p2645
I1
sVaspiration
p2646
I1
sVdefense
p2647
I5
sVbare
p2648
I2
sVpeacebuild
p2649
I2
sVspurs
p2650
I3
sVjourney
p2651
I1
sVjulian
p2652
I1
sVneed
p2653
I10
sVtabb
p2654
I1
sVborder
p2655
I3
sVable
p2656
I8
sVinstance
p2657
I1
sVsingh
p2658
I1
sVsingl
p2659
I1
sVlecturer
p2660
I1
sVfuels
p2661
I2
sVradioact
p2662
I4
sVdeploy
p2663
I3
sVvengeance
p2664
I1
sVdubb
p2665
I1
sVcellphone
p2666
I1
sVplumber
p2667
I1
sVurg
p2668
I1
sVeject
p2669
I1
sVupset
p2670
I2
sVbrought
p2671
I6
sVinde
p2672
I1
sVviolation
p2673
I1
sVcrate
p2674
I1
sVsoldiers
p2675
I1
sVpartners
p2676
I10
sVcandidacy
p2677
I1
sVngo
p2678
I1
sVmillennia
p2679
I1
sVmadhav
p2680
I1
sVemployer
p2681
I1
sVmanufactur
p2682
I1
sVearner
p2683
I2
sVarabian
p2684
I4
sVfuel
p2685
I2
sVachieve
p2686
I3
sVmichigan
p2687
I2
sVoverall
p2688
I3
sVjoint
p2689
I4
sVlegitimate
p2690
I3
sVjoins
p2691
I1
sV128
p2692
I2
sVcutt
p2693
I1
sVevolution
p2694
I1
sVenabl
p2695
I4
sVtrucks
p2696
I18
sVgust
p2697
I1
sVshe
p2698
I45
sVcontain
p2699
I2
sVsho
p2700
I9
sVlegacy
p2701
I1
sVdesperate
p2702
I2
sVtend
p2703
I4
sVwritten
p2704
I3
sVsupernatural
p2705
I1
sVtens
p2706
I2
sVneither
p2707
I1
sVzeitgeist
p2708
I1
sVcomparable
p2709
I1
sVkel
p2710
I5
sVimportance
p2711
I2
sVkec
p2712
I1
sVcriticiz
p2713
I2
sVkey
p2714
I3
sVgroup
p2715
I46
sVeclips
p2716
I1
sVker
p2717
I2
sVmonitor
p2718
I4
sVhits
p2719
I1
sVlimits
p2720
I1
sVcareer
p2721
I8
sVtrove
p2722
I1
sVadmit
p2723
I1
sVjersey
p2724
I2
sVdominique
p2725
I1
sVtuesday
p2726
I19
sVsolv
p2727
I3
sVaddition
p2728
I1
sVdiscrimination
p2729
I2
sVwills
p2730
I1
sVcent
p2731
I2
sVimmense
p2732
I1
sVliberals
p2733
I1
sVkalay
p2734
I1
sVtreat
p2735
I6
sVhernandez
p2736
I2
sVshoulders
p2737
I1
sVboth
p2738
I13
sVvince
p2739
I1
sVexpenditure
p2740
I1
sVshameless
p2741
I1
sV[cap]
p2742
I2
sV[inline-video]
p2743
I1
sVharder
p2744
I1
sVgucci
p2745
I1
sVbrainer
p2746
I1
sVowns
p2747
I1
sVexaminer
p2748
I3
sVbuckl
p2749
I1
sVresident
p2750
I2
sVdemo
p2751
I1
sVsurface
p2752
I5
sVrevis
p2753
I1
sVwelcom
p2754
I1
sVbegan
p2755
I9
sVupside
p2756
I1
sVparts
p2757
I1
sVspeaker
p2758
I1
sVparty
p2759
I4
sVhttp
p2760
I5
sVpromoters
p2761
I1
sVabsorb
p2762
I1
sVboxers
p2763
I2
sVeffect
p2764
I5
sVdestruction
p2765
I1
sVpaycheck
p2766
I1
sVadvocat
p2767
I3
sVi
p2768
I108
sVwell
p2769
I33
sVdrone
p2770
I1
sVcorporation
p2771
I1
sVdraconian
p2772
I1
sVmistaken
p2773
I1
sVdose
p2774
I1
sVdistant
p2775
I2
sVvirtual
p2776
I7
sVcoordination
p2777
I2
sVdistress
p2778
I1
sV000s
p2779
I1
sVpatricia
p2780
I1
sVkick
p2781
I2
sVfata
p2782
I1
sVdefinitive
p2783
I1
sVfate
p2784
I2
sVutah
p2785
I1
sVsnowstorm
p2786
I8
sVhistoric
p2787
I2
sVintersection
p2788
I1
sVprominent
p2789
I1
sVpacheco
p2790
I1
sVlost
p2791
I4
sVgangsters
p2792
I1
sVnecessari
p2793
I2
sVmartin
p2794
I1
sVpage
p2795
I2
sVcertain
p2796
I10
sVrepeat
p2797
I1
sVhome
p2798
I23
sVpeter
p2799
I3
sVfactional
p2800
I1
sVbroad
p2801
I3
sV?
p2802
I39
sVencourag
p2803
I3
sVjournal
p2804
I3
sVexpansion
p2805
I1
sV[story-content]
p2806
I342
sVrefuge
p2807
I1
sVfreedom
p2808
I2
sVtongue
p2809
I1
sVwashington
p2810
I16
sVwildstein
p2811
I5
sVutility
p2812
I3
sVadditional
p2813
I3
sVwhom
p2814
I1
sVmuseum
p2815
I2
sVnorth
p2816
I7
sVabductions
p2817
I1
sVhq
p2818
I1
sVxerox
p2819
I1
sVevacuate
p2820
I2
sVtapers
p2821
I1
sVgain
p2822
I1
sVtechnician
p2823
I2
sVear
p2824
I14
sVdur
p2825
I39
sVrahul
p2826
I1
sVsucce
p2827
I2
sVdisplac
p2828
I4
sVlimit
p2829
I2
sVpiece
p2830
I1
sVdisplay
p2831
I5
sVmarketplace
p2832
I1
sVdevise
p2833
I1
sVuniversal
p2834
I1
sVerin
p2835
I1
sVeducation
p2836
I13
sVfunctions
p2837
I2
sVcontest
p2838
I3
sVdropout
p2839
I2
sVstat
p2840
I10
sVstar
p2841
I1
sVrayna
p2842
I1
sVstay
p2843
I8
sVstag
p2844
I2
sVoverinvest
p2845
I1
sVfriends
p2846
I5
sVstak
p2847
I1
sVappoint
p2848
I1
sVshuns
p2849
I1
sVpersistent
p2850
I1
sVportion
p2851
I3
sVstudents
p2852
I26
sVdynamic
p2853
I1
sVasian
p2854
I1
sVwhose
p2855
I6
sVcalculate
p2856
I1
sVdisability
p2857
I1
sVpresents
p2858
I1
sVsorry
p2859
I1
sVcollaborate
p2860
I1
sVinternet
p2861
I1
sVvoic
p2862
I1
sVflashpoint
p2863
I1
sVgovern
p2864
I19
sVaffect
p2865
I5
sVvast
p2866
I2
sVcrops
p2867
I1
sVsolution
p2868
I3
sVconvenience
p2869
I1
sVups
p2870
I2
sVforce
p2871
I17
sVeven
p2872
I48
sVwreck
p2873
I1
sVlightn
p2874
I1
sVtranscrib
p2875
I1
sVspokesman
p2876
I25
sVtipp
p2877
I1
sVnet
p2878
I5
sVever
p2879
I11
sVostensib
p2880
I1
sV[el__leafmedia]
p2881
I2
sVniche
p2882
I1
sVenvelop
p2883
I1
sVnever
p2884
I13
sVdrew
p2885
I2
sVmet
p2886
I4
sVmunson
p2887
I1
sVnanny
p2888
I1
sVwearabl
p2889
I1
sV100
p2890
I5
sVaren't
p2891
I1
sVdry
p2892
I1
sVjams
p2893
I2
sVrests
p2894
I1
sVeconomics
p2895
I3
sVcredit
p2896
I2
sVpermit
p2897
I17
sVjamm
p2898
I1
sVmenial
p2899
I1
sVjoshua
p2900
I1
sVcampaign
p2901
I16
sVarguab
p2902
I1
sVninety
p2903
I2
sVmoral
p2904
I1
sVoverstuff
p2905
I1
sVcounts
p2906
I5
sVcountr
p2907
I3
sVarmy
p2908
I1
sVarms
p2909
I1
sVleaks
p2910
I1
sVoverhead
p2911
I2
sVcalm
p2912
I1
sVtype
p2913
I3
sVtell
p2914
I8
sVbreeders
p2915
I1
sVexpose
p2916
I1
sVwars
p2917
I2
sVwarn
p2918
I2
sVward
p2919
I1
sVroom
p2920
I6
sVrights
p2921
I8
sVsetup
p2922
I2
sVroof
p2923
I1
sVroot
p2924
I1
sVdefer
p2925
I1
sVmumford
p2926
I2
sVinvolve
p2927
I4
sVpolic
p2928
I5
sVconfin
p2929
I1
sVanswer
p2930
I9
sVupdat
p2931
I1
sVminority
p2932
I1
sVloyalty
p2933
I1
sVpresident
p2934
I28
sVpurchase
p2935
I2
sVauthoritat
p2936
I1
sVattempt
p2937
I1
sVthird
p2938
I7
sVmaintain
p2939
I3
sVcapitalist
p2940
I1
sVoperate
p2941
I2
sVoperations
p2942
I5
sVpossib
p2943
I1
sVunfolds
p2944
I1
sVfift
p2945
I1
sVkeyboard
p2946
I1
sVbefore
p2947
I22
sVingratiat
p2948
I1
sV,
p2949
I671
sVbetter
p2950
I18
sVhudood
p2951
I1
sVweeks
p2952
I4
sVdonors
p2953
I3
sVcornerback
p2954
I1
sVcombination
p2955
I2
sVleiber
p2956
I2
sVweakness
p2957
I1
sV[descender]
p2958
I2
sVwelterweight
p2959
I3
sVpromis
p2960
I3
sVdownright
p2961
I1
sVrhetoric
p2962
I1
sV[layout-large-horizontal]
p2963
I1
sVwage
p2964
I5
sVwent
p2965
I16
sVside
p2966
I9
sVbone
p2967
I1
sVbond
p2968
I6
sVmarital
p2969
I1
sVcarry
p2970
I2
sVtaught
p2971
I1
sVnavy
p2972
I1
sVtemporary
p2973
I2
sVextract
p2974
I1
sVcontend
p2975
I3
sVvideotape
p2976
I2
sVcrucial
p2977
I4
sVsurprise
p2978
I3
sVstruggle
p2979
I1
sVstarts
p2980
I4
sVisn
p2981
I7
sVloud
p2982
I2
sVstewart
p2983
I1
sVeconomists
p2984
I2
sVfloors
p2985
I1
sVagre
p2986
I5
sVgrads
p2987
I1
sVsometim
p2988
I11
sVoutag
p2989
I1
sVinflow
p2990
I1
sVpowerwall
p2991
I2
sVhelen
p2992
I1
sVprinceton
p2993
I1
sVpreparation
p2994
I1
sVmatter
p2995
I7
sVsolomon
p2996
I1
sVbeginn
p2997
I3
sVnadella
p2998
I23
sVmodern
p2999
I4
sVmind
p3000
I3
sVseen
p3001
I2
sVseem
p3002
I8
sVchurn
p3003
I1
sVseek
p3004
I3
sVtells
p3005
I4
sVkarman
p3006
I1
sVwrists
p3007
I1
sVtranslator
p3008
I2
sVregular
p3009
I5
sVmarie
p3010
I2
sVmaria
p3011
I1
sVbroadcast
p3012
I1
sVdon
p3013
I54
sVdoo
p3014
I1
sVdoc
p3015
I1
sVmedical
p3016
I12
sVm
p3017
I59
sVdog
p3018
I1
sVcompetitors
p3019
I2
sVpoints
p3020
I5
sVdos
p3021
I1
sVpropos
p3022
I2
sVconsumer
p3023
I4
sV[footnoteBackLink]
p3024
I1
sVvisitor
p3025
I1
sVretire
p3026
I1
sVbrilliance
p3027
I1
sVnevada
p3028
I1
sVacquir
p3029
I1
sVpledg
p3030
I1
sVexplain
p3031
I8
sVsugar
p3032
I2
sVfolks
p3033
I2
sVhoard
p3034
I1
sVmonica
p3035
I1
sVexports
p3036
I1
sVabove
p3037
I3
sVstop
p3038
I12
sVstor
p3039
I7
sVcoast
p3040
I5
sVcomply
p3041
I1
sVearl
p3042
I1
sVearn
p3043
I6
sVbar
p3044
I4
sVbas
p3045
I14
sVshaughnessy
p3046
I1
sVbad
p3047
I5
sVtroop
p3048
I1
sVgigafactory
p3049
I1
sVethical
p3050
I3
sVreference
p3051
I1
sV[story-notes]
p3052
I4
sVsubject
p3053
I4
sVsaid
p3054
I257
sVscrap
p3055
I1
sVpets
p3056
I1
sVcredo
p3057
I1
sVharvard
p3058
I10
sV385
p3059
I1
sVuncertainty
p3060
I3
sVagainst
p3061
I20
sVernst
p3062
I1
sVmonopolize
p3063
I1
sVcobble
p3064
I1
sVofferings
p3065
I2
sVpath
p3066
I3
sVsprings
p3067
I16
sVputt
p3068
I1
sVtint
p3069
I1
sVasks
p3070
I3
sVbasis
p3071
I1
sVthree
p3072
I22
sVerect
p3073
I1
sVcommission
p3074
I2
sVtrigger
p3075
I1
sVinterest
p3076
I12
sVbasic
p3077
I2
sV[mod-a]
p3078
I2
sVwebsite
p3079
I5
sVdeeper
p3080
I1
sVefficacy
p3081
I1
sVsuppress
p3082
I1
sVdismiss
p3083
I2
sVunpunish
p3084
I1
sVservic
p3085
I2
sVnear
p3086
I23
sVsuppose
p3087
I1
sVbalance
p3088
I2
sVanchor
p3089
I3
sVspawn
p3090
I1
sVbostonians
p3091
I1
sVcane
p3092
I1
sVis
p3093
I254
sVit
p3094
I228
sVshame
p3095
I1
sVaspendailynews
p3096
I5
sVinscrutable
p3097
I1
sVseattle
p3098
I2
sVmouse
p3099
I2
sVdisappear
p3100
I1
sVif
p3101
I65
sVreceiv
p3102
I4
sVmake
p3103
I37
sVmahmud
p3104
I1
sV80s
p3105
I1
sVbells
p3106
I8
sVevolve
p3107
I1
sVdelight
p3108
I1
sVopportunity
p3109
I3
sVhe'll
p3110
I2
sVkid
p3111
I3
sVqualif
p3112
I1
sVprograms
p3113
I7
sVinherit
p3114
I1
sVqualit
p3115
I1
sVmaterials
p3116
I2
sVparadigm
p3117
I2
sVinvestments
p3118
I2
sVleft
p3119
I22
sVidentifi
p3120
I2
sVtawakkol
p3121
I1
sVfighters
p3122
I2
sVidentify
p3123
I1
sVhuman
p3124
I7
sVyet
p3125
I13
sVcandidate
p3126
I5
sVcharacter
p3127
I2
sVpotential
p3128
I5
sVaffinity
p3129
I1
sVsave
p3130
I8
sVinvoluntary
p3131
I6
sVsupervisors
p3132
I1
sVbackground
p3133
I2
sVborderless
p3134
I1
sVshoulder
p3135
I1
sVmanual
p3136
I1
sVplausib
p3137
I2
sVwww
p3138
I5
sVdean
p3139
I6
sVdeal
p3140
I9
sVpacquiao
p3141
I9
sVrepudiate
p3142
I1
sVsomehow
p3143
I1
sVdead
p3144
I18
sVdear
p3145
I1
sVinsensit
p3146
I2
sVoutspoken
p3147
I1
sVdaytime
p3148
I1
sVbold
p3149
I3
sVburn
p3150
I17
sVsuper
p3151
I7
sVchilean
p3152
I1
sVfrailer
p3153
I1
sVmagazine
p3154
I3
sVafternoon
p3155
I5
sVcommit
p3156
I3
sVmanagers
p3157
I3
sVdown
p3158
I41
sVcomplaints
p3159
I2
sV1990s
p3160
I2
sVinitial
p3161
I8
sVinitiat
p3162
I3
sVeditor
p3163
I2
sVhandicapp
p3164
I1
sVform
p3165
I4
sS'<h2>'
p3166
I2
sVfailure
p3167
I3
sVanalyst
p3168
I1
sVfort
p3169
I4
sVpavilion
p3170
I1
sVbuilds
p3171
I1
sVunderstood
p3172
I4
sVasbahi
p3173
I1
sVzari
p3174
I1
sVbenchmarks
p3175
I1
sVmusk
p3176
I5
sVfeatur
p3177
I2
sVclassic
p3178
I4
sVtoss
p3179
I1
sVcovers
p3180
I1
sVship
p3181
I3
sVfraternal
p3182
I2
sVcommunit
p3183
I3
sVfosters
p3184
I1
sVdigital
p3185
I8
sVfelt
p3186
I5
sVfell
p3187
I1
sVweekend
p3188
I7
sVbillion
p3189
I9
sVfemal
p3190
I2
sVapology
p3191
I1
sVsantorum
p3192
I1
sVjacket
p3193
I1
sVbehner
p3194
I2
sVignor
p3195
I2
sVteeth
p3196
I1
sVsouls
p3197
I1
sVinvent
p3198
I1
sVmanager
p3199
I1
sVmile
p3200
I9
sVshot
p3201
I5
sV21st
p3202
I1
sVanticipation
p3203
I1
sVdepend
p3204
I3
sVfather
p3205
I4
sVcountdown
p3206
I1
sV0
p3207
I3
sVadviser
p3208
I2
sVsmartphone
p3209
I2
sVbirchbox
p3210
I1
sVword
p3211
I1
sV1994
p3212
I2
sVdin
p3213
I1
sVdid
p3214
I35
sVdie
p3215
I1
sV1996
p3216
I1
sVexcellence
p3217
I2
sVround
p3218
I5
sVcalculat
p3219
I1
sVtargets
p3220
I1
sVmajors
p3221
I1
sVafghanistan
p3222
I1
sVadds
p3223
I2
sVsuspect
p3224
I1
sV[media]
p3225
I1
sVinternational
p3226
I8
sVtransportation
p3227
I1
sVderiv
p3228
I1
sVguardian
p3229
I1
sVmr
p3230
I99
sVcoincid
p3231
I1
sVearthquake
p3232
I1
sVwait
p3233
I3
sVbox
p3234
I17
sVboy
p3235
I2
sVhbo
p3236
I3
sVinvit
p3237
I2
sVinstitute
p3238
I3
sVshift
p3239
I4
sVbob
p3240
I3
sVnylon
p3241
I1
sVbod
p3242
I4
sVteenage
p3243
I2
sVuseful
p3244
I1
sVevaluat
p3245
I1
sVflexibility
p3246
I1
sVpatriots
p3247
I12
sVverge
p3248
I1
sVeverybody
p3249
I2
sVtroops
p3250
I1
sVimpunity
p3251
I2
sVvisit
p3252
I5
sVscenarios
p3253
I2
sVacceptable
p3254
I2
sVcurriculum
p3255
I3
sVdowntown
p3256
I3
sVtandem
p3257
I1
sVmukalla
p3258
I2
sVeffort
p3259
I5
sVfly
p3260
I1
sVsoul
p3261
I1
sVsouq
p3262
I1
sVsoup
p3263
I1
sVfla
p3264
I1
sVdispute
p3265
I3
sVclaim
p3266
I5
sVsample
p3267
I5
sVcouncil
p3268
I8
sVagenc
p3269
I7
sVsunday
p3270
I2
sVpure
p3271
I1
sV147
p3272
I1
sV140
p3273
I1
sVmay
p3274
I15
sVaccessory
p3275
I1
sVsustainability
p3276
I7
sVmembership
p3277
I1
sVmak
p3278
I22
sVguys
p3279
I2
sVgrow
p3280
I9
sVman
p3281
I12
sVaimless
p3282
I1
sVneck
p3283
I2
sVjohnson
p3284
I1
sVmaybe
p3285
I7
sVtale
p3286
I1
sVswitch
p3287
I2
sVafrican
p3288
I2
sVtall
p3289
I1
sVbungle
p3290
I1
sVtalk
p3291
I7
sVgradual
p3292
I1
sVthresholds
p3293
I1
sVstability
p3294
I1
sVgraduat
p3295
I24
sVarabesque
p3296
I1
sVequip
p3297
I2
sVentitl
p3298
I1
sVsatya
p3299
I2
sVpolice
p3300
I44
sVthank
p3301
I2
sVpolicy
p3302
I8
sVmain
p3303
I5
sVtexas
p3304
I6
sVfinance
p3305
I12
sVviews
p3306
I2
sVsoulful
p3307
I1
sVbeit
p3308
I1
sVlunch
p3309
I3
sVaspirations
p3310
I1
sVworkload
p3311
I1
sVmansur
p3312
I2
sVrock
p3313
I5
sVcontinu
p3314
I8
sVgirl
p3315
I1
sVcorrect
p3316
I3
sVinaction
p3317
I1
sVearlier
p3318
I6
sVheadlin
p3319
I2
sVcalifornia
p3320
I12
sVorg
p3321
I2
sVadvance
p3322
I2
sVlanguage
p3323
I2
sVministry
p3324
I3
sVthink
p3325
I26
sVfrequent
p3326
I3
sVfirst
p3327
I37
sVexotic
p3328
I2
sVcrim
p3329
I2
sVquestion
p3330
I11
sVamericans
p3331
I3
sVfast
p3332
I3
sVoppos
p3333
I4
sVcorporations
p3334
I1
sVsounds
p3335
I2
sVlittle
p3336
I16
sVmeaningful
p3337
I1
sVanyone
p3338
I7
sVgaudy
p3339
I1
sVmemo
p3340
I1
sVblacklist
p3341
I1
sVhillary
p3342
I1
sVteaneck
p3343
I1
sV11
p3344
I4
sV10
p3345
I21
sV13
p3346
I5
sV12
p3347
I11
sV15
p3348
I10
sV14
p3349
I4
sV17
p3350
I4
sV16
p3351
I5
sV19
p3352
I2
sVmidtown
p3353
I1
sVventure
p3354
I4
sVwere
p3355
I69
sVwatchtower
p3356
I1
sV20s
p3357
I1
sVappreciate
p3358
I3
sVconspiracy
p3359
I1
sVkevin
p3360
I1
sVsquar
p3361
I1
sVefficient
p3362
I1
sVjpoa
p3363
I2
sVconsortium
p3364
I1
sVopportunit
p3365
I3
sVsquad
p3366
I1
sVinterior
p3367
I6
sVperformance
p3368
I3
sVchannel
p3369
I1
sVbets
p3370
I1
sV200
p3371
I3
sVinvestigations
p3372
I1
sVtrack
p3373
I5
sVpaid
p3374
I4
sVassault
p3375
I10
sVnolan
p3376
I2
sVpair
p3377
I2
sVcuban
p3378
I1
sVsurprising
p3379
I4
sVprecise
p3380
I2
sVplayoffs
p3381
I2
sVshow
p3382
I15
sVcontemporary
p3383
I1
sVcorner
p3384
I1
sVfend
p3385
I1
sVfenc
p3386
I1
sVplume
p3387
I1
sVbehind
p3388
I4
sVanalytic
p3389
I1
sVblack
p3390
I6
sVtreasury
p3391
I2
sVawareness
p3392
I1
sVget
p3393
I62
sVemployers
p3394
I4
sVrepl
p3395
I2
sVjuleps
p3396
I1
sVgem
p3397
I1
sVtimepiece
p3398
I1
sVmedian
p3399
I1
sVyield
p3400
I1
sVchecks
p3401
I1
sVhonesty
p3402
I1
sVseat
p3403
I2
sVrelative
p3404
I5
sVsean
p3405
I2
sVseal
p3406
I1
sVcalendar
p3407
I1
sVwonder
p3408
I5
sVpuma
p3409
I1
sVlabel
p3410
I3
sVenough
p3411
I21
sVacross
p3412
I16
sVinfrastructure
p3413
I1
sVaugust
p3414
I3
sVparent
p3415
I2
sVparental
p3416
I2
sVju
p3417
I2
sVjr
p3418
I7
sVtun
p3419
I1
sVhighlight
p3420
I2
sVsingers
p3421
I1
sVtour
p3422
I2
sVspare
p3423
I1
sVamong
p3424
I9
sVfarberman
p3425
I3
sVcancer
p3426
I1
sVcustody
p3427
I6
sVarts
p3428
I2
sVcapable
p3429
I1
sVmark
p3430
I5
sVrancher
p3431
I8
sVbmi
p3432
I1
sVdangerous
p3433
I2
sVdramatic
p3434
I4
sVwake
p3435
I1
sVthose
p3436
I32
sVsound
p3437
I3
sVrenewabl
p3438
I1
sVjetpacks
p3439
I1
sVmany
p3440
I41
sVmargin
p3441
I1
sVgurdeep
p3442
I2
sVadvantag
p3443
I3
sVsincere
p3444
I1
sVstrait
p3445
I1
sVcoffee
p3446
I3
sVmiddle
p3447
I4
sVsudden
p3448
I2
sVdifferent
p3449
I13
sVharsh
p3450
I1
sVdoctor
p3451
I1
sVpay
p3452
I10
sVsame
p3453
I22
sVpac
p3454
I5
sVpad
p3455
I1
sVpan
p3456
I1
sVexhaust
p3457
I2
sVjeffrey
p3458
I1
sVassist
p3459
I1
sVdriven
p3460
I3
sVimprov
p3461
I1
sVsemiautonomous
p3462
I1
sVmiddleweight
p3463
I1
sVdrain
p3464
I1
sVconvener
p3465
I1
sVsolve
p3466
I2
sVoutdoor
p3467
I1
sVexecut
p3468
I15
sVmoney
p3469
I16
sVsights
p3470
I1
sVaspect
p3471
I1
sVflavor
p3472
I1
sVwinner
p3473
I3
sVmcdonald
p3474
I1
sVpile
p3475
I1
sV4
p3476
I18
sVheavier
p3477
I2
sVpill
p3478
I2
sVgrit
p3479
I2
sVmov
p3480
I7
sVtemperatur
p3481
I1
sVgrid
p3482
I17
sVimplicate
p3483
I1
sVgrim
p3484
I1
sVgrin
p3485
I1
sVnose
p3486
I2
sVsmartphon
p3487
I4
sVgalvaniz
p3488
I1
sVjoan
p3489
I1
sVgross
p3490
I5
sVconfirm
p3491
I1
sVpioneer
p3492
I1
sVcritical
p3493
I9
sVknife
p3494
I2
sVseconds
p3495
I5
sVunusual
p3496
I1
sVreferr
p3497
I5
sVrefers
p3498
I1
sVregulations
p3499
I1
sVstations
p3500
I1
sVviolence
p3501
I7
sVpockets
p3502
I2
sVroad
p3503
I3
sVcheckup
p3504
I1
sVstrid
p3505
I1
sVdagger
p3506
I1
sVstrik
p3507
I4
sVstrip
p3508
I2
sVjerusalem
p3509
I1
sVlions
p3510
I1
sVmornings
p3511
I1
sV[media-100000003659426]
p3512
I1
sVchatt
p3513
I1
sVbanksy
p3514
I10
sVbuggy
p3515
I1
sVintimidat
p3516
I1
sVreappli
p3517
I1
sVcommonality
p3518
I1
sVwasn't
p3519
I1
sVemissions
p3520
I2
sVpowerless
p3521
I1
sVworklife
p3522
I1
sVconundrum
p3523
I8
sVdeep
p3524
I4
sVfellow
p3525
I2
sVexamine
p3526
I1
sVenable
p3527
I2
sVfile
p3528
I1
sVgenerat
p3529
I4
sVlifetime
p3530
I2
sVfilm
p3531
I9
sVfill
p3532
I7
sVagain
p3533
I11
sVpersonnel
p3534
I2
sVdrivers
p3535
I2
sVfield
p3536
I9
sVcleanup
p3537
I1
sVshelter
p3538
I8
sVimportant
p3539
I13
sVsubmarin
p3540
I1
sVbrands
p3541
I2
sVvideotap
p3542
I3
sVspills
p3543
I1
sVu
p3544
I16
sVresolution
p3545
I2
sVrepresent
p3546
I2
sVfounder
p3547
I1
sVsuburban
p3548
I2
sV141st
p3549
I1
sVchildren
p3550
I18
sVdiffuse
p3551
I1
sVwbal
p3552
I2
sVcoyness
p3553
I1
sVfall
p3554
I15
sVdifference
p3555
I6
sVhinterland
p3556
I1
sVmothers
p3557
I1
sVsaudi
p3558
I3
sVdamper
p3559
I1
sV20th
p3560
I2
sVneighborhood
p3561
I2
sVclinch
p3562
I1
sVzero
p3563
I1
sVlawyer
p3564
I6
sVfurther
p3565
I6
sVgrabb
p3566
I1
sVexcit
p3567
I1
sVdial
p3568
I1
sVabc
p3569
I1
sVassociate
p3570
I5
sVveto
p3571
I2
sVabu
p3572
I5
sVpublic
p3573
I26
sVcohorts
p3574
I1
sVcomponent
p3575
I1
sVranger
p3576
I8
sVbeacon
p3577
I1
sVsimon
p3578
I25
sVvalu
p3579
I1
sVcampaigns
p3580
I3
sV900
p3581
I1
sVbible
p3582
I1
sVprosecutors
p3583
I2
sVairport
p3584
I2
sVdeclin
p3585
I3
sVtransit
p3586
I2
sVafrica
p3587
I1
sVsanction
p3588
I8
sVsuits
p3589
I1
sVestablish
p3590
I4
sVeye
p3591
I1
sVdistinct
p3592
I2
sVdestination
p3593
I1
sVtwo
p3594
I58
sVfuror
p3595
I1
sVdesir
p3596
I2
sVadmissions
p3597
I3
sVparticular
p3598
I9
sVnineteen
p3599
I1
sVtown
p3600
I2
sVdictat
p3601
I1
sVnone
p3602
I5
sVsalesforce
p3603
I2
sVhour
p3604
I11
sVhous
p3605
I1
sVrecall
p3606
I1
sVpatroll
p3607
I1
sVroosevelt
p3608
I1
sVguards
p3609
I1
sVremain
p3610
I7
sVabandon
p3611
I2
sVhormuz
p3612
I1
sVfunders
p3613
I1
sVshare
p3614
I2
sVsuburbia
p3615
I1
sVminimum
p3616
I2
sVnumbers
p3617
I5
sVexplor
p3618
I1
sVhomicide
p3619
I4
sVneeds
p3620
I8
sVcsn
p3621
I1
sVpursu
p3622
I1
sVstir
p3623
I1
sVadvice
p3624
I2
sVblood
p3625
I1
sVfaculty
p3626
I2
sVresponse
p3627
I1
sVbrady
p3628
I2
sVcoal
p3629
I2
sVindustrial
p3630
I1
sVthrough
p3631
I20
sVlava
p3632
I2
sVexistence
p3633
I3
sVsuffer
p3634
I6
sV25
p3635
I4
sV26
p3636
I1
sV27
p3637
I2
sV20
p3638
I6
sV21
p3639
I2
sV22
p3640
I7
sV23
p3641
I3
sV28
p3642
I3
sV29
p3643
I8
sVlate
p3644
I21
sVreuters
p3645
I2
sVspeech
p3646
I3
sVclamor
p3647
I2
sVnaacp
p3648
I2
sVsomeone
p3649
I5
sV[edTag]
p3650
I1
sVmalek
p3651
I1
sVviewers
p3652
I4
sVrestrict
p3653
I3
sVpregnant
p3654
I1
sV2x
p3655
I1
sVmbta
p3656
I2
sVshekels
p3657
I1
sVgender
p3658
I2
sVuniversit
p3659
I1
sVharm
p3660
I2
sVeveryone
p3661
I16
sVhouse
p3662
I6
sVfish
p3663
I2
sVhard
p3664
I20
sVidea
p3665
I6
sVconnect
p3666
I2
sVripple
p3667
I1
sVinsurance
p3668
I3
sVlongtime
p3669
I6
sVprint
p3670
I4
sVlawrence
p3671
I11
sVcommitt
p3672
I4
sVbulls
p3673
I3
sVdifficulty
p3674
I2
sVmembers
p3675
I11
sVrainmakers
p3676
I1
sVbenefits
p3677
I7
sVcomputers
p3678
I3
sVtrickle
p3679
I1
sVcoulter
p3680
I1
sVjuncture
p3681
I1
sVdone
p3682
I20
sVwager
p3683
I1
sVdivorce
p3684
I1
sVkoc
p3685
I1
sVleast
p3686
I23
sVmilitant
p3687
I2
sVpaint
p3688
I5
sV180
p3689
I1
sV122nd
p3690
I1
sVpark
p3691
I1
sVpart
p3692
I31
sVbelieve
p3693
I13
sVb
p3694
I30
sVgotten
p3695
I1
sVyouth
p3696
I1
sV2020
p3697
I1
sVsupposed
p3698
I1
sVdeclare
p3699
I1
sVplead
p3700
I2
sVmeltdown
p3701
I1
sVconfirms
p3702
I1
sVorders
p3703
I2
sVbuilt
p3704
I1
sVblanco
p3705
I1
sVfoxborough
p3706
I1
sVcouch
p3707
I1
sVmajority
p3708
I3
sVcaesar
p3709
I3
sVbuild
p3710
I19
sVprovince
p3711
I2
sVpatterson
p3712
I2
sVsalmon
p3713
I1
sS'<ol>'
p3714
I2
sV[span]
p3715
I1
sVmost
p3716
I34
sVsignificant
p3717
I8
sVcharg
p3718
I19
sVhumanitarian
p3719
I2
sVweigh
p3720
I2
sVsector
p3721
I2
sVthomas
p3722
I1
sVofficers'
p3723
I1
sVobligations
p3724
I2
sVtuesdays
p3725
I1
sVfind
p3726
I17
sVambit
p3727
I4
sVmerger
p3728
I1
sVnervous
p3729
I4
sVeruptions
p3730
I2
sVoverride
p3731
I1
sV8
p3732
I2
sVprowess
p3733
I1
sVpermission
p3734
I2
sVcheaper
p3735
I2
sVbatter
p3736
I12
sVresolve
p3737
I1
sVremove
p3738
I18
sVcommon
p3739
I3
sVgospel
p3740
I1
sVdigitals
p3741
I1
sVbiannual
p3742
I1
sVindividual
p3743
I3
sVrepairs
p3744
I1
sVexpert
p3745
I1
sVsometh
p3746
I7
sVmerrimack
p3747
I1
sVdebat
p3748
I1
sVfans
p3749
I3
sVsmallest
p3750
I1
sVchampagne
p3751
I1
sVhistorical
p3752
I1
sVaircraft
p3753
I1
sVlightness
p3754
I2
sVmarilyn
p3755
I3
sVannual
p3756
I7
sVbaltimore
p3757
I19
sVconsume
p3758
I1
sVpoint
p3759
I15
sVtennessee
p3760
I1
sVshutdown
p3761
I1
sVsupple
p3762
I1
sVexpensive
p3763
I1
sVraise
p3764
I7
sVcreate
p3765
I5
sVsecret
p3766
I8
sVslipp
p3767
I1
sVgat
p3768
I1
sVgas
p3769
I4
sVgap
p3770
I3
sVgam
p3771
I3
sVunderstand
p3772
I6
sVevangelical
p3773
I1
sVpolitician
p3774
I1
sS'<cite>'
p3775
I3
sVsolid
p3776
I8
sVbill
p3777
I10
sVelections
p3778
I2
sVmissteps
p3779
I1
sVunifi
p3780
I2
sVfun
p3781
I3
sVful
p3782
I7
sVcentury
p3783
I6
sVitself
p3784
I8
sVtelecasts
p3785
I1
sVbenign
p3786
I1
sVemphasize
p3787
I2
sVstripp
p3788
I1
sVyesterday
p3789
I2
sVdesks
p3790
I1
sVhusbands
p3791
I1
sVpurpose
p3792
I1
sVswimm
p3793
I1
sVunveil
p3794
I1
sVtask
p3795
I5
sVspent
p3796
I2
sVflags
p3797
I1
sVy
p3798
I7
sVorganization
p3799
I7
sVprotrud
p3800
I1
sVspend
p3801
I11
sVprevention
p3802
I1
sVhastings
p3803
I1
sV1961
p3804
I1
sV1962
p3805
I1
sVguant
p3806
I1
sVatco
p3807
I1
sVdiscipline
p3808
I1
sVcut
p3809
I1
sVcup
p3810
I1
sS'<footer>'
p3811
I4
sVdeputy
p3812
I3
sVpersuad
p3813
I4
sVkinect
p3814
I1
sVsource
p3815
I2
sVterris
p3816
I1
sVpreferenc
p3817
I1
sVbrainstorm
p3818
I1
sVluncheonette
p3819
I1
sVbil
p3820
I1
sVbig
p3821
I21
sVrebound
p3822
I1
sVhatch
p3823
I1
sVdisplace
p3824
I1
sVmatters
p3825
I3
sVbit
p3826
I7
sVanandtech
p3827
I1
sV[figure]
p3828
I1
sV[meta-classifier]
p3829
I1
sVgoogle
p3830
I8
sVoften
p3831
I16
sVextremism
p3832
I3
sVback
p3833
I24
sVextremist
p3834
I1
sVstrongest
p3835
I2
sVmirror
p3836
I2
sVscale
p3837
I7
sVpet
p3838
I1
sVdecision
p3839
I6
sVpep
p3840
I1
sVintegration
p3841
I2
sVper
p3842
I5
sVnewark
p3843
I1
sVdistracts
p3844
I1
sVlark
p3845
I1
sVeither
p3846
I11
sV300
p3847
I2
sVimpos
p3848
I1
sVfec
p3849
I2
sVgoods
p3850
I2
sVjessen
p3851
I2
sVgraduation
p3852
I1
sVmartinez
p3853
I2
sVsteven
p3854
I5
sVlesson
p3855
I2
sV[flex-embed]
p3856
I1
sVinclud
p3857
I19
sVforward
p3858
I6
sVtranslate
p3859
I1
sVspecifical
p3860
I1
sV[aside]
p3861
I2
sVinvite
p3862
I1
sVbyrne
p3863
I1
sVmurphy
p3864
I1
sVimmigration
p3865
I1
sVboys
p3866
I3
sVtranslat
p3867
I1
sVswitchboard
p3868
I1
sVsubsidiary
p3869
I1
sVmavericks
p3870
I1
sVplanet
p3871
I4
sVexploration
p3872
I1
sVskittish
p3873
I1
sVrecognition
p3874
I1
sVcurv
p3875
I1
sVsort
p3876
I3
sVpartition
p3877
I1
sVconstant
p3878
I1
sVflow
p3879
I1
sVutilit
p3880
I1
sVsingle
p3881
I3
sVcurb
p3882
I1
sVpsychoanalysis
p3883
I1
sVdeadpann
p3884
I2
sVkirk
p3885
I1
sVfunctionality
p3886
I1
sVllanquihue
p3887
I1
sVaccidental
p3888
I1
sVlend
p3889
I1
sVcopblock
p3890
I1
sVlens
p3891
I3
sVrepresentat
p3892
I1
sVdesert
p3893
I2
sVdeserv
p3894
I1
sVbankers
p3895
I1
sV2002
p3896
I1
sV2003
p3897
I1
sV2000
p3898
I1
sV2006
p3899
I1
sV2007
p3900
I1
sV2004
p3901
I7
sV2005
p3902
I3
sV2008
p3903
I1
sV2009
p3904
I2
sVtube
p3905
I1
sVminors
p3906
I1
sVsensit
p3907
I1
sVrivalry
p3908
I1
sVsuave
p3909
I1
sVhelps
p3910
I5
sVofficials
p3911
I22
sVmaryland
p3912
I3
sVfatal
p3913
I3
sVnervousness
p3914
I1
sVdisclos
p3915
I1
sVsurgeon
p3916
I2
sVlegos
p3917
I1
sVentire
p3918
I3
sVnotabl
p3919
I1
sVjoel
p3920
I1
sVshock
p3921
I1
sVmin
p3922
I1
sVcoordinat
p3923
I2
sVtolmach
p3924
I1
sVvisualiz
p3925
I1
sVmural
p3926
I6
sVrivers
p3927
I1
sVedison
p3928
I1
sVchicago
p3929
I5
sVaccess
p3930
I4
sVcondominium
p3931
I1
sVbody
p3932
I5
sVjustification
p3933
I1
sVexchange
p3934
I1
sVindustr
p3935
I2
sVpeggy
p3936
I1
sVbachelor
p3937
I4
sVobjects
p3938
I2
sVothers
p3939
I5
sVsing
p3940
I3
sV38
p3941
I2
sVtalent
p3942
I2
sV33
p3943
I1
sV32
p3944
I5
sV30
p3945
I12
sV37
p3946
I1
sV36
p3947
I1
sV35
p3948
I2
sV34
p3949
I5
sVhonor
p3950
I3
sVprivate
p3951
I15
sVmanny
p3952
I3
sVscandal
p3953
I1
sVresolutions
p3954
I1
sVstaple
p3955
I1
sVseamless
p3956
I2
sVnobel
p3957
I1
sV[image]
p3958
I1
sVtrail
p3959
I2
sVtrain
p3960
I5
sViii
p3961
I1
sVhints
p3962
I1
sVaccount
p3963
I5
sVinclinations
p3964
I1
sVf
p3965
I18
sV840
p3966
I2
sVobvious
p3967
I8
sVemploye
p3968
I7
sVcontempt
p3969
I1
sVsurfac
p3970
I1
sVdemocracy
p3971
I1
sVawkwardness
p3972
I1
sVholds
p3973
I2
sVwinners
p3974
I1
sVforest
p3975
I49
sVcontrasts
p3976
I1
sVrevs
p3977
I1
sVstock
p3978
I3
sVbuildings
p3979
I3
sVwaters
p3980
I2
sVleukemia
p3981
I1
sVcollection
p3982
I1
sVfray
p3983
I1
sVbind
p3984
I1
sVsit
p3985
I5
sVliner
p3986
I1
sVchief
p3987
I19
sVfac
p3988
I3
sVgeopolitics
p3989
I1
sVmeter
p3990
I2
sVlands
p3991
I8
sVhorns
p3992
I1
sVagricultural
p3993
I1
sVbridget
p3994
I1
sVbrian
p3995
I10
sVll
p3996
I8
sVli
p3997
I1
sVlt
p3998
I2
sVcriminal
p3999
I3
sVly
p4000
I9
sVdad
p4001
I2
sVgreater
p4002
I2
sVdan
p4003
I1
sVdai
p4004
I6
sVdat
p4005
I1
sVmention
p4006
I4
sVmandate
p4007
I1
sVsurviv
p4008
I2
sVday
p4009
I29
sVpreschool
p4010
I2
sVfebruary
p4011
I6
sVthrill
p4012
I2
sV[js__image--standard]
p4013
I1
sVelus
p4014
I1
sVsalesman
p4015
I1
sVrez
p4016
I1
sVmatt
p4017
I2
sVrep
p4018
I1
sVcasios
p4019
I2
sVfarm
p4020
I1
sVstud
p4021
I6
sVelectronics
p4022
I1
sVdefens
p4023
I4
sVpayroll
p4024
I2
sV589
p4025
I4
sVgaug
p4026
I1
sVreleas
p4027
I10
sVlikelihood
p4028
I2
sVinteraction
p4029
I3
sVyard
p4030
I1
sVghraib
p4031
I2
sVchicken
p4032
I1
sVbarriers
p4033
I2
sVretain
p4034
I1
sVrunn
p4035
I7
sVsouth
p4036
I5
sVsack
p4037
I1
sVstrategic
p4038
I1
sVimprovements
p4039
I8
sVhurdle
p4040
I1
sVwarships
p4041
I1
sVestablishments
p4042
I1
sVpalestine
p4043
I1
sVcabin
p4044
I48
sVpreakness
p4045
I1
sVgear
p4046
I2
sVexplanation
p4047
I2
sVnobody
p4048
I1
sVenvironmental
p4049
I6
sVreaffirm
p4050
I2
sVipad
p4051
I1
sVstructur
p4052
I2
sVcompensation
p4053
I2
sVlover
p4054
I1
sVcomfortable
p4055
I1
sVhave
p4056
I143
sVdisturbing
p4057
I1
sVturn
p4058
I25
sVdemonstration
p4059
I2
sVcontinents
p4060
I1
sVmil
p4061
I1
sVdallas
p4062
I1
sVgravity
p4063
I1
sVconcerns
p4064
I1
sV325
p4065
I1
sVautocratic
p4066
I1
sVunless
p4067
I2
sVprocure
p4068
I2
sVeight
p4069
I4
sVprisoner
p4070
I2
sVtranscript
p4071
I1
sVlandscap
p4072
I1
sVgather
p4073
I1
sVgraphs
p4074
I2
sVoccasion
p4075
I3
sVmi6
p4076
I1
sVselection
p4077
I1
sVtext
p4078
I2
sVhomeowner
p4079
I1
sVthicker
p4080
I2
sVstaff
p4081
I5
sVknowledge
p4082
I1
sVwith
p4083
I174
sVcontrols
p4084
I1
sVbeat
p4085
I2
sVincreas
p4086
I9
sVjapan
p4087
I3
sVareas
p4088
I12
sVteams
p4089
I6
sVexists
p4090
I1
sVnational
p4091
I25
sVwe
p4092
I64
sVdislodge
p4093
I8
sVcollaborat
p4094
I3
sVreform
p4095
I3
sVbrunt
p4096
I1
sVroutine
p4097
I1
sVprogress
p4098
I4
sVdeliver
p4099
I5
sVjoke
p4100
I1
sVequal
p4101
I2
sVtrips
p4102
I1
sVassure
p4103
I1
sVinstanc
p4104
I1
sValeuy
p4105
I1
sVotherwise
p4106
I1
sVrelevant
p4107
I2
sVguidelin
p4108
I2
sVlaugh
p4109
I2
sVfukushima
p4110
I6
sVattende
p4111
I1
sVag
p4112
I3
sV[feat-pq]
p4113
I2
sVgaza
p4114
I10
sVcurtail
p4115
I1
sVgoddess
p4116
I5
sVburrard
p4117
I1
sVplayer
p4118
I3
sVbull
p4119
I2
sVglitzy
p4120
I1
sVvolunteer
p4121
I1
sVmulti
p4122
I1
sVatmospheric
p4123
I1
sVsplits
p4124
I1
sVap
p4125
I1
sVappearance
p4126
I1
sVvalue
p4127
I7
sVdefin
p4128
I1
sVentrepreneurial
p4129
I3
sVjeanette
p4130
I1
sValmost
p4131
I11
sVarrangements
p4132
I3
sVarabia
p4133
I4
sVpartner
p4134
I4
sVportray
p4135
I1
sVproductivity
p4136
I3
sVadministration
p4137
I14
sVshuttle
p4138
I1
sVcommodit
p4139
I1
sVpowell
p4140
I1
sVprais
p4141
I9
sVmaterial
p4142
I3
sVcubic
p4143
I2
sVsisters
p4144
I2
sVfrancisco
p4145
I3
sVcenter
p4146
I10
sVnevertheless
p4147
I1
sVseth
p4148
I1
sVantonio
p4149
I1
sVthought
p4150
I15
sVsets
p4151
I2
sVposition
p4152
I1
sVmuscle
p4153
I1
sVsoviet
p4154
I1
sVusual
p4155
I4
sVproximity
p4156
I2
sVambition
p4157
I1
sVdomestic
p4158
I1
sVtone
p4159
I3
sVlake
p4160
I1
sVbench
p4161
I1
sVadd
p4162
I15
sVincorporations
p4163
I1
sVcitizen
p4164
I2
sV280
p4165
I1
sVadl
p4166
I1
sVought
p4167
I1
sVtests
p4168
I1
sVrealiz
p4169
I1
sVlike
p4170
I58
sVsuccess
p4171
I6
sVhousekeeper
p4172
I1
sVkhyber
p4173
I3
sVworks
p4174
I4
sVsoft
p4175
I2
sVbecquerels
p4176
I3
sVauthority
p4177
I5
sVhair
p4178
I1
sVproper
p4179
I4
sV[story-print-citation]
p4180
I1
sVhappens
p4181
I3
sVbulbous
p4182
I1
sVcorpse
p4183
I1
sVappreciat
p4184
I1
sVdiscretion
p4185
I1
sVeconomical
p4186
I2
sVregain
p4187
I1
sVstellar
p4188
I1
sVlieutenant
p4189
I1
sVhost
p4190
I4
sValthough
p4191
I1
sVhospitable
p4192
I1
sVglobaliz
p4193
I1
sVpanel
p4194
I4
sVvuitton
p4195
I1
sVabout
p4196
I88
sVactual
p4197
I12
sVescanilla
p4198
I8
sVcertainty
p4199
I1
sVlegendary
p4200
I2
sVbrattle
p4201
I1
sVucluelet
p4202
I2
sVfunctional
p4203
I1
sVchris
p4204
I3
sVplayoff
p4205
I1
sVfemale
p4206
I2
sV1986
p4207
I2
sV1987
p4208
I1
sV1982
p4209
I1
sVquants
p4210
I1
sVpictur
p4211
I2
sVadversarial
p4212
I1
sV1988
p4213
I1
sVrusher
p4214
I3
sVbiggest
p4215
I10
sVglobe
p4216
I6
sVbuy
p4217
I10
sVbus
p4218
I4
sVbrand
p4219
I1
sVbut
p4220
I162
sVrajan
p4221
I1
sVrepeated
p4222
I1
sVbackstop
p4223
I1
sVversatile
p4224
I1
sVglory
p4225
I1
sVseiz
p4226
I3
sVj
p4227
I9
sVflip
p4228
I2
sVsportsnet
p4229
I3
sVundercard
p4230
I1
sVplutonium
p4231
I1
sVpil
p4232
I1
sVpie
p4233
I1
sVperiods
p4234
I1
sVcampus
p4235
I4
sV48
p4236
I1
sV49
p4237
I1
sV47
p4238
I1
sV44
p4239
I1
sV42
p4240
I1
sVdetail
p4241
I5
sV40
p4242
I7
sVdetain
p4243
I2
sVsandy
p4244
I1
sVrelativ
p4245
I1
sVstimulant
p4246
I1
sVdictatorships
p4247
I1
sVseismic
p4248
I2
sVcpu
p4249
I1
sV4k
p4250
I1
sVslogg
p4251
I1
sVhats
p4252
I1
sVsleep
p4253
I1
sVparis
p4254
I2
sVpoorest
p4255
I1
sVthinness
p4256
I2
sVunder
p4257
I15
sVpride
p4258
I1
sVlegislators
p4259
I1
sVrisk
p4260
I5
sVdollar
p4261
I1
sVrise
p4262
I8
sVevery
p4263
I10
sVjack
p4264
I5
sVschool
p4265
I43
sVflashy
p4266
I1
sVfairfax
p4267
I1
sVenjoy
p4268
I1
sVleaders
p4269
I13
sVconsistent
p4270
I3
sVwelfare
p4271
I1
sVdirect
p4272
I10
sVstreet
p4273
I9
sVblue
p4274
I1
sVweren
p4275
I9
sVpoison
p4276
I3
sVconduct
p4277
I7
sVinternships
p4278
I1
sVramps
p4279
I1
sVhundreds
p4280
I1
sVyanke
p4281
I4
sVhumility
p4282
I3
sVaftermath
p4283
I1
sVproperty
p4284
I1
sVanalysts
p4285
I2
sVchanger
p4286
I1
sVoffs
p4287
I3
sS'<div>'
p4288
I15
sVstrap
p4289
I2
sVvisible
p4290
I1
sVdescrib
p4291
I7
sVwould
p4292
I65
sVhospital
p4293
I1
sV25th
p4294
I1
sVbreathe
p4295
I1
sVunrestrain
p4296
I2
sVphone
p4297
I3
sVmust
p4298
I6
sVme
p4299
I34
sVmd
p4300
I1
sVjoin
p4301
I6
sVmo
p4302
I7
sVarticulateness
p4303
I1
sVinstall
p4304
I1
sVhenry
p4305
I2
sV[story-footer-links]
p4306
I1
sVcarmen
p4307
I2
sVdeclassifi
p4308
I1
sVfortress
p4309
I1
sVestate
p4310
I1
sVgadgets
p4311
I4
sVoverheard
p4312
I1
sVattract
p4313
I2
sVguarantee
p4314
I1
sVend
p4315
I10
sVconversation
p4316
I2
sVtoxic
p4317
I1
sVwidespread
p4318
I1
sVkilowatt
p4319
I1
sVelizabeth
p4320
I1
sV[a]
p4321
I13
sVmesh
p4322
I2
sVamid
p4323
I3
sVspous
p4324
I1
sVcomplexity
p4325
I1
sVenviron
p4326
I1
sVultimate
p4327
I3
sVenter
p4328
I6
sVharlem
p4329
I4
sVover
p4330
I49
sVexpects
p4331
I4
sVlondon
p4332
I2
sVwomanhood
p4333
I1
sVexpectations
p4334
I1
sVcomprehend
p4335
I1
sVcomplex
p4336
I3
sVfade
p4337
I2
sV400
p4338
I5
sVcomprehens
p4339
I1
sVclu
p4340
I1
sVtourist
p4341
I1
sValex
p4342
I2
sVcronyism
p4343
I1
sVrockville
p4344
I1
sVundermin
p4345
I1
sVeach
p4346
I11
sV[promo]
p4347
I2
sVsaturday
p4348
I9
sVdepress
p4349
I3
sVpsychic
p4350
I1
sVlaid
p4351
I1
sVmillennium
p4352
I1
sVgot
p4353
I16
sVgov
p4354
I3
sVgop
p4355
I3
sVperception
p4356
I1
sVcarcass
p4357
I40
sVrail
p4358
I1
sVfree
p4359
I4
sVrain
p4360
I1
sVdays
p4361
I9
sVheck
p4362
I1
sVbrioni
p4363
I1
sVaspire
p4364
I1
sVprobab
p4365
I15
sVonto
p4366
I5
sVrand
p4367
I2
sVrang
p4368
I2
sValready
p4369
I14
sVresearcher
p4370
I5
sVnhl
p4371
I1
sVpuck
p4372
I1
sVrank
p4373
I8
sVlovable
p4374
I1
sVfantasy
p4375
I1
sVtoy
p4376
I3
sVtop
p4377
I17
sVton
p4378
I1
sVtoo
p4379
I28
sVtom
p4380
I3
sVpercentage
p4381
I2
sVmilitancy
p4382
I2
sS'<b>'
p4383
I9
sVmurder
p4384
I9
sVtool
p4385
I9
sVserve
p4386
I2
sVtook
p4387
I12
sVwestern
p4388
I4
sVunsaid
p4389
I1
sVkidnapp
p4390
I1
sVroxbury
p4391
I2
sVimmigrants
p4392
I1
sVrolex
p4393
I1
sVbridge
p4394
I3
sVfashion
p4395
I1
sVrac
p4396
I5
sVran
p4397
I2
sVral
p4398
I1
sVthr
p4399
I2
sVraw
p4400
I1
sVrat
p4401
I3
sVray
p4402
I2
sV1968
p4403
I1
sV1960
p4404
I1
sVsnow
p4405
I17
sVthorough
p4406
I1
sVbrandon
p4407
I1
sVhearty
p4408
I1
sVeducator
p4409
I1
sVclunky
p4410
I1
sVthough
p4411
I16
sVmother
p4412
I6
sVplenty
p4413
I4
sValabama
p4414
I1
sVflop
p4415
I1
sVmetal
p4416
I3
sVreductions
p4417
I2
sVlabels
p4418
I1
sVradio
p4419
I1
sVsolutions
p4420
I8
sVshelv
p4421
I1
sVearth
p4422
I2
sVbain
p4423
I2
sVspite
p4424
I1
sVsituations
p4425
I2
sVdelays
p4426
I1
sVannounce
p4427
I8
sVhardball
p4428
I2
sVwatch
p4429
I26
sVamazon
p4430
I5
sVdespite
p4431
I8
sVreport
p4432
I34
sVtwice
p4433
I2
sVerupt
p4434
I4
sVunwitting
p4435
I1
sVbrick
p4436
I1
sVruins
p4437
I2
sVswept
p4438
I1
sV1960s
p4439
I2
sVfiefs
p4440
I1
sVcorrupt
p4441
I2
sVsporadic
p4442
I1
sVcapacity
p4443
I3
sVmud
p4444
I1
sVmum
p4445
I1
sVapproach
p4446
I6
sVbargains
p4447
I1
sVhowever
p4448
I6
sVboss
p4449
I2
sVwear
p4450
I3
sV[pipe]
p4451
I1
sVcontamination
p4452
I11
sVnews
p4453
I17
sVimprove
p4454
I2
sVprotect
p4455
I10
sVcandidat
p4456
I3
sVplayers
p4457
I7
sVexpense
p4458
I1
sVsullivan
p4459
I3
sVtrust
p4460
I2
sVconference
p4461
I13
sVbathroom
p4462
I4
sS'<strong>'
p4463
I49
sVbeen
p4464
I57
sVconfident
p4465
I1
sVsearch
p4466
I9
sVcraft
p4467
I1
sVcatch
p4468
I2
sVkentucky
p4469
I4
sVn
p4470
I7
sVlesser
p4471
I1
sV[inline-photo]
p4472
I2
sVexperts
p4473
I5
sVsuggest
p4474
I2
sVwound
p4475
I1
sVswall
p4476
I1
sVforehead
p4477
I1
sVutilitarian
p4478
I1
sVhealthier
p4479
I1
sVseveral
p4480
I19
sVcomplet
p4481
I3
sVsocial
p4482
I7
sVschem
p4483
I1
sVcharacters
p4484
I1
sVcycle
p4485
I1
sVneurologists
p4486
I1
sVcharlie
p4487
I1
sVlitigator
p4488
I1
sVocean
p4489
I4
sV[meta-loc]
p4490
I1
sVsavings
p4491
I1
sVleagu
p4492
I1
sVgreatest
p4493
I2
sVdetainee
p4494
I2
sVeveryth
p4495
I5
sVappease
p4496
I2
sVlaptop
p4497
I5
sVcouncilman
p4498
I1
sVcampbell
p4499
I1
sVshorthand
p4500
I1
sVelk
p4501
I8
sVkell
p4502
I1
sVteenager
p4503
I2
sVtechnological
p4504
I1
sVconjur
p4505
I1
sVgave
p4506
I7
sVbands
p4507
I2
sVizzedine
p4508
I1
sVauthorship
p4509
I1
sVapart
p4510
I1
sVgift
p4511
I1
sV51
p4512
I1
sV50
p4513
I7
sVspecific
p4514
I2
sVofficer
p4515
I20
sVarbitrary
p4516
I1
sVhung
p4517
I1
sVmatchup
p4518
I1
sVjennifer
p4519
I1
sVclubs
p4520
I1
sVelection
p4521
I1
sVcnn
p4522
I5
sVcore
p4523
I1
sVboundar
p4524
I1
sVchapter
p4525
I3
sVattacks
p4526
I1
sVsurround
p4527
I3
sVdinner
p4528
I1
sVplus
p4529
I3
sVefforts
p4530
I2
sVsept
p4531
I2
sVproduc
p4532
I6
sVunrespons
p4533
I5
sVduke
p4534
I2
sVfroze
p4535
I8
sVpresence
p4536
I2
sVcivil
p4537
I8
sVaccommodate
p4538
I1
sVentrepreneur
p4539
I1
sVbatt
p4540
I2
sVppv
p4541
I1
sVcoastal
p4542
I2
sVrounds
p4543
I2
sVgiv
p4544
I12
sVrely
p4545
I1
sVfrustrat
p4546
I2
sVclass
p4547
I13
sVsends
p4548
I1
sVreli
p4549
I2
sVseeker
p4550
I1
sVsynthesiz
p4551
I1
sVcrews
p4552
I1
sVquestionable
p4553
I1
sVhead
p4554
I9
sVsubsidiz
p4555
I2
sVwireless
p4556
I2
sVuncle
p4557
I1
sVsolar
p4558
I18
sVcounsel
p4559
I2
sVversions
p4560
I1
sVsupp
p4561
I1
sVbargain
p4562
I1
sVdecorate
p4563
I1
sVvideoconferenc
p4564
I1
sVimpropriety
p4565
I1
sVadvancements
p4566
I1
sVrahm
p4567
I1
sVkaufman
p4568
I2
sVsometime
p4569
I1
sVtrip
p4570
I5
sVregime
p4571
I1
sVassembl
p4572
I2
sVno
p4573
I55
sVwhereas
p4574
I1
sVwhen
p4575
I87
sVne
p4576
I44
sVtir
p4577
I1
sVtim
p4578
I26
sVtin
p4579
I1
sVstagnant
p4580
I1
sVtie
p4581
I1
sVhundr
p4582
I4
sVnodd
p4583
I1
sVfootball
p4584
I3
sVyounger
p4585
I2
sVlonger
p4586
I7
sVserious
p4587
I2
sVcoach
p4588
I2
sV[embedded]
p4589
I1
sVron
p4590
I1
sVrob
p4591
I2
sVfocus
p4592
I10
sVdeprav
p4593
I3
sVrecharge
p4594
I1
sV1947
p4595
I1
sVquasi
p4596
I1
sVmultilinear
p4597
I1
sVhenderson
p4598
I1
sVcoop
p4599
I1
sVfederation
p4600
I1
sVadvantage
p4601
I4
sVimpend
p4602
I1
sVtanks
p4603
I2
sVcook
p4604
I4
sVcool
p4605
I6
sVlevel
p4606
I9
sVcamaraderie
p4607
I1
sVbrother
p4608
I1
sVstandards
p4609
I4
sVyale
p4610
I4
sVquick
p4611
I12
sVsays
p4612
I36
sVtrend
p4613
I1
sVport
p4614
I4
sVsubstitute
p4615
I1
sVconstitution
p4616
I1
sV522
p4617
I1
sVhairy
p4618
I1
sVwater
p4619
I16
sVbaseball
p4620
I1
sVgroups
p4621
I7
sVthirty
p4622
I2
sVhealthy
p4623
I1
sVrethink
p4624
I1
sVguilty
p4625
I3
sVshootings
p4626
I1
sVhopeful
p4627
I1
sVoverthink
p4628
I1
sVcrisis
p4629
I4
sVconcoct
p4630
I1
sVgrievanc
p4631
I1
sVsports
p4632
I4
sViphone
p4633
I6
sVprev
p4634
I7
sVtoday
p4635
I27
sVriot
p4636
I1
sVsessions
p4637
I1
sVoutputs
p4638
I1
sVemployee
p4639
I5
sVdrown
p4640
I1
sVventur
p4641
I1
sVsheds
p4642
I1
sVlocal
p4643
I14
sVjudg
p4644
I2
sVjudy
p4645
I1
sVterrell
p4646
I1
sVstreak
p4647
I1
sVfigure
p4648
I3
sVexpectant
p4649
I1
sVcritic
p4650
I1
sVbezos
p4651
I1
sVquacks
p4652
I1
sVprovoke
p4653
I1
sVrequirements
p4654
I1
sV1
p4655
I23
sVrubio
p4656
I4
sVfourth
p4657
I4
sVensure
p4658
I1
sVspeaks
p4659
I1
sV!
p4660
I1
sVhuge
p4661
I4
sVharvardno
p4662
I1
sVislamic
p4663
I2
sVeighth
p4664
I1
sVclassroom
p4665
I1
sVpractic
p4666
I1
sVcommodity
p4667
I1
sVmayweather
p4668
I9
sVcurry
p4669
I3
sVinform
p4670
I3
sVcombin
p4671
I2
sV125
p4672
I1
sVfallout
p4673
I5
sVmidnight
p4674
I1
sVcanard
p4675
I1
sVsuperbelt
p4676
I1
sVgtm
p4677
I6
sVplatform
p4678
I2
sVoffers
p4679
I2
sVgray
p4680
I42
sVconversations
p4681
I1
sVwagon
p4682
I4
sVterm
p4683
I4
sVname
p4684
I11
sVnamo
p4685
I1
sVrealistic
p4686
I1
sVshy
p4687
I1
sVmeasurabl
p4688
I1
sVgaps
p4689
I1
sVbegun
p4690
I1
sVfactors
p4691
I1
sVprofit
p4692
I2
sVtensions
p4693
I3
sVmaneuver
p4694
I1
sVtheory
p4695
I2
sVisotope
p4696
I2
sVdispatcher
p4697
I1
sVunpaid
p4698
I1
sVplace
p4699
I10
sVlactation
p4700
I1
sVswing
p4701
I1
sVsuspend
p4702
I2
sVexecutiv
p4703
I5
sVrevenue
p4704
I3
sVclumsy
p4705
I1
sVarray
p4706
I1
sVgeorge
p4707
I4
sVengineer
p4708
I4
sVgiven
p4709
I7
sVafterthought
p4710
I1
sVdistrict
p4711
I1
sVstuck
p4712
I11
sVplastic
p4713
I2
sVreturns
p4714
I1
sVfought
p4715
I3
sVwhite
p4716
I6
sVcopi
p4717
I3
sVhuh
p4718
I1
sValan
p4719
I2
sVspecify
p4720
I1
sVdarduna
p4721
I1
sVwide
p4722
I8
sVnathan
p4723
I1
sVrequire
p4724
I2
sVspokeswoman
p4725
I6
sVr
p4726
I24
sVposit
p4727
I1
sVoutcome
p4728
I3
sVoath
p4729
I1
sVpre
p4730
I1
sVpro
p4731
I3
sVrent
p4732
I2
sVanx
p4733
I1
sVany
p4734
I34
sVtechniqu
p4735
I1
sVideas
p4736
I2
sVemphasis
p4737
I1
sVemphasiz
p4738
I1
sVsurf
p4739
I1
sVsurg
p4740
I1
sVsure
p4741
I10
sVmultiple
p4742
I2
sVclearer
p4743
I1
sVrematch
p4744
I1
sVconnor
p4745
I1
sVmultiply
p4746
I1
sVlater
p4747
I25
sVhungry
p4748
I1
sVruntim
p4749
I1
sVhear
p4750
I3
sVsenior
p4751
I9
sVinequity
p4752
I1
sVcheat
p4753
I4
sVworkshops
p4754
I1
sVallegations
p4755
I2
sVtroy
p4756
I1
sVpermiss
p4757
I1
sVgulf
p4758
I2
sVstate
p4759
I25
sVcrime
p4760
I1
sVwood
p4761
I2
sVpartake
p4762
I1
sVindicat
p4763
I2
sVlighter
p4764
I1
sVcautionary
p4765
I1
sVreveal
p4766
I5
sVbought
p4767
I1
sVken
p4768
I2
sVartworks
p4769
I1
sV1920
p4770
I1
sVcollege
p4771
I29
sVcadets
p4772
I8
sVduggan
p4773
I1
sVdetect
p4774
I2
sVvoluntary
p4775
I1
sVways
p4776
I7
sVsubsequent
p4777
I1
sVreview
p4778
I10
sVdefinite
p4779
I1
sVweapons
p4780
I2
sVoutside
p4781
I2
sVsnowmass
p4782
I8
sVarrival
p4783
I1
sVreceivers
p4784
I1
sV[credit]
p4785
I1
sVguitar
p4786
I1
sVcycl
p4787
I2
sVpens
p4788
I3
sVcome
p4789
I17
sVregion
p4790
I5
sVsenator
p4791
I1
sVregressions
p4792
I1
sVentit
p4793
I1
sVduty
p4794
I1
sV[media__image]
p4795
I1
sVcolor
p4796
I1
sVinspir
p4797
I2
sVperiod
p4798
I2
sVpop
p4799
I2
sV60
p4800
I5
sV61
p4801
I1
sV62
p4802
I1
sVpundits
p4803
I1
sV66
p4804
I1
sV69
p4805
I1
sVsidelin
p4806
I1
sVturkey
p4807
I1
sVsaudis
p4808
I1
sVcoupl
p4809
I1
sVpeaceful
p4810
I1
sV500
p4811
I4
sV630
p4812
I1
sVdirection
p4813
I1
sVminister
p4814
I2
sVcareful
p4815
I2
sVspirit
p4816
I1
sVpilot
p4817
I1
sVcase
p4818
I15
sVmyself
p4819
I1
sVlife4
p4820
I1
sVamend
p4821
I1
sVcash
p4822
I4
sVpremature
p4823
I1
sVcast
p4824
I2
sVtelephone
p4825
I1
sVdissident
p4826
I1
sVgood
p4827
I21
sVauthor
p4828
I7
sValphabet
p4829
I1
sVbowl
p4830
I1
sVcheck
p4831
I4
sVreminder
p4832
I4
sVevents
p4833
I4
sVweek
p4834
I23
sVshenbari
p4835
I8
sVweei
p4836
I1
sVpersona
p4837
I1
sVdriver
p4838
I3
sVnesn
p4839
I1
sVlamentation
p4840
I1
sVsubmariner
p4841
I1
sVarose
p4842
I1
sVfootprint
p4843
I3
sVweep
p4844
I3
sVminimize
p4845
I1
sVwalls
p4846
I1
sVwithout
p4847
I11
sVrelief
p4848
I3
sVcomponents
p4849
I1
sVmodel
p4850
I10
sVreward
p4851
I1
sVresearchers
p4852
I7
sVjustify
p4853
I2
sVdesolate
p4854
I1
sVactions
p4855
I5
sVviolent
p4856
I3
sVkill
p4857
I5
sVclos
p4858
I1
sVdiplomats
p4859
I1
sVelectrolyte
p4860
I1
sVblow
p4861
I2
sVseems
p4862
I3
sVexcept
p4863
I2
sVassociation
p4864
I27
sVdisrupt
p4865
I4
sVross
p4866
I3
sVkingdom
p4867
I1
sVvirginia
p4868
I2
sVexcret
p4869
I1
sVparticle
p4870
I1
sVbracelet
p4871
I1
sVdonations
p4872
I2
sVrecalls
p4873
I1
sVcollapsible
p4874
I1
sVpacific
p4875
I5
sVtable
p4876
I1
sVmood
p4877
I1
sVoverstat
p4878
I1
sVhighest
p4879
I1
sVstopp
p4880
I2
sVstops
p4881
I2
sVhanif
p4882
I1
sVporter
p4883
I18
sV[media__image--responsive]
p4884
I1
sVcommunicate
p4885
I1
sVslaughter
p4886
I1
sVbluefins
p4887
I1
sVon
p4888
I256
sVoh
p4889
I1
sVof
p4890
I477
sVchoirs
p4891
I1
sVstand
p4892
I11
sVgregory
p4893
I1
sVor
p4894
I91
sVcommunication
p4895
I1
sVspinal
p4896
I1
sVaccounts
p4897
I2
sVdetermine
p4898
I9
sVthere
p4899
I78
sVdispersion
p4900
I1
sVinterfac
p4901
I1
sVstrong
p4902
I8
sVvalley
p4903
I1
sVenergy
p4904
I26
sVrelig
p4905
I3
sVjug
p4906
I1
sVkittens
p4907
I2
sVregard
p4908
I2
sVdiffus
p4909
I1
sVwholesale
p4910
I2
sVnotab
p4911
I2
sVtreadwell
p4912
I2
sVbritain
p4913
I1
sVyemeni
p4914
I2
sVsalvage
p4915
I1
sVencompass
p4916
I1
sVspends
p4917
I1
sV5
p4918
I13
sVsufficient
p4919
I1
sVchampionship
p4920
I3
sVseparate
p4921
I1
sVsymbol
p4922
I1
sVspouse
p4923
I1
sVculminat
p4924
I1
sVcalls
p4925
I7
sVwife
p4926
I5
sVinvest
p4927
I6
sVodds
p4928
I2
sVdirectors
p4929
I1
sVall
p4930
I60
sVchinese
p4931
I1
sVali
p4932
I1
sVscrappy
p4933
I1
sVlack
p4934
I7
sVbaroni
p4935
I2
sVearners
p4936
I1
sVfollow
p4937
I6
sVdecisions
p4938
I5
sVcoastlin
p4939
I1
sVcatastrophe
p4940
I2
sVbalenciaga
p4941
I2
sVthursday
p4942
I17
sVaaron
p4943
I1
sVprogram
p4944
I27
sVconsum
p4945
I1
sVworse
p4946
I3
sVsong
p4947
I3
sVfar
p4948
I11
sVfat
p4949
I1
sVcerebellum
p4950
I1
sVpsychologist
p4951
I4
sVsons
p4952
I1
sVfan
p4953
I2
sVawful
p4954
I1
sVsony
p4955
I1
sVticket
p4956
I1
sVticker
p4957
I2
sVlist
p4958
I6
sVgrandfather
p4959
I1
sVundone
p4960
I1
sVmanslaughter
p4961
I13
sVten
p4962
I4
sVtea
p4963
I1
sVtex
p4964
I1
sVmiscarriag
p4965
I1
sVrate
p4966
I2
sVhawdramaut
p4967
I1
sVnbc
p4968
I5
sVnba
p4969
I3
sVwhat
p4970
I48
sVbrien
p4971
I7
sVsun
p4972
I7
sVsum
p4973
I2
sVparalegal
p4974
I3
sVanniversary
p4975
I2
sVcrush
p4976
I2
sVversion
p4977
I5
sVguns
p4978
I1
sVthemselv
p4979
I7
sVremarkab
p4980
I4
sVberkeley
p4981
I1
sVtragedy
p4982
I1
sVincrements
p4983
I2
sVallows
p4984
I3
sVoptions
p4985
I11
sV1901
p4986
I1
sVproceed
p4987
I1
sVdraftniks
p4988
I1
sVcharge
p4989
I4
sVmarkets
p4990
I4
sVminor
p4991
I3
sVseeps
p4992
I1
sVflat
p4993
I1
sVisrael
p4994
I6
sVknows
p4995
I3
sVhoffman
p4996
I3
sVproblem
p4997
I10
sVflag
p4998
I2
sVfloyd
p4999
I3
sVstick
p5000
I2
sVknown
p5001
I4
sVglad
p5002
I3
sVeden
p5003
I1
sVequation
p5004
I2
sVoutlin
p5005
I1
sVv
p5006
I1
sVpony
p5007
I1
sVdivision
p5008
I1
sVsourc
p5009
I2
sVszalai
p5010
I1
sVallege
p5011
I1
sVcours
p5012
I6
sVcourt
p5013
I5
sVgoal
p5014
I1
sVevacuat
p5015
I2
sVdesperation
p5016
I1
sVrather
p5017
I12
sVbuzzword
p5018
I1
sVexplains
p5019
I5
sVresourc
p5020
I3
sVpreoccupi
p5021
I1
sVshort
p5022
I9
sVmeticulous
p5023
I1
sVcaus
p5024
I7
sVshade
p5025
I1
sVshadi
p5026
I1
sVturnover
p5027
I1
sVdon't
p5028
I2
sVseptember
p5029
I3
sVessence
p5030
I9
sVcloseness
p5031
I1
sVmission
p5032
I4
sVinterpersonal
p5033
I1
sVmilwaukee
p5034
I1
sVdeveloper
p5035
I1
sVstyle
p5036
I6
sVcall
p5037
I22
sVscor
p5038
I3
sVstephen
p5039
I2
sVargentina
p5040
I1
sVmight
p5041
I16
sVaccompli
p5042
I1
sVwouldn
p5043
I3
sVreturn
p5044
I4
sVclippers
p5045
I3
sVunits
p5046
I1
sVcasio
p5047
I2
sVsmoothness
p5048
I1
sVbigger
p5049
I2
sVmarcus
p5050
I1
sVinequality
p5051
I1
sVundertak
p5052
I1
sVceas
p5053
I1
sVrainmaker
p5054
I1
sVweight
p5055
I5
sVgeneration
p5056
I3
sVexpect
p5057
I16
sVloops
p5058
I1
sVtelltale
p5059
I2
sVdiscrete
p5060
I1
sVnavigational
p5061
I1
sVadhere
p5062
I1
sVhealth
p5063
I11
sVbillikopf
p5064
I2
sVbenjamin
p5065
I2
sVwisconsin
p5066
I1
sVadvanc
p5067
I1
sVfriday
p5068
I9
sVguess
p5069
I1
sVethnomusicologist
p5070
I1
sVteach
p5071
I3
sVthrown
p5072
I1
sVthread
p5073
I2
sVthreat
p5074
I1
sVtwenty
p5075
I2
sVconsequence
p5076
I1
sVfallen
p5077
I2
sVjadoon
p5078
I1
sVseeming
p5079
I2
sVfeel
p5080
I8
sVfancy
p5081
I1
sVfeet
p5082
I5
sVbrave
p5083
I1
sVclosings
p5084
I1
sVstory
p5085
I5
sVscript
p5086
I1
sVprescient
p5087
I1
sVgpu
p5088
I3
sVstore
p5089
I5
sVpains
p5090
I2
sVhotel
p5091
I2
sValbeit
p5092
I1
sVkind
p5093
I8
sVremov
p5094
I1
sVstall
p5095
I1
sVrisks
p5096
I1
sVsalazar
p5097
I1
sVrisky
p5098
I1
sVcleaner
p5099
I1
sVskyscrapers
p5100
I1
sVoverrat
p5101
I1
sVimports
p5102
I1
sValike
p5103
I1
sVunikrn
p5104
I1
sVnights
p5105
I1
sVviolat
p5106
I1
sVchairman
p5107
I2
sVpopulous
p5108
I1
sVrol
p5109
I1
sVelectric
p5110
I7
sV[meta-org]
p5111
I2
sVgoldman
p5112
I1
sVaman
p5113
I1
sVeruption
p5114
I6
sV76
p5115
I1
sVshareholder
p5116
I1
sV70
p5117
I4
sVgilt
p5118
I1
sVseasons
p5119
I1
sVstands
p5120
I1
sVwindows
p5121
I4
sVdestruct
p5122
I2
sVtraditional
p5123
I1
sVforerunner
p5124
I1
sVnotch
p5125
I1
sVinstitutions
p5126
I1
sVdeserts
p5127
I1
sVinflection
p5128
I1
sVpenalty
p5129
I2
sVdiscuss
p5130
I5
sVshepherd
p5131
I1
sVhir
p5132
I8
sVhis
p5133
I87
sVhit
p5134
I8
sVgains
p5135
I4
sValicia
p5136
I2
sVemails
p5137
I5
sVadulthood
p5138
I1
sVtimeless
p5139
I1
sVinvestigate
p5140
I1
sVactivity
p5141
I2
sVsustainable
p5142
I2
sVvincent
p5143
I1
sVsanaa
p5144
I3
sVwrote
p5145
I11
sVgroupe
p5146
I1
sVarr
p5147
I1
sVart
p5148
I4
sVintelligence
p5149
I4
sVarc
p5150
I1
sVdumb
p5151
I1
sVare
p5152
I159
sVdemonstrat
p5153
I2
sVark
p5154
I1
sVarm
p5155
I6
sVcutoffs
p5156
I2
sVthreats
p5157
I3
sVobstructionist
p5158
I1
sVunions
p5159
I1
sVsolo
p5160
I2
sVsold
p5161
I2
sVattention
p5162
I5
sVopposition
p5163
I2
sVfranchise
p5164
I1
sVcondo
p5165
I1
sVc
p5166
I22
sVordinanc
p5167
I1
sVautomatics
p5168
I1
sVbecame
p5169
I6
sVoperat
p5170
I6
sVconsiderab
p5171
I1
sVfinds
p5172
I2
sVprofessorial
p5173
I1
sVreject
p5174
I1
sVranchers
p5175
I8
sVreasons
p5176
I3
sVravi
p5177
I2
sVmistak
p5178
I2
sVseiko
p5179
I3
sVbolster
p5180
I1
sVdecline
p5181
I2
sVoverlook
p5182
I1
sVpolitical
p5183
I13
sVdue
p5184
I6
sVstrategy
p5185
I4
sVpc
p5186
I2
sVpe
p5187
I1
sVph
p5188
I1
sV1950s
p5189
I1
sVuninform
p5190
I1
sVorchestrat
p5191
I2
sVdemand
p5192
I7
sVplants
p5193
I2
sVgeorgia
p5194
I3
sVfrozen
p5195
I1
sVuncontroll
p5196
I1
sVbehavior
p5197
I2
sVengineers
p5198
I3
sVmuhler
p5199
I1
sVris
p5200
I2
sVrip
p5201
I1
sVobstacle
p5202
I1
sVrid
p5203
I9
sVcurrents
p5204
I1
sVqat
p5205
I1
sS'<ul>'
p5206
I2
sV9
p5207
I3
sVadvise
p5208
I1
sVdaughters
p5209
I1
sVhigher
p5210
I9
sVliterature
p5211
I1
sVflows
p5212
I1
sVexpropriat
p5213
I1
sVflown
p5214
I1
sVcontractors
p5215
I3
sVlower
p5216
I6
sVanybody
p5217
I2
sVanalysis
p5218
I3
sVcheer
p5219
I1
sVedge
p5220
I2
sVinspirational
p5221
I1
sVobituar
p5222
I1
sVsystematical
p5223
I1
sVquestions
p5224
I8
sVpatel
p5225
I1
sVcontinent
p5226
I1
sVprofitable
p5227
I1
sVtablet
p5228
I2
sVadvisers
p5229
I1
sVworkers
p5230
I6
sVcontractor
p5231
I1
sVviolations
p5232
I1
sVcustomers
p5233
I7
sVdiscriminatory
p5234
I2
sVnecessary
p5235
I2
sVawaken
p5236
I1
sVcapitals
p5237
I2
sVcollect
p5238
I4
sVarthur
p5239
I1
sVunstable
p5240
I1
sVessential
p5241
I3
sVtraits
p5242
I1
sVvacate
p5243
I1
sVsurpris
p5244
I4
sVdistribut
p5245
I1
sVprov
p5246
I3
sVpros
p5247
I1
sVinnovation
p5248
I3
sVanne
p5249
I1
sVaccelerat
p5250
I1
sValoft
p5251
I1
sVsqueez
p5252
I1
sVintense
p5253
I2
sVpipeline
p5254
I1
sVentrepreneurs
p5255
I3
sVsurfers
p5256
I1
sVfrightful
p5257
I1
sVstricken
p5258
I1
sVrange
p5259
I6
sVcutoff
p5260
I2
sVmommy
p5261
I1
sVannounc
p5262
I10
sVrows
p5263
I1
sVlone
p5264
I2
sVlong
p5265
I30
sVvendors
p5266
I2
sVmountains
p5267
I10
sV[figcaption]
p5268
I1
sS'<span>'
p5269
I6
sVfluctuations
p5270
I1
sVfreak
p5271
I1
sVmillar
p5272
I1
sVralli
p5273
I1
sVcoordinator
p5274
I1
sVfamil
p5275
I4
sVrainy
p5276
I1
sVpeace
p5277
I4
sVbacks
p5278
I1
sVnich
p5279
I1
sVgre
p5280
I1
sVincome
p5281
I2
sVmock
p5282
I1
sVnice
p5283
I4
sVusers
p5284
I4
sVproblems
p5285
I5
sVdevelops
p5286
I1
sVhappier
p5287
I1
sVlead
p5288
I9
sVvice
p5289
I8
sVreiner
p5290
I1
sV196th
p5291
I1
sVintentional
p5292
I2
sV[el__gallery_image-title]
p5293
I1
sVonce
p5294
I19
sValleyways
p5295
I1
sVresistance
p5296
I2
sVsteve
p5297
I9
sVwinds
p5298
I1
sVcontributions
p5299
I1
sVspector
p5300
I1
sVgold
p5301
I1
sVuphold
p5302
I1
sVdisposal
p5303
I8
sVinclude
p5304
I8
sVmainstream
p5305
I1
sV[el-editorial-source]
p5306
I2
sVdeals
p5307
I1
sVfriendliness
p5308
I1
sVpleas
p5309
I2
sVsomeday
p5310
I2
sVsmaller
p5311
I3
sVbattl
p5312
I1
sVoverhype
p5313
I1
sVlivelihoods
p5314
I1
sVreunion
p5315
I1
sVmakers
p5316
I2
sVcompar
p5317
I3
sVshowcase
p5318
I1
sVcapital
p5319
I6
sVcompan
p5320
I17
sVchose
p5321
I1
sVdegree
p5322
I26
sVgiant
p5323
I2
sVyoungest
p5324
I2
sVexplore
p5325
I1
sVmetro
p5326
I3
sVlarger
p5327
I6
sVmetre
p5328
I2
sVcalvin
p5329
I1
sVengine
p5330
I1
sVsuggests
p5331
I1
sVcesium
p5332
I6
sVmatos
p5333
I1
sVapple
p5334
I35
sVspy
p5335
I2
sVappli
p5336
I1
sVapp
p5337
I1
sVapt
p5338
I1
sVmotor
p5339
I1
sVduck
p5340
I2
sVuse
p5341
I34
sVfee
p5342
I2
sVfrom
p5343
I135
sVusb
p5344
I1
sVconsumption
p5345
I1
sVnormal
p5346
I1
sVfew
p5347
I19
sVexamination
p5348
I1
sVpushback
p5349
I1
sVedgewood
p5350
I1
sVdysfunctional
p5351
I1
sVcarroll
p5352
I16
sVmusician
p5353
I1
sVimpress
p5354
I7
sV[inline-content]
p5355
I3
sVcooperate
p5356
I1
sVrabbit
p5357
I1
sVrecount
p5358
I1
sVwomen
p5359
I15
sVannoy
p5360
I1
sVaugment
p5361
I3
sVstroke
p5362
I6
sVanywhere
p5363
I5
sVpedagogy
p5364
I1
sVtap
p5365
I4
sVdedicat
p5366
I2
sVtax
p5367
I3
sVtag
p5368
I1
sVtak
p5369
I14
sVsip
p5370
I1
sVbathiche
p5371
I1
sVguru
p5372
I1
sVsiz
p5373
I2
sVsix
p5374
I27
sVfortunate
p5375
I1
sVprognosis
p5376
I1
sVcamels
p5377
I1
sVsid
p5378
I2
sVinstead
p5379
I5
sVpanic
p5380
I3
sVsil
p5381
I2
sVvisceral
p5382
I1
sVattend
p5383
I7
sVabuse
p5384
I4
sVwrist
p5385
I4
sV[meta-per]
p5386
I2
sVhighlands
p5387
I1
sVstrapp
p5388
I1
sVlight
p5389
I6
sVstraps
p5390
I2
sVemanuel
p5391
I1
sVdoubleheader
p5392
I1
sVinescapability
p5393
I1
sVjoanne
p5394
I1
sV137
p5395
I2
sVlooks
p5396
I3
sV134
p5397
I2
sV139
p5398
I1
sVsuperior
p5399
I1
sVinlet
p5400
I1
sVshipp
p5401
I2
sVpermanent
p5402
I9
sVrestrain
p5403
I1
sVchoose
p5404
I4
sVbye
p5405
I1
sVcrowds
p5406
I1
sVpractice
p5407
I3
sVflout
p5408
I1
sVnegligent
p5409
I2
sVemerald
p5410
I1
sVrepublican
p5411
I5
sVflee
p5412
I3
sVtrad
p5413
I2
sVprofound
p5414
I1
sVnfl
p5415
I5
sVdepriv
p5416
I1
sVcocoon
p5417
I1
sVbills
p5418
I2
sVcounterinsurgency
p5419
I2
sVour
p5420
I17
sV80
p5421
I1
sV87
p5422
I1
sVout
p5423
I99
sVcategory
p5424
I2
sVfrontier
p5425
I1
sVgerwehr
p5426
I3
sVchaos
p5427
I3
sVdeloitte
p5428
I2
sVsupports
p5429
I2
sVdisclose
p5430
I1
sVipod
p5431
I1
sVyork
p5432
I9
sVconflicts
p5433
I4
sV8p
p5434
I1
sVlazowska
p5435
I1
sVg
p5436
I13
sVillicit
p5437
I1
sVhence
p5438
I1
sVorganiz
p5439
I4
sVziegler
p5440
I2
sVendemic
p5441
I1
sS'<em>'
p5442
I18
sVdoesn't
p5443
I2
sVdonta
p5444
I1
sVredondo
p5445
I1
sVtheir
p5446
I76
sVboil
p5447
I1
sVseminars
p5448
I1
sVacademy
p5449
I8
sVdecompos
p5450
I8
sVdiminish
p5451
I1
sVinstitution
p5452
I2
sVengag
p5453
I3
sVcohen
p5454
I1
sVteenagers
p5455
I2
sVafraid
p5456
I1
sVkristy
p5457
I1
sVagency
p5458
I6
sVcontact
p5459
I1
sVdjambias
p5460
I1
sVpossibilit
p5461
I1
sVwhich
p5462
I78
sVfunds
p5463
I1
sVdivert
p5464
I1
sVcombat
p5465
I1
sVmavens
p5466
I1
sVwho
p5467
I106
sVwhy
p5468
I22
sVbarista
p5469
I1
sVdeni
p5470
I2
sVdenn
p5471
I1
sVdetermin
p5472
I3
sVfowler
p5473
I2
sVgoals
p5474
I1
sVdemocrats
p5475
I2
sVutter
p5476
I1
sVfear
p5477
I2
sVdebate
p5478
I5
sVlitigation
p5479
I1
sVholistic
p5480
I1
sVlocat
p5481
I9
sVparlia
p5482
I1
sVeat
p5483
I1
sVsurroundings
p5484
I1
sVhe
p5485
I169
sVthousands
p5486
I2
sVindignant
p5487
I1
sVprosecute
p5488
I1
sVinsead
p5489
I3
sVcontribut
p5490
I3
sVcuba
p5491
I1
sV999
p5492
I1
sVwords
p5493
I7
sVsegin
p5494
I40
sVexperi
p5495
I3
sVbelts
p5496
I5
sVaffluent
p5497
I1
sVneumy
p5498
I2
sVgenerations
p5499
I4
sVview
p5500
I5
sVavailable
p5501
I6
sVdistract
p5502
I1
sVcloser
p5503
I2
sVfavor
p5504
I2
sVpants
p5505
I1
sVability
p5506
I3
sVjoy
p5507
I1
sVjob
p5508
I18
sVjoe
p5509
I3
sVkershner
p5510
I1
sVjok
p5511
I1
sVswift
p5512
I1
sVjon
p5513
I1
sVapril
p5514
I10
sVwall
p5515
I8
sVarriv
p5516
I7
sVenvironments
p5517
I1
sVwalk
p5518
I7
sVsubscribe
p5519
I1
sVrespect
p5520
I4
sVdecent
p5521
I3
sVcharts
p5522
I1
sVbesid
p5523
I2
sVcounterculture
p5524
I1
sVmike
p5525
I2
sVgeneral
p5526
I9
sVmenendez
p5527
I2
sV[story-meta]
p5528
I4
sVscrutiny
p5529
I2
sVhouthis
p5530
I1
sVpresent
p5531
I3
sVunlike
p5532
I2
sVwill
p5533
I55
sVwild
p5534
I2
sVobserv
p5535
I2
sVlayer
p5536
I2
sVmotivational
p5537
I1
sVthus
p5538
I3
sVmotiv
p5539
I1
sVdual
p5540
I2
sVperhaps
p5541
I5
sVvintage
p5542
I1
sVradiation
p5543
I4
sVcross
p5544
I2
sVmember
p5545
I2
sVcummerbunds
p5546
I1
sVlargest
p5547
I4
sVinch
p5548
I5
sVgets
p5549
I3
sVgett
p5550
I9
sVdifficult
p5551
I4
sVdisagree
p5552
I1
sVbeast
p5553
I1
sVbastien
p5554
I1
sVstudent
p5555
I5
sVlobby
p5556
I1
sVenglish
p5557
I3
sVrecollection
p5558
I1
sVtoilets
p5559
I1
sVrapid
p5560
I2
sVconsole
p5561
I1
sVprovision
p5562
I1
sVsmith
p5563
I1
sVhall
p5564
I2
sVclyde
p5565
I1
sVbook
p5566
I6
sVadoption
p5567
I1
sVusage
p5568
I1
sVidentical
p5569
I1
sVlegitimiz
p5570
I1
sVsick
p5571
I2
sVprotesters
p5572
I2
sVinterrogation
p5573
I12
sVkellogg
p5574
I6
sVknow
p5575
I34
sVpress
p5576
I5
sVmiami
p5577
I4
sVtaxpayers
p5578
I5
sVexceed
p5579
I2
sVbecause
p5580
I45
sVsequence
p5581
I1
sV111
p5582
I1
sV118
p5583
I1
sVthroughout
p5584
I3
sVoperation
p5585
I2
sVleak
p5586
I2
sVbreakthroughs
p5587
I2
sVlean
p5588
I1
sV14th
p5589
I1
sVleap
p5590
I3
sVleav
p5591
I8
sVsettl
p5592
I2
sVleader
p5593
I3
sVpoets
p5594
I1
sVobey
p5595
I1
sVrare
p5596
I2
sVextension
p5597
I1
sVsaddle
p5598
I1
sVcolumn
p5599
I2
sVuniverse
p5600
I1
sVsectarian
p5601
I1
sVperks
p5602
I2
sVcarrier
p5603
I1
sVsweat
p5604
I1
sVsemifinal
p5605
I1
sVown
p5606
I22
sVwilderness
p5607
I25
sVwarrants
p5608
I1
sVautomat
p5609
I1
sVfundraiser
p5610
I1
sVweather
p5611
I3
sVpromise
p5612
I1
sVbrush
p5613
I2
sVlawful
p5614
I1
sVvan
p5615
I20
sVapps
p5616
I2
sVovertime
p5617
I2
sVvar
p5618
I2
sVredmond
p5619
I1
sVshane
p5620
I1
sVmanghani
p5621
I2
sVmutter
p5622
I1
sVvolume
p5623
I1
sVsqueeze
p5624
I2
sVmade
p5625
I21
sVtactics
p5626
I4
sVwhether
p5627
I15
sVinjur
p5628
I3
sVtroubl
p5629
I2
sVrecord
p5630
I17
sVbelow
p5631
I3
sVeagerness
p5632
I1
sVjenny
p5633
I1
sVinadequate
p5634
I2
sVmeaningless
p5635
I1
sVmaroon
p5636
I8
sVet
p5637
I5
sVmutual
p5638
I1
sVpercent
p5639
I19
sVsimulat
p5640
I1
sVhurwitz
p5641
I1
sVother
p5642
I57
sVboom
p5643
I1
sVbranch
p5644
I5
sV[inline-photo-normal]
p5645
I2
sVjune
p5646
I6
sVcontends
p5647
I1
sVexperienc
p5648
I1
sVemerg
p5649
I2
ssS'Doc_count'
p5650
I838
ssS'dateline'
p5651
(dp5652
g3
(dp5653
V[dateline]
p5654
I1
sV30
p5655
I1
sg14
I1
sVthursday
p5656
I1
sVapril
p5657
I1
sV2015
p5658
I1
sS'<h6>'
p5659
I1
ssg31
I1
ssS'spam'
p5660
(dp5661
g34
(dp5662
g36
I2
sV[el__position]
p5663
I2
sVhatr
p5664
I1
sV[t-upshot]
p5665
I1
sVfour
p5666
I4
sVprotest
p5667
I1
sVornate
p5668
I1
sVtanenbaum
p5669
I1
sVgabriella
p5670
I2
sV[media-100000003598179]
p5671
I1
sVwhose
p5672
I1
sVauthorit
p5673
I1
sVelectricity
p5674
I1
sVspew
p5675
I1
sVunder
p5676
I2
sVonstage
p5677
I1
sVregrets
p5678
I1
sVbenvolin
p5679
I1
sVrisk
p5680
I1
sVrise
p5681
I2
sVjack
p5682
I2
sVgovern
p5683
I2
sV[extended-byline]
p5684
I1
sVschool
p5685
I4
sVwednesday
p5686
I1
sV[layout-small-vertical]
p5687
I1
sS'<a>'
p5688
I133
sVsecond
p5689
I2
sVlehigh
p5690
I2
sVair
p5691
I2
sVeven
p5692
I1
sVhide
p5693
I4
sVagainreplaymore
p5694
I1
sV[inline-photo]
p5695
I1
sVasia
p5696
I1
sVfuerza
p5697
I1
sVabove
p5698
I1
sS'<header>'
p5699
I9
sVnew
p5700
I31
sV[el__leafmedia]
p5701
I5
sVnever
p5702
I1
sVyanke
p5703
I1
sVprotection
p5704
I1
sVethanol
p5705
I1
sVpath
p5706
I1
sVdoro
p5707
I1
sVdaughter
p5708
I2
sVforum
p5709
I1
sV[media__image--cut-format]
p5710
I2
sVannounc
p5711
I3
sVitems
p5712
I1
sg74
I2
sVreports
p5713
I1
sVcredit
p5714
I31
sVsmoke
p5715
I2
sVmilitary
p5716
I1
sVgolden
p5717
I1
sV[hed-section]
p5718
I3
sVsplitapril
p5719
I1
sVpsychological
p5720
I2
sVchieppo
p5721
I1
sVtotal
p5722
I1
sVunit
p5723
I2
sVturrialba
p5724
I1
sVarmy
p5725
I1
sVarms
p5726
I1
sV[cn]
p5727
I1
sVrattl
p5728
I1
sVtell
p5729
I1
sVmusk
p5730
I1
sVbedrosian
p5731
I9
sVsaber
p5732
I2
sVcardiology
p5733
I1
sVrelat
p5734
I9
sVwars
p5735
I1
sVconnecticut
p5736
I1
sVhold
p5737
I3
sVtampa
p5738
I1
sVmust
p5739
I1
sV[story-print-citation]
p5740
I4
sV[value]
p5741
I1
sV1997
p5742
I1
sV1999
p5743
I2
sVwork
p5744
I3
sVroof
p5745
I1
sVera
p5746
I1
sVms
p5747
I2
sV[story-footer-links]
p5748
I4
sVcould
p5749
I1
sVleonhardt
p5750
I2
sVin
p5751
I35
sVindia
p5752
I1
sVinvolve
p5753
I1
sV[footer]
p5754
I5
sVwant
p5755
I1
sVceremony
p5756
I1
sVkarymsky
p5757
I1
sV[g-show-small]
p5758
I1
sVhom
p5759
I1
sVfoursom
p5760
I1
sVdamage
p5761
I1
sVhow
p5762
I5
sVhot
p5763
I1
sV[media-100000003659425]
p5764
I1
sVupdat
p5765
I2
sVladder
p5766
I1
sVafter
p5767
I7
sV[a]
p5768
I10
sV[dfp-right2]
p5769
I8
sVpresident
p5770
I4
sV[g-bold]
p5771
I1
sV[interactive-kicker]
p5772
I2
sVlas
p5773
I1
sVthird
p5774
I1
sVgreet
p5775
I1
sVgreek
p5776
I1
sVenviron
p5777
I1
sV[rg-header]
p5778
I1
sVorder
p5779
I5
sVwind
p5780
I1
sV[video__end-slate__engage__more]
p5781
I1
sV[video__end-slate__tertiary]
p5782
I1
sVoffice
p5783
I2
sV[theme-upshot]
p5784
I1
sVover
p5785
I5
sVjapan
p5786
I2
sVbefore
p5787
I3
sVhighlights
p5788
I1
sVfix
p5789
I2
sg2949
I60
sVoffic
p5790
I1
sVproduction
p5791
I1
sS'<button>'
p5792
I7
sV400
p5793
I1
sV[rg-th]
p5794
I1
sVfil
p5795
I1
sVthen
p5796
I3
sVworkout
p5797
I1
sVsafe
p5798
I1
sVwelterweight
p5799
I1
sVthey
p5800
I1
sValex
p5801
I2
sV05play
p5802
I1
sVclose
p5803
I2
sVl
p5804
I4
sVundermin
p5805
I2
sV[layout-large-horizontal]
p5806
I25
sVvictory
p5807
I1
sVeach
p5808
I2
sVvolcano
p5809
I6
sVwent
p5810
I1
sVside
p5811
I1
sVcarlos
p5812
I1
sVncalbuco
p5813
I2
sVfinancial
p5814
I1
sVknockout
p5815
I1
sVemeralds
p5816
I1
sV[promo]
p5817
I4
sVsaturday
p5818
I3
sV[image_data]
p5819
I2
sV[bg-related__button-overlay]
p5820
I5
sV[byline]
p5821
I1
sVlaif
p5822
I1
sV[cd__headline-text]
p5823
I1
sVarizona
p5824
I1
sV[twitter-follow-button]
p5825
I1
sVgiven
p5826
I1
sVfree
p5827
I3
sVstandard
p5828
I1
sVstruggle
p5829
I1
sV[el__video__replay-button-wrapper]
p5830
I1
sVstarts
p5831
I1
sVdays
p5832
I1
sVisn
p5833
I1
sV[summary-credit]
p5834
I1
sVonto
p5835
I1
sVstewart
p5836
I1
sValready
p5837
I2
sVresearcher
p5838
I1
sVcapturadas
p5839
I1
sVcaviahue
p5840
I1
sV[interactive]
p5841
I8
sVhook
p5842
I1
sV[theme-speech-bubble]
p5843
I6
sV[hide-caption]
p5844
I2
sVmaster
p5845
I1
sVtoo
p5846
I2
sVtom
p5847
I1
sVupshot
p5848
I1
sVjohn
p5849
I1
sS'<b>'
p5850
I3
sVstreets
p5851
I1
sVmckinsey
p5852
I1
sVvillager
p5853
I1
sVtook
p5854
I3
sVphotosvillarrica
p5855
I1
sVwestern
p5856
I1
sVprovid
p5857
I1
sV[interactive-leadin]
p5858
I2
sS'<aside>'
p5859
I31
sVproject
p5860
I1
sViron
p5861
I1
sVknights
p5862
I1
sS'<table>'
p5863
I2
sVpalace
p5864
I1
sVnadella
p5865
I2
sVboston
p5866
I1
sVral
p5867
I1
sVrap
p5868
I1
sVseen
p5869
I2
sVaffairs
p5870
I1
sV[upshot-sharetools]
p5871
I1
sV[skip-to-text-link]
p5872
I77
sVbrandon
p5873
I2
sV[video__end-slate__secondary]
p5874
I1
sV[counter]
p5875
I1
sVquarterback
p5876
I1
sVthough
p5877
I1
sViceland
p5878
I1
sVanatomy
p5879
I1
sVletter
p5880
I1
sV[js-media__video]
p5881
I1
sVstawberry
p5882
I1
sVmaria
p5883
I1
sV[cn--idx-0]
p5884
I1
sVdon
p5885
I2
sVflow
p5886
I1
sVprinciple
p5887
I1
sVpope
p5888
I1
sVambassador
p5889
I1
sVpopp
p5890
I1
sV18recent
p5891
I1
sVinvolv
p5892
I1
sVheadline
p5893
I4
sV[g-label-13]
p5894
I1
sS'<tr>'
p5895
I2
sVsugar
p5896
I1
sVbush
p5897
I2
sVrick
p5898
I1
sVabu
p5899
I1
sVlady
p5900
I1
sVmonica
p5901
I2
sVprofessionals
p5902
I1
sVde
p5903
I2
sVwatch
p5904
I1
sVphotograph
p5905
I2
sVstor
p5906
I5
sVcoast
p5907
I1
sVston
p5908
I1
sVchristopher
p5909
I1
sS'<td>'
p5910
I2
sVreport
p5911
I5
sVdt
p5912
I2
sVpearson
p5913
I1
sVbay
p5914
I1
sVerupt
p5915
I4
sV[el__storyhighlights]
p5916
I1
sVrival
p5917
I1
sVphotosdense
p5918
I1
sVautomatic
p5919
I1
sVrunn
p5920
I1
sVethical
p5921
I1
sV[ad--mobile]
p5922
I2
sV[media-100000003612027]
p5923
I1
sV[story-notes]
p5924
I3
sV02
p5925
I2
sVsaid
p5926
I3
sVduff
p5927
I1
sV[el__resize]
p5928
I2
sVfigur
p5929
I1
sVloth
p5930
I1
sVmobilenov
p5931
I1
sVaccord
p5932
I1
sVharvard
p5933
I1
sVwear
p5934
I2
sV[pipe]
p5935
I5
sVdedication
p5936
I1
sVnews
p5937
I4
sVdebt
p5938
I1
sVclimate
p5939
I1
sVpsychologists
p5940
I1
sVcountry
p5941
I1
sVunemploy
p5942
I1
sVagainst
p5943
I3
sV[middle-right-ad]
p5944
I19
sVcom
p5945
I12
sVsoutheastern
p5946
I1
sV[ad-slide--inactive]
p5947
I2
sVflavio
p5948
I1
sVtough
p5949
I1
sV[limit-small]
p5950
I4
sVsullivan
p5951
I2
sV[media-100000003660940]
p5952
I1
sVsao
p5953
I1
sVguid
p5954
I1
sVspeak
p5955
I1
sVconference
p5956
I3
sVbathroom
p5957
I1
sVrangers
p5958
I1
sVthree
p5959
I2
sVbeen
p5960
I2
sg283
I72
sVsubmarine
p5961
I3
sVstadium
p5962
I1
sVcraig
p5963
I1
sVwebsite
p5964
I1
sVlife
p5965
I4
sVeastern
p5966
I2
sV[video]
p5967
I3
sV[thumb]
p5968
I8
sVchile
p5969
I3
sV165
p5970
I1
sVcommerce
p5971
I1
sVeast
p5972
I1
sVn
p5973
I2
sVnear
p5974
I2
sVunsolv
p5975
I1
sV[video__end-slate__replay-text]
p5976
I1
sV[media-100000003598510]
p5977
I1
sVmexico
p5978
I1
sVis
p5979
I17
sVit
p5980
I16
sVaspendailynews
p5981
I3
sVim
p5982
I2
sVcone
p5983
I1
sVallen
p5984
I1
sV[bg-related__heading]
p5985
I5
sVseattle
p5986
I3
sV[el-embed-twitter]
p5987
I2
sVif
p5988
I1
sVfotos
p5989
I1
sVperform
p5990
I1
sVsuggest
p5991
I1
sVmake
p5992
I1
sVswall
p5993
I3
sV[media__caption]
p5994
I3
sVspews
p5995
I1
sVphotosfountains
p5996
I1
sVseveral
p5997
I1
sVeuropean
p5998
I2
sVhani
p5999
I1
sVrain
p6000
I3
sVheadsetjan
p6001
I1
sV1977
p6002
I1
sVcharlie
p6003
I1
sVdriv
p6004
I1
sVocean
p6005
I1
sVgreatest
p6006
I1
sVthe
p6007
I121
sV[el__storyelement__gray]
p6008
I3
sVleft
p6009
I2
sV[dfp-ad]
p6010
I8
sVcapitol
p6011
I1
sVjust
p6012
I6
sVphoto
p6013
I31
sVthumbs
p6014
I1
sVciara
p6015
I3
sVyet
p6016
I1
sVjose
p6017
I1
sVkell
p6018
I1
sVhad
p6019
I1
sVeasy
p6020
I1
sVprison
p6021
I2
sVneuquen
p6022
I1
sVhas
p6023
I8
sVhav
p6024
I1
sV[most-shared]
p6025
I8
sS'<div>'
p6026
I157
sV[lede-container-ads]
p6027
I10
sVboxer
p6028
I2
sVroach
p6029
I1
sVorlando
p6030
I1
sVsteps
p6031
I2
sVsandtown
p6032
I1
sVnight
p6033
I4
sV[js__gallery--fullstandardwidth]
p6034
I2
sVsecurity
p6035
I3
sVsebastian
p6036
I1
sVattorney
p6037
I2
sVright
p6038
I3
sVold
p6039
I1
sVpacquiao
p6040
I4
sVchesto
p6041
I1
sV[kicker]
p6042
I1
sS'<noscript>'
p6043
I3
sV[headline]
p6044
I1
sV[media-100000003598187]
p6045
I1
sVfor
p6046
I34
sVfox
p6047
I1
sV[video__end-slate__engage__text]
p6048
I1
sVcnn
p6049
I3
sV[media-action-overlay]
p6050
I2
sV[el__video__replayer-wrapper]
p6051
I1
sVpose
p6052
I1
sVnuevas
p6053
I1
sVemitt
p6054
I1
sVcolima
p6055
I1
sVsuper
p6056
I1
sVemits
p6057
I1
sVchilean
p6058
I1
sVanoma
p6059
I1
sV[g-label-12]
p6060
I1
sVkaitlyn
p6061
I1
sVo
p6062
I1
sVdinner
p6063
I3
sV[show-desktop]
p6064
I8
sVmahoney
p6065
I1
sV[rg-source]
p6066
I1
sV[interactive-embedded]
p6067
I5
sV[has-lede-adjacency]
p6068
I7
sValmeida
p6069
I2
sVprisoners
p6070
I1
sVprofession
p6071
I1
sVwww
p6072
I3
sV[]
p6073
I14
sVahm
p6074
I1
sVcommuters
p6075
I1
sV[interactive-image-container]
p6076
I3
sV[large]
p6077
I2
sV[subhead]
p6078
I1
sV[landscape]
p6079
I2
sVgiv
p6080
I1
sVmalcom
p6081
I4
sVwag
p6082
I1
sVpeople
p6083
I3
sVwatchresidents
p6084
I1
sVfight
p6085
I3
sVeditor
p6086
I1
sVway
p6087
I1
sVwav
p6088
I1
sVwas
p6089
I5
sVoffer
p6090
I1
sS'<h2>'
p6091
I21
sV[bucketwrap]
p6092
I2
sVfailure
p6093
I1
sVhear
p6094
I1
sVsolar
p6095
I2
sVbalancesept
p6096
I1
sV[button]
p6097
I7
sVfach_chile
p6098
I1
sVuntil
p6099
I3
sV[media-100000003598161]
p6100
I1
sVemotional
p6101
I1
sVmoore
p6102
I1
sVtesla
p6103
I1
sS'<figure>'
p6104
I43
sV[eln-updates-all]
p6105
I1
sVelon
p6106
I1
sVadvertise
p6107
I7
sVcommunit
p6108
I1
sVno
p6109
I1
sVstake
p6110
I1
sVne
p6111
I1
sVreality
p6112
I1
sVtim
p6113
I26
sVrole
p6114
I2
sV[story-list]
p6115
I8
sVnw
p6116
I3
sVmodels
p6117
I1
sVoffenseapril
p6118
I1
sVemission
p6119
I1
sVfell
p6120
I1
sVsenior
p6121
I1
sVsacks
p6122
I1
sV[nytint-upshot-stream-sharetools]
p6123
I1
sVryder
p6124
I1
sV[js__gallery-showhide]
p6125
I2
sVtime
p6126
I3
sV[invert]
p6127
I1
sVetna
p6128
I1
sV[embedded]
p6129
I23
sV[b]
p6130
I1
sV[media-100000003659423]
p6131
I1
sV[media-100000003660677]
p6132
I1
sVglobal
p6133
I3
sVfocus
p6134
I2
sVlaura
p6135
I1
sVmile
p6136
I1
sVskin
p6137
I1
sVshot
p6138
I1
sV[el__storyhighlights__item]
p6139
I1
sVrow
p6140
I1
sV[media-100000003658526]
p6141
I1
sVkillings
p6142
I1
sVfather
p6143
I1
sV0
p6144
I1
sVcharge
p6145
I1
sVbrown
p6146
I4
sVfederation
p6147
I1
sVbillionaire
p6148
I1
sV[video__end-slate--inactive]
p6149
I1
sVkitten
p6150
I1
sVminute
p6151
I1
sVcool
p6152
I1
sVclouds
p6153
I1
sVlevel
p6154
I1
sVdid
p6155
I1
sVturns
p6156
I1
sVbrother
p6157
I1
sVstandards
p6158
I1
sVp
p6159
I1
sVteam
p6160
I2
sV[zn-body__paragraph]
p6161
I2
sVround
p6162
I3
sV[interactive-headline]
p6163
I8
sVrevolution
p6164
I1
sVsays
p6165
I1
sVsign
p6166
I4
sV[featured]
p6167
I2
sVcolin
p6168
I2
sVjameis
p6169
I1
sVparticipat
p6170
I1
sVsemifinals
p6171
I1
sVappear
p6172
I1
sVcurrent
p6173
I1
sV[media]
p6174
I34
sV[interactive-caption]
p6175
I7
sVinternational
p6176
I5
sVexplosion
p6177
I1
sVinstall
p6178
I1
sVhololens
p6179
I1
sVwater
p6180
I3
sV[ad-slide]
p6181
I2
sVappears
p6182
I4
sVbox
p6183
I5
sV[story-heading-text]
p6184
I8
sVhealthy
p6185
I1
sV[media-100000003657432]
p6186
I1
sVrafael
p6187
I1
sVlove
p6188
I1
sVsaunders
p6189
I1
sVjebby
p6190
I1
sV[media-100000003612025]
p6191
I1
sVcrisis
p6192
I1
sVmarket
p6193
I1
sVvisit
p6194
I1
sVfrance
p6195
I1
sVpresse
p6196
I1
sVprev
p6197
I1
sVtoday
p6198
I4
sVclub
p6199
I1
sVenhanc
p6200
I1
sVcar
p6201
I1
sV[media-meta]
p6202
I1
sVcap
p6203
I1
sV[js-video__end-slate__tertiary]
p6204
I1
sV[metadata]
p6205
I1
sVcan
p6206
I6
sV[bg-related__more__list]
p6207
I2
sVcoral
p6208
I1
sVdecember
p6209
I2
sVawesome
p6210
I1
sVwinston
p6211
I1
sS'<h3>'
p6212
I12
sVparachute
p6213
I1
sVchin
p6214
I1
sVcouncil
p6215
I2
sVspe
p6216
I2
sVconservat
p6217
I1
sV[nytg-chartmaker-outer]
p6218
I1
sV1
p6219
I13
sV[js-owl-carousel]
p6220
I2
sV[bg-related__description]
p6221
I5
sVshasta
p6222
I1
sVspeaks
p6223
I1
sVmap
p6224
I1
sVmay
p6225
I7
sV[marginalia-anchor-ad]
p6226
I10
sVdate
p6227
I1
sVsuch
p6228
I1
sVmak
p6229
I3
sVsakurajima
p6230
I1
sVrenovation
p6231
I1
sVmayweather
p6232
I4
sVsr
p6233
I1
sVsw
p6234
I1
sV[rg-content]
p6235
I1
sVso
p6236
I1
sVtalk
p6237
I1
sV[photo]
p6238
I29
sV[truncate]
p6239
I8
sVmatchups
p6240
I1
sVinterrogationapril
p6241
I1
sVstill
p6242
I2
sVsatya
p6243
I2
sVgroup
p6244
I4
sVjim
p6245
I1
sV[el__storyhighlights--new]
p6246
I1
sVrolefeb
p6247
I1
sVpolicy
p6248
I2
sVmain
p6249
I78
sVselfie
p6250
I1
sVtexas
p6251
I2
sVvaras
p6252
I1
sV3
p6253
I3
sV[advertisement]
p6254
I4
sVerupci
p6255
I2
sV[article-more]
p6256
I13
sVnation
p6257
I3
sVverveer
p6258
I1
sVnot
p6259
I4
sVnow
p6260
I1
sVhall
p6261
I1
sVdown
p6262
I2
sVentrepreneur
p6263
I1
sVjanuary
p6264
I2
sVdidn
p6265
I1
sV[chart-header]
p6266
I1
sVmariota
p6267
I1
sVsquare
p6268
I1
sV[ad]
p6269
I70
sV[js-el__gallery-caption]
p6270
I2
sVplant
p6271
I2
sVey
p6272
I1
sVyear
p6273
I2
sVkagoshima
p6274
I1
sVnapolitano
p6275
I1
sVspace
p6276
I1
sVinfuriat
p6277
I1
sVprotections
p6278
I1
sV[bg-related__link]
p6279
I2
sVpharoah
p6280
I1
sVmontoya
p6281
I1
sVshows
p6282
I1
sVquito
p6283
I1
sVcamacol
p6284
I1
sV[media-100000003660676]
p6285
I1
sVmillion
p6286
I1
sVseventh
p6287
I1
sVargu
p6288
I1
sV20
p6289
I2
sVcalifornia
p6290
I1
sVitapril
p6291
I1
sV[media-100000003658527]
p6292
I1
sVturn
p6293
I1
sVswing
p6294
I1
sVfirst
p6295
I4
sVsuspend
p6296
I1
sV[theme-summary]
p6297
I8
sVone
p6298
I2
sV[enlarge_html]
p6299
I2
sVlong
p6300
I1
sVvote
p6301
I1
sVopen
p6302
I4
sVgeorge
p6303
I2
sV'em
p6304
I1
sVcity
p6305
I3
sVlittle
p6306
I2
sVlaw
p6307
I5
sV2
p6308
I5
sVdraft
p6309
I1
sVcarousel
p6310
I1
sVconvention
p6311
I1
sVwhite
p6312
I5
sVribeiro
p6313
I1
sVnetworksapril
p6314
I1
sVthat
p6315
I4
sVseason
p6316
I1
sV[most-read-widget-item-5]
p6317
I3
sVhillary
p6318
I1
sVshirley
p6319
I1
sVthan
p6320
I3
sV11
p6321
I3
sVwide
p6322
I1
sV13
p6323
I2
sV12
p6324
I4
sV15
p6325
I3
sV14
p6326
I3
sV17
p6327
I3
sV16
p6328
I2
sV19
p6329
I2
sV18
p6330
I3
sVr
p6331
I3
sVventure
p6332
I2
sVwere
p6333
I3
sVwatchtower
p6334
I1
sVrussia
p6335
I1
sVand
p6336
I35
sV[kicker-label]
p6337
I1
sVsan
p6338
I1
sVsam
p6339
I1
sV[js-video__end-slate__replay-text]
p6340
I1
sVrent
p6341
I1
sVtexassports
p6342
I1
sV[enlargebtn]
p6343
I2
sVkevin
p6344
I1
sV[byline-twitter-handles]
p6345
I1
sVphotosa
p6346
I1
sVtechniqu
p6347
I1
sVpressphoto
p6348
I2
sVgasper
p6349
I1
sVideas
p6350
I1
sVforc
p6351
I1
sVhorowitz
p6352
I1
sVperformance
p6353
I1
sVaspen
p6354
I3
sV[summary]
p6355
I1
sVfails
p6356
I1
sVrerout
p6357
I1
sV[has-adjacency]
p6358
I26
sVabus
p6359
I1
sVcomplaints
p6360
I1
sV[rg-hed]
p6361
I1
sVsurprising
p6362
I1
sV[bg-related]
p6363
I5
sVa30
p6364
I1
sV[js__video--standard]
p6365
I1
sVshow
p6366
I2
sVdannypsych
p6367
I1
sVbright
p6368
I1
sV[video__end-slate]
p6369
I1
sVmexican
p6370
I1
sVmaine
p6371
I1
sVground
p6372
I1
sV[comments-marginalia]
p6373
I18
sVtitle
p6374
I3
sV[content-ad-wrapper]
p6375
I4
sVjolt
p6376
I2
sVcrime
p6377
I1
sVblack
p6378
I1
sVtestif
p6379
I1
sVpahoa
p6380
I1
sVget
p6381
I3
sVplanalto
p6382
I1
sVjazz
p6383
I1
sVita
p6384
I1
sVgen
p6385
I2
sVreprints
p6386
I4
sV[metadata__source]
p6387
I1
sVphotospresident
p6388
I1
sV[el__leafmedia--raw-html]
p6389
I2
sVdarlington
p6390
I1
sVphotosjapan
p6391
I1
sVcollege
p6392
I3
sVisraeli
p6393
I1
sVphotossmoke
p6394
I1
sVreview
p6395
I1
sVoutside
p6396
I2
sVbureau
p6397
I1
sVbetween
p6398
I1
sVinfrastructure
p6399
I1
sVaugust
p6400
I2
sVmarvin
p6401
I1
sVdicampo
p6402
I4
sVjr
p6403
I3
sV[byline-sharetools-container]
p6404
I10
sVarticle
p6405
I2
sVfissure
p6406
I1
sVmany
p6407
I2
sVcars
p6408
I1
sVslamet
p6409
I1
sVcelebrat
p6410
I1
sg603
I21
sVsolarcraft
p6411
I1
sVimprov
p6412
I1
sVnearby
p6413
I1
sV[media__image]
p6414
I3
sVbrecht
p6415
I1
sVpor
p6416
I1
sV60
p6417
I1
sV[sharetools-story]
p6418
I10
sV[most-read-widget-item-4]
p6419
I3
sV68
p6420
I1
sVpoll
p6421
I1
sVcustody
p6422
I1
sV[js-media__caption]
p6423
I2
sV[fb-btn]
p6424
I2
sVbiobio
p6425
I1
sVwest
p6426
I3
sVmark
p6427
I1
sVphotosportrait
p6428
I1
sVscot
p6429
I2
sV[story-link]
p6430
I8
sV500
p6431
I1
sV[hideFromView]
p6432
I2
sS'<th>'
p6433
I1
sV[ad-wrapper]
p6434
I8
sVandrew
p6435
I2
sVplskdu5ewt
p6436
I1
sV[post-colon]
p6437
I1
sVformer
p6438
I1
sVthose
p6439
I1
sVcase
p6440
I2
sVisabella
p6441
I1
sV[carousel--full]
p6442
I2
sVthese
p6443
I2
sVmount
p6444
I1
sVstraighten
p6445
I1
sVcast
p6446
I1
sVstoriesdid
p6447
I3
sVeditorial
p6448
I2
sV[el__gallery-caption]
p6449
I2
sVdissident
p6450
I1
sVfami
p6451
I2
sVonlymaster'sadvance
p6452
I1
sVeveryday
p6453
I1
sVmisconductmay
p6454
I1
sVauthor
p6455
I1
sVpay
p6456
I3
sV[rg-container]
p6457
I1
sVbowl
p6458
I1
sVlava
p6459
I1
sVspeech
p6460
I1
sV[wide]
p6461
I7
sVevents
p6462
I1
sVweek
p6463
I1
sVdirector
p6464
I2
sVweep
p6465
I1
sVcosta
p6466
I1
sVpennsylvania
p6467
I1
sVsevere
p6468
I1
sVexecut
p6469
I3
sVagainapril
p6470
I1
sVactions
p6471
I1
sV[zn-body__footer]
p6472
I2
sV[inline-photo-normal]
p6473
I1
sVblow
p6474
I3
sVdeath
p6475
I2
sVresidents
p6476
I2
sVmcdonald
p6477
I1
sVrose
p6478
I1
sV4
p6479
I7
sVjake
p6480
I1
sVaround
p6481
I1
sVread
p6482
I99
sVmov
p6483
I1
sVglobemahoney
p6484
I1
sVworld
p6485
I5
sVrebecca
p6486
I1
sVfairgrounds
p6487
I1
sVaudience
p6488
I1
sVrea_
p6489
I1
sVt
p6490
I6
sVvandenbroucke
p6491
I1
sVcalbuco
p6492
I1
sV[js-ad-slide]
p6493
I2
sV[video__end-slate__replay]
p6494
I1
sV[story-info]
p6495
I1
sVcompetition
p6496
I1
sVfightersapril
p6497
I1
sVjoan
p6498
I1
sVgross
p6499
I1
sVstops
p6500
I1
sVsr1
p6501
I1
sV[media__image--responsive]
p6502
I3
sVbusiness
p6503
I2
sV[article-aside]
p6504
I8
sVfrancis
p6505
I1
sVoo
p6506
I1
sVon
p6507
I27
sVcentral
p6508
I2
sVorigins
p6509
I1
sVkeolis
p6510
I1
sVof
p6511
I31
sVviolence
p6512
I1
sVstand
p6513
I1
sVbrenham
p6514
I1
sVbarry
p6515
I1
sVor
p6516
I2
sVroad
p6517
I2
sVop
p6518
I2
sVimage
p6519
I1
sV[featured-comment-marginalia]
p6520
I6
sVburton
p6521
I1
sVyour
p6522
I3
sV20jeb
p6523
I1
sVher
p6524
I4
sVarea
p6525
I1
sVthere
p6526
I3
sV[ad--epic]
p6527
I3
sV[bg-related__body]
p6528
I5
sVstart
p6529
I1
sVlow
p6530
I3
sVbrazilian
p6531
I1
sVujdf6zdq2n
p6532
I1
sV[js__leafmedia--gallery]
p6533
I2
sV[media-100000003660674]
p6534
I1
sVbanksy
p6535
I3
sVcabinet
p6536
I1
sV[bar]
p6537
I1
sVwith
p6538
I21
sVpull
p6539
I1
sV[interactive-credit]
p6540
I3
sVoctober
p6541
I2
sVagree
p6542
I1
sV[img_wrap]
p6543
I2
sV[moses-ad]
p6544
I7
sVag
p6545
I2
sVrica
p6546
I1
sVshoulders
p6547
I1
sVan
p6548
I9
sVap
p6549
I5
sVas
p6550
I6
sVat
p6551
I19
sVfile
p6552
I3
sVwalks
p6553
I1
sVpolitics
p6554
I1
sV[horizontal]
p6555
I2
sVagain
p6556
I3
sVheather
p6557
I1
sVsulaiman
p6558
I1
sVgraduate
p6559
I2
sVdevicesapril
p6560
I1
sV5
p6561
I3
sV[g-text-width]
p6562
I1
sVyou
p6563
I1
sVleblond
p6564
I1
sV[interactive-overlay-text]
p6565
I3
sV10
p6566
I4
sVa1
p6567
I1
sVmassachusetts
p6568
I1
sVcoverage
p6569
I9
sVtackle
p6570
I1
sVhavana
p6571
I1
sVmcnamee
p6572
I1
sVwife
p6573
I1
sVphotos
p6574
I2
sVu
p6575
I1
sVredux
p6576
I1
sVall
p6577
I4
sVforget
p6578
I1
sVsuburban
p6579
I1
sVlack
p6580
I1
sV22about
p6581
I1
sV[el__headline]
p6582
I1
sVfuego
p6583
I1
sV[selected-comment-marginalia]
p6584
I6
sV[media-100000003659124]
p6585
I1
sVfollow
p6586
I9
sS'<figcaption>'
p6587
I42
sVchildren
p6588
I1
sVgriffin
p6589
I1
sVtv
p6590
I1
sVthursday
p6591
I1
sVto
p6592
I29
sVprogram
p6593
I2
sVsmee
p6594
I1
sVdifference
p6595
I2
sVcondition
p6596
I1
sVpbu
p6597
I1
sVheist
p6598
I1
sV[media__video--thumbnail]
p6599
I1
sVsaudi
p6600
I1
sVharry
p6601
I1
sVmanslaughter
p6602
I1
sVneighborhood
p6603
I1
sVclinch
p6604
I1
sVrate
p6605
I1
sVinvention
p6606
I1
sVlawyer
p6607
I1
sVwhat
p6608
I1
sVleora
p6609
I1
sVsection
p6610
I2
sVbrief
p6611
I1
sVphotosthe
p6612
I2
sVversion
p6613
I4
sV[caption]
p6614
I36
sV[text]
p6615
I1
sVpublic
p6616
I1
sV[el__leafmedia--twitter]
p6617
I2
sVnovember
p6618
I2
sV[labels]
p6619
I1
sV[accessibility-ad-header]
p6620
I7
sVbardarbunga
p6621
I1
sVsoldier
p6622
I1
sVairport
p6623
I1
sVpick
p6624
I4
sVaction
p6625
I1
sV[story-footer]
p6626
I4
sVtrainer
p6627
I1
sVvia
p6628
I2
sV[media-100000003660673]
p6629
I1
sVcatwalkmay
p6630
I1
sVwhile
p6631
I3
sV[related-links]
p6632
I3
sVselect
p6633
I1
sVeye
p6634
I1
sVmohamm
p6635
I4
sVtackl
p6636
I1
sVtwo
p6637
I5
sV6
p6638
I4
sVfuror
p6639
I1
sVinjury
p6640
I2
sVmore
p6641
I6
sVdoor
p6642
I1
sV[comment-prompt-marginalia]
p6643
I6
sVfloyd
p6644
I4
sV[el__gallery-photocount]
p6645
I2
sV[inner]
p6646
I1
sV[g-show-xlarge]
p6647
I1
sVtown
p6648
I2
sVhour
p6649
I1
sVpatroll
p6650
I1
sVdel
p6651
I2
sVlearn
p6652
I2
sV[rg-table]
p6653
I1
sVyemen
p6654
I1
sV[share-print]
p6655
I2
sVproblemmay
p6656
I1
sVprompt
p6657
I2
sVrodriguez
p6658
I1
sVambient
p6659
I1
sVshare
p6660
I10
sVtungurahua
p6661
I1
sV[most-read-widget-item-2]
p6662
I3
sVprotects
p6663
I1
sVhomicide
p6664
I1
sVinformation
p6665
I3
sVneeds
p6666
I1
sVevacuat
p6667
I1
sVdaiichi
p6668
I1
sVexplains
p6669
I1
sVfr
p6670
I1
sV[interactive-image]
p6671
I3
sVnotre
p6672
I1
sVjustin
p6673
I2
sV[dateline]
p6674
I11
sVff
p6675
I1
sS'<li>'
p6676
I19
sg2237
I34
sVcaus
p6677
I1
sV[upshot-share]
p6678
I1
sVfundamental
p6679
I1
sV[sharetools-inline-article-ad]
p6680
I11
sVbegan
p6681
I1
sVtallahassee
p6682
I1
sVhelp
p6683
I2
sVseptember
p6684
I2
sV[share-email]
p6685
I2
sS'<blockquote>'
p6686
I2
sV[youtube]
p6687
I2
sVtrade
p6688
I1
sVthermal
p6689
I1
sVpaper
p6690
I4
sVthrough
p6691
I2
sVcommittee
p6692
I1
sVsuffer
p6693
I1
sVavenue
p6694
I1
sVits
p6695
I3
sV24
p6696
I3
sV25
p6697
I5
sV26
p6698
I3
sV27
p6699
I3
sVcopahue
p6700
I1
sV21
p6701
I3
sV22
p6702
I2
sVjacoby
p6703
I1
sV28
p6704
I1
sV29
p6705
I3
sVreuters
p6706
I4
sVisaac
p6707
I1
sVargentina
p6708
I1
sVmight
p6709
I1
sValter
p6710
I1
sV[g-show-large]
p6711
I1
sVgood
p6712
I1
sVreturn
p6713
I2
sV[medium-rect]
p6714
I8
sVfood
p6715
I1
sVsinabung
p6716
I1
sV[attachment-large]
p6717
I2
sVassociation
p6718
I4
sVmystery
p6719
I1
sVmarcus
p6720
I1
sV[layout-flex-medium]
p6721
I1
sVmbta
p6722
I2
sVmosby
p6723
I3
sVisn't
p6724
I3
sVstatus
p6725
I1
sVneil
p6726
I1
sVhouse
p6727
I1
sVenergy
p6728
I2
sV[bg-related__button-text]
p6729
I5
sVhawaii
p6730
I1
sVexpect
p6731
I1
sV[bg-related__button]
p6732
I5
sVoperation
p6733
I1
sVevent
p6734
I2
sVperry
p6735
I1
sVcarandolet
p6736
I1
sVsince
p6737
I2
sVpublish
p6738
I2
sVresearch
p6739
I1
sVhealth
p6740
I1
sVhill
p6741
I1
sg2277
I3
sVprint
p6742
I4
sVitoggle
p6743
I2
sVtimeline
p6744
I1
sVfriday
p6745
I3
sVbulls
p6746
I1
sVpuu
p6747
I1
sVash
p6748
I1
sVbenefits
p6749
I1
sV[js-el__video__replayer-wrapper]
p6750
I1
sVbarbara
p6751
I1
sS'<i>'
p6752
I8
sVamericas
p6753
I1
sV[video__end-slate__top-wrapper]
p6754
I1
sVcaption
p6755
I4
sVamerican
p6756
I7
sVbusinessmen
p6757
I1
sVw
p6758
I2
sVnickerson
p6759
I2
sV[chart-footer]
p6760
I1
sVmajor
p6761
I2
sS'<nav>'
p6762
I2
sVdleonhardt
p6763
I1
sVbrave
p6764
I2
sVmiss
p6765
I1
sVstory
p6766
I85
sVguest
p6767
I1
sV[ratio-tall]
p6768
I17
sVinteract
p6769
I1
sVleast
p6770
I1
sV[module-heading]
p6771
I8
sVjeb
p6772
I1
sVpaint
p6773
I1
sVstation
p6774
I1
sVphotosbush
p6775
I1
sVecuador
p6776
I1
sVtfl
p6777
I1
sVbehind
p6778
I1
sV[nobg]
p6779
I1
sV[show-tablet]
p6780
I8
sVpart
p6781
I2
sV[number]
p6782
I1
sV[media-100000003657158]
p6783
I1
sVobama
p6784
I1
sVpyroclastic
p6785
I1
sVb
p6786
I2
sVmarshall
p6787
I1
sVbiobiochile
p6788
I1
sVlisten
p6789
I1
sVindonesia
p6790
I1
sVnoelle
p6791
I1
sV[robots-nocontent]
p6792
I67
sVairstrike
p6793
I1
sVgala
p6794
I1
sVmeltdown
p6795
I1
sVkaro
p6796
I1
sVsell
p6797
I1
sVwilson
p6798
I4
sVofficers
p6799
I3
sValso
p6800
I3
sVliv
p6801
I2
sVbuild
p6802
I1
sVdemczuk
p6803
I2
sVluncheon
p6804
I1
sVprovince
p6805
I1
sVplay
p6806
I3
sVelectric
p6807
I1
sVreach
p6808
I7
sVfreddie
p6809
I6
sVmost
p6810
I9
sVplan
p6811
I3
sV[media__video]
p6812
I1
sVseasons
p6813
I1
sVoyster
p6814
I3
sVmobile
p6815
I1
sVcover
p6816
I1
sVgabl
p6817
I1
sV[i]
p6818
I2
sVqbh
p6819
I1
sVmicrosoft
p6820
I5
sVgold
p6821
I1
sV[toggle-caption]
p6822
I2
sVtenet
p6823
I1
sV[imagewrap]
p6824
I2
sVfinn
p6825
I1
sV[g-label-14]
p6826
I1
sV[el__storyhighlights_wrapper]
p6827
I1
sVbillsdisbelief
p6828
I3
sVnorthern
p6829
I1
sVduncan
p6830
I1
sV[js-video__end-slate__replay]
p6831
I1
sVflights
p6832
I1
sVeruptions
p6833
I1
sV8
p6834
I3
sVhis
p6835
I4
sVnam
p6836
I1
sVcheaper
p6837
I1
sVbatter
p6838
I1
sVreporters
p6839
I2
sVhim
p6840
I3
sV[most-read-widget-item-1]
p6841
I3
sVbelichick
p6842
I2
sV[xxl-ad]
p6843
I10
sVriver
p6844
I1
sVsanaa
p6845
I1
sVtapril
p6846
I1
sVbars
p6847
I1
sVset
p6848
I1
sVart
p6849
I1
sVser
p6850
I2
sVactivists
p6851
I1
sVcnnbrk
p6852
I1
sVculture
p6853
I2
sVsee
p6854
I3
sVare
p6855
I8
sVdemonstrat
p6856
I1
sVthayer
p6857
I1
sS'<img>'
p6858
I12
sVprobable
p6859
I1
sVguinea
p6860
I1
sVplease
p6861
I1
sVwon
p6862
I1
sVlatin
p6863
I1
sVspray
p6864
I3
sVfranchise
p6865
I1
sVmarilyn
p6866
I3
sVboth
p6867
I1
sg5166
I2
sVlast
p6868
I5
sVputland
p6869
I1
sVsecrets
p6870
I1
sVannual
p6871
I1
sVforeign
p6872
I1
sVfinds
p6873
I1
sVbaltimore
p6874
I8
sVjeff
p6875
I1
sVbattery
p6876
I1
sVbelt
p6877
I5
sVjoan_vennochi
p6878
I1
sVraise
p6879
I1
sVpolitical
p6880
I1
sV[el__video__expand--standard]
p6881
I1
sVsecret
p6882
I2
sVofficersapril
p6883
I1
sVdur
p6884
I2
sVempty
p6885
I1
sVdame
p6886
I1
sVfirm
p6887
I1
sVpayoct
p6888
I1
sVimag
p6889
I10
sVgat
p6890
I1
sVgas
p6891
I1
sVgap
p6892
I1
sVcorner
p6893
I1
sVdemand
p6894
I1
sVphotosthen
p6895
I1
sVsteeplechaser
p6896
I3
sVpierce
p6897
I1
sVlook
p6898
I1
sVbill
p6899
I4
sV[module]
p6900
I8
sVgovernor
p6901
I1
sVinstitute
p6902
I2
sV[g-show-xsmall]
p6903
I1
sVris
p6904
I1
sVcollegesome
p6905
I1
sVcharl
p6906
I1
sVbernardo
p6907
I1
sVshar
p6908
I1
sVbangert
p6909
I1
sV[caption-text]
p6910
I24
sS'<ul>'
p6911
I25
sV9
p6912
I3
sVshak
p6913
I1
sVphotoswestern
p6914
I1
sVconflict
p6915
I2
sVsham
p6916
I1
sV42nd
p6917
I1
sVcomplicat
p6918
I1
sVflows
p6919
I1
sV[text-ad]
p6920
I9
sVplugs
p6921
I1
sVchang
p6922
I1
sVrecent
p6923
I1
sV[bg-related__text]
p6924
I5
sVanalysis
p6925
I3
sVpicks
p6926
I2
sVexpens
p6927
I1
sVorganization
p6928
I3
sVprevention
p6929
I1
sVdegreeassociate
p6930
I1
sVquestions
p6931
I1
sVtablet
p6932
I2
sVcup
p6933
I1
sS'<footer>'
p6934
I7
sVworkers
p6935
I1
sVbarack
p6936
I1
sVsource
p6937
I2
sVhomeland
p6938
I1
sValancar
p6939
I1
sVmarch
p6940
I3
sVemergency
p6941
I1
sVbig
p6942
I2
sV[comments-button]
p6943
I7
sV[visually-hidden]
p6944
I104
sVgame
p6945
I3
sVbaskets
p6946
I1
sVbout
p6947
I1
sVsignal
p6948
I1
sVcapitals
p6949
I1
sV[js-video__end-slate]
p6950
I1
sV[figure]
p6951
I1
sVcontinue
p6952
I90
sVpatriots
p6953
I2
sV[sharetools-label]
p6954
I10
sV[media-100000003657434]
p6955
I1
sV33rd
p6956
I1
sVback
p6957
I3
sVdelegation
p6958
I1
sVerupts
p6959
I3
sVnewsletter
p6960
I2
sV[bg-related--wide]
p6961
I5
sVchamber
p6962
I1
sVprov
p6963
I3
sVper
p6964
I1
sVeither
p6965
I1
sVbe
p6966
I12
sVrun
p6967
I1
sVeruption
p6968
I1
sVjumps
p6969
I1
sV[byline-author]
p6970
I1
sVflanks
p6971
I1
sVvincente
p6972
I1
sVby
p6973
I12
sV[lede-container]
p6974
I10
sVfaith
p6975
I1
sVpapua
p6976
I1
sVmasterpiec
p6977
I1
sV72
p6978
I1
sVdisclosure
p6979
I1
sVclinton
p6980
I1
sVinto
p6981
I7
sVsteven
p6982
I2
sVcontributor
p6983
I1
sVsports
p6984
I1
sV[bg-related__more]
p6985
I2
sVstatistics
p6986
I1
sVspan
p6987
I1
sVaccountablemay
p6988
I1
sVaccountability
p6989
I1
sVcharg
p6990
I4
sVforward
p6991
I1
sVimmigration
p6992
I1
sVgetty
p6993
I10
sVpacific
p6994
I1
sVline
p6995
I1
sV[nytg-chartmaker]
p6996
I1
sVpaolo
p6997
I1
sVmelanne
p6998
I1
sV[figcaption]
p6999
I8
sVup
p7000
I6
sVus
p7001
I2
sV[multimedia-template]
p7002
I3
sVplanet
p7003
I1
sVwindows
p7004
I1
sV[label]
p7005
I1
sS'<span>'
p7006
I73
sVprosecutor
p7007
I1
sVphotosformer
p7008
I1
sVkennebunkport
p7009
I1
sVbath
p7010
I1
sVgivens
p7011
I1
sV[most-read-widget-item]
p7012
I3
sVadults
p7013
I1
sVchad
p7014
I1
sVm
p7015
I1
sVquoapril
p7016
I1
sVinfluence
p7017
I1
sV[media-100000003645372]
p7018
I1
sVcotton
p7019
I1
sVparadox
p7020
I1
sVpeace
p7021
I1
sVbacks
p7022
I1
sV[first]
p7023
I2
sVnick
p7024
I1
sVnat
p7025
I1
sV[video__end-slate__engage__wrapper]
p7026
I1
sVviral
p7027
I3
sVevan
p7028
I2
sV[enlarge_measure]
p7029
I2
sVe
p7030
I2
sVvice
p7031
I1
sVkilauea
p7032
I1
sV2002
p7033
I2
sV2003
p7034
I1
sV2000
p7035
I1
sV2001
p7036
I1
sV2006
p7037
I1
sV2007
p7038
I1
sV2004
p7039
I2
sV2005
p7040
I2
sV[el__gallery_image-title]
p7041
I2
sVessay
p7042
I1
sVgo
p7043
I3
sVencrust
p7044
I1
sVsimon
p7045
I3
sVleung
p7046
I1
sVsuite
p7047
I1
sVmaryland
p7048
I1
sVfatal
p7049
I1
sVadviserfeb
p7050
I1
sVtorture
p7051
I2
sVfacebook
p7052
I2
sVdande
p7053
I1
sVnorthwestern
p7054
I1
sVharbor
p7055
I1
sVpositions
p7056
I1
sVjoel
p7057
I1
sVmichael
p7058
I1
sV[theme-classic]
p7059
I11
sVrace
p7060
I3
sVambato
p7061
I1
sVfriendliness
p7062
I1
sVprepar
p7063
I1
sVlogistics
p7064
I1
sVmural
p7065
I1
sVvideo
p7066
I10
sVvictor
p7067
I1
sVpower
p7068
I4
sVchicago
p7069
I1
sVpayday
p7070
I1
sVcapital
p7071
I2
sV;
p7072
I3
sVmauricio
p7073
I1
sVphotosmount
p7074
I1
sVdegree
p7075
I1
sVexchange
p7076
I1
sVgiant
p7077
I1
sV[post-load]
p7078
I2
sVbecom
p7079
I1
sVgreat
p7080
I1
sVonlybachelor
p7081
I1
sVwesley
p7082
I9
sV30
p7083
I7
sV35
p7084
I1
sV34
p7085
I1
sV[video-credit]
p7086
I1
sVopinion
p7087
I3
sVclimb
p7088
I1
sVvolc
p7089
I2
sVwin
p7090
I1
sVapp
p7091
I1
sVprivate
p7092
I1
sVmanny
p7093
I3
sVbuildup
p7094
I1
sVcloud
p7095
I1
sVuse
p7096
I2
sVfrom
p7097
I11
sVillegal
p7098
I1
sVnext
p7099
I1
sVsamina
p7100
I1
sV[js-cd__headline-text]
p7101
I1
sV[image]
p7102
I32
sVcolumba
p7103
I1
sV[el__storyelement__header]
p7104
I3
sVimpress
p7105
I1
sV[inline-content]
p7106
I2
sV[interactive-graphic]
p7107
I5
sVwomen
p7108
I6
sVaugment
p7109
I1
sVf
p7110
I1
sVthis
p7111
I19
sVride
p7112
I1
sVhousehusky
p7113
I3
sVisland
p7114
I1
sVmeet
p7115
I3
sVdrops
p7116
I1
sV[ad-placeholder]
p7117
I22
sVdo
p7118
I3
sV[story-heading]
p7119
I8
sVhigh
p7120
I3
sV[rg-source-and-credit]
p7121
I1
sVtab
p7122
I1
sV[el__gallery-showhide]
p7123
I2
sV[highlight]
p7124
I1
sVrape
p7125
I1
sVtak
p7126
I3
sV[lede]
p7127
I9
sVbathiche
p7128
I2
sVoverse
p7129
I1
sV[skip-nav]
p7130
I13
sS'<thead>'
p7131
I1
sVcamille
p7132
I1
sVbrian
p7133
I1
sV[bg-related__link--primary]
p7134
I5
sS'<tbody>'
p7135
I1
sVinstead
p7136
I1
sVattend
p7137
I4
sVstop
p7138
I1
sVwaters
p7139
I1
sVact
p7140
I1
sVgardner
p7141
I1
sVtack
p7142
I1
sS'<h4>'
p7143
I7
sVstrawberr
p7144
I1
sV[layout-large-vertical]
p7145
I4
sVguatemala
p7146
I1
sVissu
p7147
I2
sVchief
p7148
I3
sVwrit
p7149
I1
sS'<article>'
p7150
I8
sVsix
p7151
I1
sV[el__storyhighlights__list]
p7152
I1
sVmove
p7153
I1
sVlooks
p7154
I1
sV[limit-xsmall]
p7155
I1
sV[related-coverage-marginalia]
p7156
I8
sVblake
p7157
I1
sVla
p7158
I2
sVbrook
p7159
I1
sVsunday
p7160
I1
sVlabor
p7161
I1
sV[g-show-medium]
p7162
I1
sV2015
p7163
I22
sV2014
p7164
I4
sVholiday
p7165
I1
sV2011
p7166
I2
sV2013
p7167
I2
sV2012
p7168
I4
sV[el__video--standard]
p7169
I1
sV[nytg-chart]
p7170
I1
sVmaterial
p7171
I1
sVintelligentapril
p7172
I1
sVdocu
p7173
I1
sVdar
p7174
I1
sVhands
p7175
I1
sVfront
p7176
I1
sVrepublican
p7177
I1
sVday
p7178
I2
sVfebruary
p7179
I2
sV[img-expandable]
p7180
I2
sVanyth
p7181
I1
sVuniversity
p7182
I2
sVnfl
p7183
I1
sV[story]
p7184
I8
sS'<p>'
p7185
I83
sVmode
p7186
I1
sVbills
p7187
I1
sVglobe
p7188
I7
sV[l-container]
p7189
I1
sV88
p7190
I1
sV[middle-left-ad]
p7191
I10
sV82
p7192
I1
sVour
p7193
I1
sVacireale
p7194
I1
sVspecial
p7195
I2
sVout
p7196
I3
sVlonghorns
p7197
I2
sV[layout-small]
p7198
I5
sVren
p7199
I1
sVevacuation
p7200
I1
sVcause
p7201
I1
sVdefens
p7202
I1
sVpixelsense
p7203
I1
sVblackaswhite1
p7204
I1
sVtercera
p7205
I2
sVyork
p7206
I28
sVshum
p7207
I1
sV1983
p7208
I1
sVlexey
p7209
I3
sVroute
p7210
I1
sVpictur
p7211
I1
sVflorida
p7212
I2
sVghraib
p7213
I1
sVdavid
p7214
I3
sVnotebook
p7215
I1
sVdavis
p7216
I1
sV[interactive-summary]
p7217
I2
sVsouth
p7218
I1
sVchristoph
p7219
I1
sVpowerful
p7220
I1
sVbedsrussell
p7221
I3
sVlebond
p7222
I1
sS'<em>'
p7223
I2
sVsharon
p7224
I1
sVfestival
p7225
I1
sVsystem
p7226
I1
sVtheir
p7227
I3
sVpotts
p7228
I1
sVfinal
p7229
I2
sVgeorgetown
p7230
I1
sVotherwiseapril
p7231
I1
sV[marginalia]
p7232
I26
sVdetaine
p7233
I1
sVkamchatka
p7234
I1
sV[social-buttons]
p7235
I2
sVben
p7236
I3
sV[owl-filmstrip]
p7237
I2
sV[interactive-source]
p7238
I1
sVassociat
p7239
I2
sVspurt
p7240
I1
sV[el__gallery--fullstandardwidth]
p7241
I2
sVhave
p7242
I2
sVsen
p7243
I1
sVneed
p7244
I1
sVphotoslava
p7245
I1
sVsoak
p7246
I3
sVagency
p7247
I3
sVvalcarcel
p7248
I1
sVsh
p7249
I1
sVwhich
p7250
I2
sVagence
p7251
I1
sVbrazil
p7252
I2
sVcollaboration
p7253
I1
sVwho
p7254
I8
sS'<time>'
p7255
I11
sV[byline-dateline]
p7256
I3
sVevacuate
p7257
I1
sVwhy
p7258
I2
sVstatute
p7259
I1
sVfach
p7260
I1
sVfrederick
p7261
I1
sVbreb
p7262
I1
sVface
p7263
I1
sVdetermin
p7264
I1
sVson
p7265
I2
sV[pb-caption]
p7266
I2
sVanyway
p7267
I1
sV[credit-caption]
p7268
I2
sVneurotoxin
p7269
I3
sS'<h5>'
p7270
I1
sVrough
p7271
I1
sVdebate
p7272
I1
sVdecade
p7273
I1
sVstaff
p7274
I2
sVtapp
p7275
I1
sVjan
p7276
I1
sV[el__storyhighlights--normal]
p7277
I1
sVlocal
p7278
I2
sV[hidden]
p7279
I11
sV[el-carousel__wrapper]
p7280
I2
sVcontribut
p7281
I2
sVbeat
p7282
I1
sVjonchesto
p7283
I1
sVfallout
p7284
I1
sVincreas
p7285
I1
sVyears
p7286
I2
sVgray
p7287
I5
sVgraduat
p7288
I1
sVh
p7289
I2
sVteams
p7290
I2
sVshe
p7291
I4
sV[photo-credit]
p7292
I1
sVview
p7293
I7
sVfram
p7294
I1
sVofficial
p7295
I1
sV[interactive-overlay]
p7296
I3
sVnational
p7297
I1
sV[g-show-submedium]
p7298
I1
sVedition
p7299
I3
sVofficials
p7300
I1
sVnuclear
p7301
I1
sV[js-gallery-aspect-ratio-wrapper]
p7302
I2
sVstate
p7303
I6
sV[gplus-btn]
p7304
I2
sVed14
p7305
I1
sV[nocontent]
p7306
I67
sVjanet
p7307
I1
sVdeliver
p7308
I1
sV[credit]
p7309
I43
sVjob
p7310
I1
sVpolice
p7311
I6
sVjon
p7312
I1
sVapril
p7313
I15
sVco
p7314
I1
sVwall
p7315
I1
sVca
p7316
I1
sVsubscribe
p7317
I4
sVab
p7318
I1
sVfukushima
p7319
I1
sVtable
p7320
I1
sV[body]
p7321
I2
sVattende
p7322
I1
sV[cn-list-hierarchical-xs]
p7323
I1
sVvideos
p7324
I1
sVgillette
p7325
I1
sV[eln-sul]
p7326
I1
sV[rg-subhed]
p7327
I1
sVtreat
p7328
I1
sVgaza
p7329
I1
sV[layout-small-horizontal]
p7330
I2
sV[layout-large]
p7331
I2
sVpuerto
p7332
I1
sVmike
p7333
I1
sVtreasur
p7334
I1
sVeverglad
p7335
I1
sV[story-meta]
p7336
I4
sVscrutiny
p7337
I1
sVontake
p7338
I1
sVgraphics
p7339
I1
sVcriminal
p7340
I1
sVbrasilia
p7341
I1
sVwill
p7342
I2
sVvolin
p7343
I2
sV[cd__headline]
p7344
I1
sVresident
p7345
I1
sVsite
p7346
I1
sVsurface
p7347
I2
sVbystanders
p7348
I1
sVpartner
p7349
I2
sVvolcanism
p7350
I1
sVbrekken
p7351
I1
sVplum
p7352
I1
sVgoddess
p7353
I1
sVtapper
p7354
I1
sVeric
p7355
I1
sVpkgs
p7356
I1
sVandroid
p7357
I1
sVgett
p7358
I2
sVpowell
p7359
I1
sVhttp
p7360
I4
sVreceiver
p7361
I1
sVdiploma
p7362
I1
sVdai
p7363
I3
sV[twitter-btn]
p7364
I2
sVdestruction
p7365
I1
sVrift
p7366
I1
sVoff
p7367
I7
sVcenter
p7368
I2
sV[twitter-tweet]
p7369
I2
sg2768
I4
sV[js-owl-filmstrip]
p7370
I2
sVwell
p7371
I1
sVbohn
p7372
I1
sVsets
p7373
I1
sVlatest
p7374
I1
sVnewest
p7375
I1
sVtavurvur
p7376
I1
sVgeller
p7377
I2
sVdistant
p7378
I1
sVrooms
p7379
I1
sVglobechadfinn
p7380
I1
sVsmith
p7381
I1
sVarrest
p7382
I2
sVother
p7383
I2
sV[sharetools]
p7384
I11
sVcrack
p7385
I1
sVmatch
p7386
I1
sVinterrogation
p7387
I2
sVbrookline
p7388
I1
sVburden
p7389
I1
sVpress
p7390
I3
sV[owl-carousel]
p7391
I2
sVlincoln
p7392
I1
sVpacheco
p7393
I1
sVlike
p7394
I3
sVlost
p7395
I1
sVmiami
p7396
I1
sVgangsters
p7397
I1
sVbecome
p7398
I1
sVworks
p7399
I1
sVpage
p7400
I14
sVbecause
p7401
I2
sVtwitter
p7402
I9
sVlibrary
p7403
I1
sVhome
p7404
I4
sVpeter
p7405
I4
sVthiev
p7406
I1
sV[zebra]
p7407
I1
sVlead
p7408
I1
sVoutgo
p7409
I1
sVleav
p7410
I1
sV[el__storyelement__title]
p7411
I3
sV?
p7412
I8
sVslight
p7413
I1
sVcamile
p7414
I1
sVslut
p7415
I1
sVpressure
p7416
I1
sVhost
p7417
I1
sV[story-content]
p7418
I4
sVpanel
p7419
I1
sV[most-read-widget-item-3]
p7420
I3
sVabout
p7421
I6
sVescanilla
p7422
I1
sVcolumn
p7423
I1
sVactualizado
p7424
I1
sV[right]
p7425
I8
sVrevisa
p7426
I1
sVvennochi
p7427
I1
sVvibywiucjs
p7428
I1
sVwashington
p7429
I3
sS'<strong>'
p7430
I2
sVassess
p7431
I1
sVguard
p7432
I1
sVprofessionaldoctoral13
p7433
I1
sVfemale
p7434
I1
sVmarketapril
p7435
I1
sV1986
p7436
I1
sVadditional
p7437
I1
sV[inline-photo-right]
p7438
I1
sVmuseum
p7439
I1
sV[el__leafmedia--storyhighlights]
p7440
I1
sVsmil
p7441
I1
sV[g-show-smallplus]
p7442
I1
sVnorth
p7443
I3
sVfunds
p7444
I1
sVbut
p7445
I5
sVbum
p7446
I1
sVhighest
p7447
I3
sVhe
p7448
I4
sg4227
I2
sVtroubl
p7449
I1
sVbelow
p7450
I13
sV[el__storyelements--expand]
p7451
I1
sVrealmjan
p7452
I1
sVpic
p7453
I2
sVphotosjeb
p7454
I1
sVeducation
p7455
I3
sVjenna
p7456
I1
sV47
p7457
I1
sV40
p7458
I1
sV41
p7459
I1
sVbook
p7460
I2
sVmass
p7461
I2
sVdiplomah
p7462
I1
sVconclusion
p7463
I1
sVstat
p7464
I1
sVfrancisco
p7465
I1
sVstar
p7466
I1
sVmargaret
p7467
I1
sV[most-read-container]
p7468
I8
sVbaker
p7469
I1
sVwatchedresidents
p7470
I1
ssg5650
I236
ss.