(dp0
S'headline'
p1
(dp2
S'Token_counts'
p3
(dp4
S'<a>'
p5
I1
sVapple
p6
I1
sVbattery
p7
I1
sVwww
p8
I1
sS'<h1>'
p9
I1
sV[permalink]
p10
I1
sV04
p11
I1
sVapril
p12
I1
sVplease
p13
I1
sV,
p14
I2
sV.
p15
I1
sS'<header>'
p16
I1
sV2015
p17
I1
sVoutliers
p18
I1
sVmore
p19
I1
sVmarco
p20
I1
sVhttp
p21
I1
sS'<h2>'
p22
I1
sVwatch
p23
I1
sS'<time>'
p24
I1
sV[printonly]
p25
I1
sVorg
p26
I1
sV17
p27
I1
sS'<p>'
p28
I1
sS'<span>'
p29
I1
sV[noprint]
p30
I1
ssS'Doc_count'
p31
I2
ssS'article'
p32
(dp33
S'Token_counts'
p34
(dp35
V
p36
I1
sVjirgas
p37
I1
sVworkaholism
p38
I1
sVfoul
p39
I1
sVnarcotic
p40
I1
sVfour
p41
I32
sVwoods
p42
I4
sVpayoff
p43
I1
sVauthorit
p44
I4
sVelectricity
p45
I6
sVauthoriz
p46
I1
sVimamate
p47
I1
sVdigit
p48
I2
sVoceans
p49
I1
sVwjz
p50
I2
sVdisturb
p51
I2
sVbasics
p52
I1
sVprize
p53
I1
sVwednesday
p54
I6
sVreliable
p55
I1
sVswitchblade
p56
I1
sVpulse
p57
I1
sVsecond
p58
I23
sVsooth
p59
I1
sVruthless
p60
I1
sVfossil
p61
I2
sVdatabank
p62
I1
sVincreasing
p63
I4
sVherm
p64
I1
sVreporter
p65
I3
sVavery
p66
I1
sVhere
p67
I20
sVreported
p68
I2
sVchina
p69
I3
sVsoutherners
p70
I2
sVpersonifi
p71
I1
sVplumlee
p72
I1
sVk
p73
I13
sVreports
p74
I5
sVcontroversy
p75
I1
sVfumbl
p76
I1
sVmilitary
p77
I12
sVi'm
p78
I3
sVcriticism
p79
I3
sVgolden
p80
I1
sVhamas
p81
I7
sVpsychological
p82
I10
sVsett
p83
I1
sVunit
p84
I11
sVspoke
p85
I5
sVmusic
p86
I5
sVtherefore
p87
I2
sVuntil
p88
I11
sVsuccessful
p89
I4
sVbrings
p90
I1
sVrelat
p91
I5
sVhurt
p92
I1
sV98
p93
I1
sVexce
p94
I1
sV90
p95
I3
sVhole
p96
I5
sVhold
p97
I8
sV95
p98
I1
sVantagoniz
p99
I1
sVpursue
p100
I2
sVexhale
p101
I1
sVexample
p102
I7
sVhousehold
p103
I1
sVcaution
p104
I1
sVwant
p105
I44
sVorganizer
p106
I1
sVgargantuan
p107
I1
sVabsolute
p108
I2
sVprovincial
p109
I2
sVwinkenwerder
p110
I1
sVtravel
p111
I2
sVhom
p112
I6
sVfeature
p113
I2
sVclassifi
p114
I1
sVrevisit
p115
I1
sVhow
p116
I39
sVhot
p117
I2
sVhop
p118
I2
sVsignificance
p119
I1
sVperspect
p120
I5
sVcredential
p121
I1
sVregional
p122
I1
sVstoller
p123
I1
sVinvitation
p124
I1
sVmodest
p125
I2
sVreshap
p126
I1
sVvance
p127
I1
sVeffective
p128
I3
sVwins
p129
I1
sVyouths
p130
I1
sVrevolt
p131
I1
sVheadquarters
p132
I4
sVdemocratic
p133
I3
sVhellbent
p134
I1
sVwind
p135
I4
sVsenators
p136
I3
sVvary
p137
I1
sVhandcuff
p138
I2
sVvari
p139
I2
sVfir
p140
I3
sVfit
p141
I3
sVrankings
p142
I3
sVfix
p143
I3
sVstevens
p144
I3
sVpritchard
p145
I1
sVadmirable
p146
I1
sVeasier
p147
I2
sVfil
p148
I3
sVglorify
p149
I1
sVproce
p150
I1
sVeffects
p151
I4
sVschools
p152
I13
sVyourself
p153
I2
sVsilver
p154
I1
sVskills
p155
I7
sVvolcano
p156
I5
sVfinancial
p157
I2
sVblinder
p158
I1
sVspider
p159
I1
sVborne
p160
I1
sVmayah
p161
I1
sVre
p162
I34
sVencourage
p163
I1
sVmillions
p164
I3
sVcomplicat
p165
I4
sV[story-footer]
p166
I4
sValert
p167
I1
sVenormous
p168
I2
sVmcqueen
p169
I1
sVsilicon
p170
I1
sV1970s
p171
I2
sVmedicaid
p172
I2
sVconfus
p173
I1
sVmingl
p174
I1
sVwash
p175
I1
sVwasn
p176
I5
sV177
p177
I1
sVpulsar
p178
I1
sV172
p179
I1
sV170
p180
I1
sVservice
p181
I7
sVunderstat
p182
I1
sVmaster
p183
I2
sVfocal
p184
I1
sVmiller
p185
I2
sVremote
p186
I1
sVlisten
p187
I1
sVmckinsey
p188
I4
sVwisdom
p189
I5
sVsurer
p190
I1
sVnations
p191
I2
sVshower
p192
I1
sVwillingness
p193
I1
sVboston
p194
I16
sVunprecedent
p195
I1
sVdozen
p196
I3
sVaffairs
p197
I6
sVconcrete
p198
I2
sVresponsible
p199
I2
sVdoors
p200
I2
sVlayoffs
p201
I1
sVobject
p202
I1
sVdebonair
p203
I1
sVmetrics
p204
I1
sVtoil
p205
I1
sVgallagher
p206
I1
sVletter
p207
I2
sVmacbook
p208
I7
sVthriller
p209
I1
sVsinger
p210
I1
sVchemistry
p211
I1
sVantitrust
p212
I1
sVmajd
p213
I1
sVprofessor
p214
I6
sVprisons
p215
I1
sVtech
p216
I5
sVscream
p217
I2
sVcame
p218
I4
sVincorporate
p219
I2
sVbomb
p220
I2
sVreactor
p221
I1
sVpric
p222
I7
sVpriz
p223
I1
sVbomp
p224
I1
sVparticipate
p225
I2
sVheadline
p226
I1
sVbust
p227
I1
sVbush
p228
I25
sVrick
p229
I2
sVmend
p230
I1
sVrice
p231
I2
sVbadam
p232
I1
sVserv
p233
I1
sVpsychiatric
p234
I1
sVnew
p235
I53
sVrelish
p236
I1
sVrelease
p237
I5
sVfait
p238
I1
sVdisaster
p239
I2
sVfair
p240
I1
sVresult
p241
I6
sVfail
p242
I6
sVbest
p243
I10
sVoceanic
p244
I1
sVambitions
p245
I1
sVlots
p246
I1
sVspecializ
p247
I1
sVfigur
p248
I2
sVscore
p249
I2
sVimprimatur
p250
I1
sVpreserve
p251
I2
sVhorological
p252
I1
sVmen
p253
I7
sVnationwide
p254
I2
sVextens
p255
I3
sVextent
p256
I3
sVcarbon
p257
I3
sVadvertis
p258
I2
sVdebt
p259
I5
sVaccident
p260
I2
sVdisdain
p261
I1
sVcountry
p262
I12
sVunemploy
p263
I2
sVmisguid
p264
I1
sVconcentrat
p265
I2
sVlogic
p266
I3
sVargue
p267
I1
sVschmooze
p268
I1
sVand
p269
I432
sVassur
p270
I1
sVirresponsible
p271
I1
sVpregnancy
p272
I1
sV250
p273
I1
sVassum
p274
I2
sV255
p275
I1
sVpenalize
p276
I1
sVinvestors
p277
I2
sVrangers
p278
I2
sVunion
p279
I18
sVfri
p280
I1
sV.
p281
I665
sVsubsidy
p282
I1
sVmuch
p283
I29
sV[inline-video-caption]
p284
I1
sVgraphical
p285
I1
sVspit
p286
I1
sVeastern
p287
I3
sVworker
p288
I3
sVwish
p289
I4
sVkids
p290
I5
sVchile
p291
I7
sVdoubts
p292
I1
sVcommerce
p293
I1
sVpresidency
p294
I1
sVemploy
p295
I2
sVcalcium
p296
I1
sVmarriag
p297
I1
sVcharacterize
p298
I1
sVelicit
p299
I1
sVhygienist
p300
I1
sVsongwrit
p301
I4
sVmemorial
p302
I1
sVthings
p303
I10
sVrebellion
p304
I1
sVradioecology
p305
I1
sVharmony
p306
I1
sVbid
p307
I1
sVeuropean
p308
I1
sVownership
p309
I1
sVtuna
p310
I1
sVfeatherweight
p311
I1
sVtune
p312
I1
sVslotnik
p313
I1
sVacademic
p314
I2
sVcorporate
p315
I5
sVopinions
p316
I1
sVsleeps
p317
I1
sVwaterboard
p318
I1
sVprevious
p319
I4
sVbroncos
p320
I1
sVeasi
p321
I3
sVhad
p322
I74
sVeasy
p323
I4
sVendur
p324
I1
sVeast
p325
I2
sVhat
p326
I1
sVhav
p327
I6
sVelders
p328
I1
sVpossible
p329
I6
sVshadow
p330
I1
sVreplace
p331
I1
sVwelterweightness
p332
I1
sVdesire
p333
I1
sVmeasur
p334
I3
sVoncor
p335
I2
sVremind
p336
I2
sVsteps
p337
I3
sVgroundwater
p338
I1
sVstepp
p339
I1
sVbonkers
p340
I1
sVattorney
p341
I7
sVright
p342
I24
sVold
p343
I19
sVcrowd
p344
I2
sVpeople
p345
I55
sVlandfall
p346
I1
sVconsultants
p347
I6
sVfor
p348
I218
sVcontinue
p349
I7
sVperiphery
p350
I1
sVdental
p351
I2
sVcolleg
p352
I8
sVmemorable
p353
I1
sVdollars
p354
I4
sVcitizens
p355
I1
sVsealver
p356
I1
sVo
p357
I16
sVvonage
p358
I1
sVpalestinians
p359
I1
sVmatch
p360
I3
sVson
p361
I5
sVadminister
p362
I3
sVsox
p363
I3
sVunambiguous
p364
I2
sVmalcom
p365
I1
sValtitude
p366
I1
sVhappi
p367
I1
sVjoseph
p368
I1
sVbloomington
p369
I1
sVhalls
p370
I1
sVheadach
p371
I1
sVoffer
p372
I8
sVarrays
p373
I1
sVinside
p374
I6
sVcomplications
p375
I1
sVpanels
p376
I5
sVpassenger
p377
I2
sVjuvenile
p378
I1
sVadopt
p379
I2
sVliberal
p380
I2
sVexist
p381
I3
sVelon
p382
I4
sVeventual
p383
I5
sVfloor
p384
I3
sVcrowns
p385
I3
sVrepublic
p386
I2
sVjenkins
p387
I2
sVdevelopers
p388
I2
sVroll
p389
I2
sVintend
p390
I1
sVmodels
p391
I5
sVdevot
p392
I1
sVmuslims
p393
I1
sVyellowstone
p394
I1
sVeulitt
p395
I1
sVsociet
p396
I1
sVglass
p397
I3
sVtime
p398
I55
sVpush
p399
I10
sVcincinnati
p400
I1
sVchain
p401
I2
sVwhoever
p402
I1
sVdecid
p403
I4
sVcrater
p404
I1
sVprepaid
p405
I1
sVspate
p406
I1
sVchoice
p407
I3
sVwharton
p408
I2
sVembark
p409
I2
sVstays
p410
I1
sVmultistory
p411
I1
sVminute
p412
I1
sVleave
p413
I4
sVsettle
p414
I1
sVteam
p415
I12
sVloads
p416
I1
sVprevent
p417
I3
sVrents
p418
I1
sVfindings
p419
I7
sVsign
p420
I4
sVheavyweight
p421
I1
sVshirts
p422
I1
sVrelocat
p423
I1
sVheadset
p424
I2
sVjeopardy
p425
I1
sVabdullah
p426
I1
sVcurrent
p427
I13
sVboost
p428
I1
sVjury
p429
I1
sS'<sup>'
p430
I6
sVgladys
p431
I1
sVaddress
p432
I4
sValone
p433
I3
sValong
p434
I5
sVenroll
p435
I6
sVbrilliant
p436
I1
sVfledgl
p437
I1
sVabsenteeism
p438
I1
sVtasks
p439
I1
sVlove
p440
I6
sVsanta
p441
I1
sVprefer
p442
I1
sVhousemat
p443
I1
sVfake
p444
I4
sVfuqua
p445
I2
sVgrimmest
p446
I1
sVundergone
p447
I1
sVpredictions
p448
I1
sVgroundbreak
p449
I2
sVfilms
p450
I2
sVprosecutor
p451
I13
sVapparent
p452
I2
sVenhanc
p453
I3
sVignorant
p454
I1
sVbehalf
p455
I1
sVfourths
p456
I1
sVpretend
p457
I1
sVstrain
p458
I2
sVoffense
p459
I1
sVwinter
p460
I4
sVvancouver
p461
I1
sVsnaps
p462
I2
sVexplorer
p463
I1
sVspot
p464
I1
sVapplications
p465
I2
sVcardiac
p466
I1
sVsuch
p467
I19
sVdata
p468
I6
sVstress
p469
I4
sVnatural
p470
I7
sVoculus
p471
I1
sVapplicant
p472
I1
sVsu
p473
I1
sVso
p474
I51
sVsb
p475
I1
sVse
p476
I4
sVdevonshire
p477
I1
sVunacceptable
p478
I1
sVyears
p479
I44
sVcourse
p480
I10
sVexperiments
p481
I1
sVunfavorable
p482
I1
sVcelebrate
p483
I1
sVbipartisan
p484
I1
sVcivilian
p485
I1
sVnation
p486
I4
sVrecords
p487
I3
sVakron
p488
I1
sVrunners
p489
I1
sVfreya
p490
I2
sVdidn
p491
I18
sVquarter
p492
I2
sVquartet
p493
I1
sVsquare
p494
I2
sVsponsor
p495
I1
sVcanvas
p496
I1
sVinvestigation
p497
I9
sVinternet
p498
I1
sVformula
p499
I1
sVfacedown
p500
I1
sVmillion
p501
I7
sVseventh
p502
I2
sVpossibility
p503
I1
sVquite
p504
I4
sVrecordings
p505
I2
sVbenioff
p506
I1
sVreisner
p507
I1
sVwrong
p508
I4
sVmassive
p509
I1
sVneglect
p510
I1
sVspoken
p511
I1
sVone
p512
I98
sVspanish
p513
I2
sVvote
p514
I5
sVons
p515
I1
sVopen
p516
I14
sVlanguish
p517
I3
sVbrochur
p518
I1
sVcity
p519
I9
sV2
p520
I20
sVdraft
p521
I9
sVwilliams
p522
I4
sVvoyce
p523
I1
sVridiculous
p524
I1
sVprocter
p525
I3
sVfuture
p526
I8
sVsophia
p527
I1
sVillness
p528
I1
sVsan
p529
I4
sVsal
p530
I1
sVafternoons
p531
I1
sValleg
p532
I1
sVsay
p533
I34
sVbalkaniz
p534
I1
sVallen
p535
I8
sVsaw
p536
I6
sVsat
p537
I6
sVaside
p538
I1
sVzon
p539
I3
sVmasse
p540
I1
sVgoodman
p541
I1
sVtake
p542
I17
sVdestroy
p543
I3
sVmayer
p544
I1
sVnoth
p545
I6
sVprinter
p546
I1
sVcapitalist
p547
I1
sVopposite
p548
I1
sVknew
p549
I7
sV[has-adjacency]
p550
I1
sVabus
p551
I3
sVremarks
p552
I1
sVenamel
p553
I1
sVaverage
p554
I10
sVphil
p555
I1
sVsale
p556
I1
sVfederal
p557
I9
sVmessier
p558
I1
sVlink
p559
I2
sVlaws
p560
I4
sVmurmurs
p561
I1
sVinconsistent
p562
I1
sVaggressive
p563
I2
sVslot
p564
I1
sVslow
p565
I8
sVinterrogations
p566
I5
sVoberndorf
p567
I1
sVtears
p568
I2
sVcongressional
p569
I3
sVcarolina
p570
I1
sVassistant
p571
I1
sVrecruiters
p572
I1
sVrequir
p573
I6
sVartist
p574
I5
sVborrow
p575
I1
sVworkweek
p576
I1
sVroger
p577
I2
sVwhere
p578
I17
sVsnapback
p579
I1
sVvision
p580
I3
sVespn
p581
I2
sVisabel
p582
I1
sVdeadlin
p583
I1
sVsurgery
p584
I2
sVdibella
p585
I3
sV830
p586
I1
sVkilometer
p587
I1
sVjobs
p588
I12
sVmature
p589
I1
sVscreen
p590
I7
sVsupermarket
p591
I1
sVawards
p592
I1
sVshortag
p593
I1
sVundermine
p594
I1
sVoust
p595
I1
sVresidence
p596
I1
sVcelebrat
p597
I1
sVpersonal
p598
I4
sVs
p599
I250
sVworkplace
p600
I3
sVanti
p601
I1
sVpowerpack
p602
I1
sVconsiders
p603
I1
sVteddy
p604
I1
sVstretch
p605
I5
sVtoothpaste
p606
I1
sVvacation
p607
I2
sVbreath
p608
I1
sVwants
p609
I5
sV38mm
p610
I1
sVthousand
p611
I5
sVmechanicals
p612
I1
sVphotos
p613
I2
sVobserve
p614
I1
sVformer
p615
I17
sVisabella
p616
I1
sVconsultant
p617
I3
sVtribal
p618
I6
sVpolls
p619
I1
sVnewspaper
p620
I2
sVsituation
p621
I3
sVblar
p622
I1
sVpurse
p623
I1
sVconvinc
p624
I1
sVbros
p625
I1
sVfami
p626
I15
sVtechnology
p627
I17
sVivy
p628
I1
sVshutt
p629
I1
sVsurveillance
p630
I1
sVvandalism
p631
I1
sVbreakdown
p632
I2
sVassigns
p633
I1
sVoceanographic
p634
I1
sVdefy
p635
I1
sVcheers
p636
I1
sVrenewable
p637
I4
sVpsychiatrists
p638
I2
sVisotop
p639
I1
sVcosts
p640
I6
sVtrains
p641
I2
sVsummer
p642
I4
sV215
p643
I1
sV210
p644
I1
sVpakistan
p645
I4
sVrest
p646
I3
sVfateful
p647
I1
sVstopwatch
p648
I2
sVsilverberg
p649
I2
sVaround
p650
I24
sVsums
p651
I2
sVunveil
p652
I1
sVretract
p653
I1
sVtraffic
p654
I6
sVinsist
p655
I3
sVacronyms
p656
I1
sVworld
p657
I23
sVdare
p658
I1
sVclan
p659
I3
sVintel
p660
I2
sVmanag
p661
I9
sVsuperintendent
p662
I1
sVmagma
p663
I1
sVthinks
p664
I2
sVstrewn
p665
I1
sVnoon
p666
I3
sVdefinit
p667
I1
sVjuggernaut
p668
I1
sV911
p669
I3
sVkurkjian
p670
I1
sVcontingent
p671
I1
sVpower
p672
I26
sVleadership
p673
I2
sVstone
p674
I2
sVpackage
p675
I1
sVindustry
p676
I13
sVfavorite
p677
I3
sVstoni
p678
I1
sVacr
p679
I1
sVact
p680
I9
sVmean
p681
I5
sVstony
p682
I1
sVheadsets
p683
I1
sVimage
p684
I5
sVwads
p685
I1
sVher
p686
I32
sVhey
p687
I2
sVhea
p688
I3
sVhec
p689
I3
sVhem
p690
I1
sVbubble
p691
I1
sVcomplete
p692
I7
sVconclud
p693
I3
sVamplifi
p694
I1
sVcategor
p695
I4
sVpull
p696
I5
sVrush
p697
I2
sVoctober
p698
I2
sVagree
p699
I8
sVgone
p700
I4
sVad
p701
I1
sVcreat
p702
I11
sVah
p703
I1
sVam
p704
I2
sVal
p705
I9
sVan
p706
I121
sVbutterfl
p707
I2
sVas
p708
I139
sVat
p709
I163
sVwalks
p710
I5
sVcreak
p711
I1
sVvocational
p712
I3
sVgraduate
p713
I12
sVtight
p714
I1
sVsummit
p715
I1
sVreimagin
p716
I1
sVcongress
p717
I3
sVa4
p718
I1
sVoriginat
p719
I1
sVtricks
p720
I1
sVlapaglia
p721
I1
sVmass
p722
I5
sVnelson
p723
I2
sVbehavioral
p724
I5
sVoriginal
p725
I2
sVextricat
p726
I1
sVessay
p727
I2
sVconsider
p728
I8
sVdebris
p729
I2
sVfairness
p730
I1
sVty
p731
I2
sVtv
p732
I2
sVtr
p733
I2
sVchampions
p734
I4
sVto
p735
I452
sVth
p736
I14
sVti
p737
I2
sVsmile
p738
I1
sVintroduc
p739
I5
sVdetention
p740
I1
sVmanageable
p741
I1
sVcondition
p742
I4
sVsans
p743
I1
sVlashkars
p744
I1
sVheist
p745
I1
sVcolleagu
p746
I10
sVlarge
p747
I23
sVadjust
p748
I1
sVharry
p749
I1
sVsmall
p750
I12
sVexhilarat
p751
I1
sVpast
p752
I13
sVdisplays
p753
I1
sVpass
p754
I6
sVrichard
p755
I1
sVdisruptions
p756
I1
sVsection
p757
I1
sVcenters
p758
I1
sV[caption]
p759
I1
sVscientists
p760
I7
sVcorker
p761
I3
sVconundrums
p762
I1
sVcontrast
p763
I3
sVhasn
p764
I2
sVfull
p765
I12
sVinstallations
p766
I2
sVempower
p767
I3
sVhours
p768
I18
sVsmartest
p769
I1
sVcivilians
p770
I1
sVnovember
p771
I3
sVintroductory
p772
I1
sVcompliance
p773
I1
sVexperience
p774
I4
sVprior
p775
I2
sVatelier
p776
I1
sVpick
p777
I16
sVaction
p778
I5
sVskepticism
p779
I1
sVreactors
p780
I1
sVdepart
p781
I9
sVselect
p782
I7
sVdk001
p783
I1
sVmort
p784
I1
sVmorn
p785
I3
sVautomate
p786
I1
sV6
p787
I10
sVrhea
p788
I1
sVmore
p789
I84
sVearthshak
p790
I1
sVdoor
p791
I4
sVcompany
p792
I36
sVpossession
p793
I1
sVdoom
p794
I1
sVbedford
p795
I2
sVzaydi
p796
I1
sVscience
p797
I6
sVmall
p798
I1
sVlearn
p799
I11
sVmale
p800
I2
sVprompt
p801
I1
sVscan
p802
I2
sVrodriguez
p803
I4
sVchalleng
p804
I2
sVsuggestions
p805
I1
sVaccept
p806
I3
sVstater
p807
I1
sVsense
p808
I4
sVgallon
p809
I1
sVdress
p810
I1
sVinformation
p811
I2
sVfruition
p812
I1
sVearnings
p813
I1
sVplant
p814
I1
sVplans
p815
I4
sVentrepreneurship
p816
I1
sVsoundtrack
p817
I1
sVplane
p818
I1
sVwaver
p819
I1
sVimpassion
p820
I1
sVethics
p821
I2
sVresemble
p822
I1
sVregister
p823
I1
sVfundamental
p824
I3
sVpans
p825
I1
sVnighter
p826
I1
sVfaricy
p827
I2
sVtrade
p828
I3
sVstylus
p829
I2
sVattitude
p830
I1
sVpaper
p831
I5
sVscott
p832
I2
sVsigns
p833
I2
sVinstaller
p834
I1
sVturbine
p835
I1
sVits
p836
I66
sVreschedul
p837
I1
sVwry
p838
I1
sVgadget
p839
I4
sValways
p840
I12
sVachiev
p841
I1
sVfound
p842
I20
sVshocking
p843
I1
sVinvestigators
p844
I1
sVstatus
p845
I1
sVengland
p846
I1
sVreduce
p847
I2
sVclockwork
p848
I1
sVrasha
p849
I1
sVpsychology
p850
I3
sVviisble
p851
I1
sVresearch
p852
I26
sVrace
p853
I2
sVoccurr
p854
I4
sVoccurs
p855
I1
sVbelief
p856
I1
sVatms
p857
I1
sVbeliev
p858
I3
sVimagine
p859
I4
sVdirector
p860
I6
sVowners
p861
I1
sVstruggl
p862
I3
sVw
p863
I11
sVcontingency
p864
I1
sVmajor
p865
I8
sVnumber
p866
I8
sVdiffer
p867
I1
sVheads
p868
I2
sVguest
p869
I1
sVjeb
p870
I2
sVflimsy
p871
I1
sVhotb
p872
I1
sVcalculations
p873
I1
sVrelationship
p874
I4
sVzeus
p875
I1
sVimmediate
p876
I4
sVdemonstrations
p877
I1
sVconsult
p878
I7
sVtheater
p879
I1
sVobama
p880
I10
sViranian
p881
I2
sVvocal
p882
I1
sVpennsylvania
p883
I2
sVcomput
p884
I2
sVfights
p885
I2
sVpackag
p886
I1
sVgraffiti
p887
I1
sVcleverness
p888
I1
sVsell
p889
I3
sVself
p890
I2
sVreliance
p891
I2
sValso
p892
I58
sVinternal
p893
I6
sVplay
p894
I19
sVplan
p895
I6
sVplac
p896
I8
sVtpg
p897
I1
sVunderstands
p898
I1
sVcovet
p899
I1
sVcover
p900
I6
sVartistic
p901
I1
sVfashions
p902
I1
sVmicrosoft
p903
I39
sVtaxi
p904
I1
sVgolf
p905
I1
sVcruiser
p906
I1
sVmidwestern
p907
I1
sVclog
p908
I1
sVimpact
p909
I10
sVineffect
p910
I1
sVwriter
p911
I1
sVfactor
p912
I4
sVbernstein
p913
I1
sVgiants
p914
I1
sVtricia
p915
I1
sVsunny
p916
I1
sVresent
p917
I2
sVgavin
p918
I1
sVreporters
p919
I5
sVenemy
p920
I1
sVbelichick
p921
I2
sVriven
p922
I1
sVobscure
p923
I1
sVbuesseler
p924
I5
sV319
p925
I1
sVset
p926
I11
sVser
p927
I8
sVoverwhelm
p928
I4
sVactivists
p929
I4
sVsex
p930
I1
sVseg
p931
I2
sVsee
p932
I17
sVmauricio
p933
I1
sVsea
p934
I3
sVpolish
p935
I2
sVsen
p936
I2
sVanalog
p937
I2
sVproject
p938
I5
sVbaritone
p939
I1
sVmovie
p940
I2
sVeurope
p941
I1
sVtristar
p942
I1
sVprospects
p943
I2
sVlast
p944
I49
sVinfluential
p945
I1
sVconnection
p946
I1
sVpoverty
p947
I1
sVwhole
p948
I5
sVload
p949
I2
sVvolcanic
p950
I2
sVelectrician
p951
I1
sVbell
p952
I1
sVschedul
p953
I7
sVloan
p954
I1
sVholmdahl
p955
I2
sVcommunity
p956
I8
sVagents
p957
I1
sVchurch
p958
I1
sVbelt
p959
I8
sVdefang
p960
I1
sVdevic
p961
I5
sVgeoffrey
p962
I1
sVdevis
p963
I1
sVfirm
p964
I16
sVchampion
p965
I6
sVfire
p966
I1
sVcsnne
p967
I1
sVfund
p968
I4
sVtowns
p969
I1
sVfunk
p970
I1
sVmlb
p971
I1
sVuncertain
p972
I1
sVstraight
p973
I3
sVmls
p974
I1
sVswim
p975
I2
sVpound
p976
I2
sVmotors
p977
I3
sVcomport
p978
I1
sVchase
p979
I2
sVmint
p980
I1
sVshorten
p981
I1
sVread
p982
I5
sVstacy
p983
I1
sVlevels
p984
I5
sVrabie
p985
I1
sVnecessity
p986
I2
sVstack
p987
I1
sVinfamous
p988
I1
sVrecent
p989
I27
sVpicks
p990
I2
sVperson
p991
I6
sVexpens
p992
I6
sVsimp
p993
I6
sVwearable
p994
I1
sVreaders
p995
I2
sVeager
p996
I2
sVparents
p997
I6
sVputnam
p998
I1
sVcordon
p999
I1
sVdemands
p1000
I3
sVcouple
p1001
I1
sVyemenis
p1002
I1
sVabound
p1003
I1
sVbureaucrac
p1004
I1
sVprojects
p1005
I2
sVformal
p1006
I2
sVd
p1007
I15
sVspine
p1008
I2
sVconsensus
p1009
I1
sVcommunications
p1010
I1
sVindividuals
p1011
I1
sVstylish
p1012
I1
sVmighti
p1013
I1
sVmethods
p1014
I1
sV1325
p1015
I1
sVsenate
p1016
I5
sVacknowledg
p1017
I5
sVbouncy
p1018
I1
sVsampl
p1019
I2
sVpall
p1020
I1
sVpalo
p1021
I1
sVgreener
p1022
I1
sVmeasurements
p1023
I1
sVbenefit
p1024
I7
sVrecogniz
p1025
I2
sVbe
p1026
I138
sVbb
p1027
I1
sVbr
p1028
I3
sVvitals
p1029
I1
sVby
p1030
I135
sVmyhrvold
p1031
I1
sVzip
p1032
I1
sVambush
p1033
I1
sVlibert
p1034
I1
sVsiliga
p1035
I1
sVmouth
p1036
I1
sVrepair
p1037
I1
sVcomputational
p1038
I1
sVclinton
p1039
I2
sVinto
p1040
I37
sVdoubters
p1041
I1
sVappropriate
p1042
I2
sVintegrat
p1043
I2
sVkatie
p1044
I1
sVoccupi
p1045
I2
sVspac
p1046
I2
sVcustom
p1047
I1
sVcrackdown
p1048
I1
sVsuit
p1049
I2
sVregulator
p1050
I1
sVelsewhere
p1051
I3
sVretina
p1052
I2
sVbluefin
p1053
I1
sVatlantic
p1054
I6
sVcompetition
p1055
I2
sVatom
p1056
I1
sVline
p1057
I10
sVconsiderable
p1058
I3
sVup
p1059
I71
sVus
p1060
I37
sVum
p1061
I1
sVmaturity
p1062
I2
sVun
p1063
I2
sVuk
p1064
I1
sVcit
p1065
I6
sValarm
p1066
I1
sVpencil
p1067
I1
sVshowtime
p1068
I1
sVnighttime
p1069
I1
sVinfluence
p1070
I3
sVoccasional
p1071
I3
sVswirl
p1072
I1
sVpolonium
p1073
I1
sVago
p1074
I12
sVlane
p1075
I2
sVland
p1076
I5
sVage
p1077
I1
sVfeud
p1078
I2
sVbeverage
p1079
I1
sVwalker
p1080
I3
sVensenada
p1081
I1
sVsquatt
p1082
I1
sVmonterey
p1083
I1
sVcode
p1084
I1
sVadvisory
p1085
I2
sVresults
p1086
I5
sVslick
p1087
I2
sVlegal
p1088
I20
sVencrust
p1089
I1
sVyoung
p1090
I6
sVsens
p1091
I1
sVsent
p1092
I4
sVgarden
p1093
I1
sVtorture
p1094
I6
sVtri
p1095
I4
sVnorthwestern
p1096
I2
sVmagic
p1097
I5
sVtre
p1098
I1
sVeve
p1099
I1
sVfewer
p1100
I3
sVtry
p1101
I11
sVqaeda
p1102
I2
sVmarri
p1103
I3
sVtru
p1104
I3
sVlogistics
p1105
I1
sVvehicl
p1106
I3
sVvideo
p1107
I15
sVdynamics
p1108
I1
sVvictor
p1109
I1
sVhouthi
p1110
I1
sVfirms
p1111
I8
sVslabs
p1112
I1
sVlee
p1113
I5
sVlet
p1114
I10
sVoctave
p1115
I1
sVlew
p1116
I1
sVfifteen
p1117
I2
sVgreat
p1118
I10
sVtechnical
p1119
I4
sVcasino
p1120
I1
sVtechnolog
p1121
I5
sVsurvey
p1122
I1
sVderby
p1123
I4
sVresidents
p1124
I4
sVmarc
p1125
I2
sVsgt
p1126
I2
sVcounsels
p1127
I1
sVtools
p1128
I1
sVconfidence
p1129
I1
sVcertificate
p1130
I1
sVillegal
p1131
I3
sVupgrad
p1132
I1
sVnext
p1133
I11
sVeleven
p1134
I1
sVbonds
p1135
I1
sVcommut
p1136
I1
sVmidday
p1137
I1
sVgivens
p1138
I1
sVconfiscate
p1139
I1
sV[story-body-text]
p1140
I329
sVintegrate
p1141
I1
sVbaby
p1142
I4
sVgambl
p1143
I1
sVcustomer
p1144
I1
sVhigh
p1145
I14
sVanimals
p1146
I2
sVthis
p1147
I108
sVchallenge
p1148
I4
sVclients
p1149
I6
sVinsists
p1150
I1
sVemerson
p1151
I2
sVthin
p1152
I2
sVweaker
p1153
I1
sVprocess
p1154
I5
sVlock
p1155
I1
sVcoolness
p1156
I1
sVwilfork
p1157
I3
sVrode
p1158
I1
sVdepiction
p1159
I1
sVbend
p1160
I1
sVdelay
p1161
I1
sVclogg
p1162
I1
sVcartier
p1163
I1
sVespecial
p1164
I9
sVblocks
p1165
I3
sVgardner
p1166
I1
sVfits
p1167
I1
sVidalene
p1168
I1
sVshuman
p1169
I1
sVfitt
p1170
I1
sVcounter
p1171
I3
sVissu
p1172
I9
sVwrit
p1173
I1
sVallow
p1174
I11
sVvolunteers
p1175
I1
sVhouston
p1176
I1
sVproducer
p1177
I2
sVmove
p1178
I8
sVwarren
p1179
I2
sVperfect
p1180
I4
sVchosen
p1181
I1
sVkelley
p1182
I4
sV2019
p1183
I2
sV2015
p1184
I6
sVpuerto
p1185
I4
sVdecad
p1186
I9
sV2016
p1187
I4
sV2011
p1188
I6
sV2010
p1189
I3
sV2013
p1190
I10
sV2012
p1191
I3
sVphysicians
p1192
I1
sVdesigns
p1193
I2
sVseatbelt
p1194
I1
sVbelch
p1195
I1
sVrepercussions
p1196
I1
sVstrateg
p1197
I1
sVseawater
p1198
I1
sVkiss
p1199
I1
sVrotation
p1200
I1
sVpopularizer
p1201
I1
sVrealize
p1202
I1
sVpresidential
p1203
I5
sVanyth
p1204
I7
sVbetty
p1205
I1
sVtruth
p1206
I4
sVhomogeneous
p1207
I1
sVactivit
p1208
I3
sVbooks
p1209
I2
sVirritation
p1210
I1
sVbay
p1211
I2
sVwander
p1212
I1
sVwitness
p1213
I1
sVboutique
p1214
I1
sVvalve
p1215
I1
sVsubmerg
p1216
I1
sVhanoun
p1217
I1
sVburke
p1218
I1
sVarchitecture
p1219
I3
sVshut
p1220
I3
sVunwieldy
p1221
I1
sVtempt
p1222
I1
sVshum
p1223
I6
sVlexey
p1224
I1
sVgallons
p1225
I1
sVcould
p1226
I47
sVdavid
p1227
I6
sVlength
p1228
I1
sVdavis
p1229
I2
sVrespond
p1230
I8
sV450
p1231
I1
sVscene
p1232
I1
sVowner
p1233
I2
sVisolat
p1234
I1
sVhourlynerd
p1235
I1
sVlos
p1236
I4
sVlicens
p1237
I1
sVsystem
p1238
I12
sVsergeant
p1239
I6
sVnpr
p1240
I2
sVsongwriters
p1241
I2
sVinterests
p1242
I1
sVenernoc
p1243
I8
sVdetaine
p1244
I2
sVelite
p1245
I2
sVhaven
p1246
I3
sVbother
p1247
I1
sVassociat
p1248
I3
sVsteep
p1249
I1
sVsteer
p1250
I1
sVfalse
p1251
I7
sVmuir
p1252
I1
sVtonight
p1253
I2
sVreceptionist
p1254
I1
sVdocuments
p1255
I6
sVsoak
p1256
I1
sVaccuracy
p1257
I2
sVdevice
p1258
I6
sVsternlieb
p1259
I1
sVstronger
p1260
I2
sVface
p1261
I12
sVmechanical
p1262
I2
sVfact
p1263
I7
sVatmosphere
p1264
I1
sV[pb-caption]
p1265
I3
sVhadramawt
p1266
I2
sVbring
p1267
I1
sVgreenhouse
p1268
I1
sVrough
p1269
I6
sVeconomist
p1270
I5
sVdecade
p1271
I7
sVprincipal
p1272
I1
sVnois
p1273
I1
sVstamps
p1274
I1
sVshould
p1275
I22
sVbuttons
p1276
I1
sVjam
p1277
I5
sVsuppos
p1278
I3
sVintrigu
p1279
I1
sVflinch
p1280
I1
sVhope
p1281
I4
sVmeant
p1282
I4
sVmeans
p1283
I6
sVfamiliar
p1284
I1
sVlucky
p1285
I1
sVautor
p1286
I3
sVgpus
p1287
I1
sVh
p1288
I5
sVsummon
p1289
I1
sVextremists
p1290
I3
sVohio
p1291
I1
sVnoodl
p1292
I1
sVframe
p1293
I2
sVedition
p1294
I1
sVparticl
p1295
I1
sVcoils
p1296
I1
sVwire
p1297
I2
sVsuperhero
p1298
I1
sVextend
p1299
I5
sVnuclear
p1300
I7
sVpartisan
p1301
I1
sVinjustice
p1302
I2
sVlegitimize
p1303
I1
sVemail
p1304
I12
sVshiite
p1305
I1
sVends
p1306
I2
sVcomebacks
p1307
I1
sVconfiguration
p1308
I1
sVrestrictions
p1309
I1
sVla
p1310
I1
sVramp
p1311
I1
sVhauls
p1312
I1
sVco
p1313
I3
sVcm
p1314
I1
sVconclude
p1315
I1
sVlabor
p1316
I8
sVundergraduate
p1317
I1
sVoutsider
p1318
I1
sVobstacl
p1319
I1
sVwaste
p1320
I1
sVfudan
p1321
I1
sVpsychotherapist
p1322
I1
sV2014
p1323
I11
sVrunway
p1324
I1
sVpomus
p1325
I1
sVchernobyl
p1326
I2
sVva
p1327
I1
sVpurchas
p1328
I4
sVve
p1329
I13
sVlush
p1330
I2
sVhardware
p1331
I6
sVvs
p1332
I2
sVsits
p1333
I2
sVsitt
p1334
I4
sVransom
p1335
I1
sVhubbard
p1336
I2
sVandroid
p1337
I1
sVcompetit
p1338
I2
sVball
p1339
I1
sVcolumbia
p1340
I3
sVraymond
p1341
I1
sVexpans
p1342
I1
sVforecasts
p1343
I1
sVdust
p1344
I1
sVexpand
p1345
I1
sVoff
p1346
I35
sVphilippin
p1347
I1
sVpatterns
p1348
I3
sVexampl
p1349
I2
sVcommand
p1350
I1
sVshackl
p1351
I2
sVdepict
p1352
I1
sVlegendary
p1353
I2
sVless
p1354
I14
sVmoments
p1355
I3
sVgeller
p1356
I19
sVpaul
p1357
I1
sVweb
p1358
I2
sVresidential
p1359
I1
sVarrest
p1360
I17
sVcombine
p1361
I2
sVmcphatter
p1362
I1
sVwet
p1363
I1
sVcompet
p1364
I1
sVpiec
p1365
I1
sVcruz
p1366
I1
sVpassword
p1367
I1
sVrecurr
p1368
I1
sVschmitz
p1369
I1
sVresin
p1370
I1
sVgarage
p1371
I1
sVimprison
p1372
I4
sVbecome
p1373
I12
sVindications
p1374
I1
sVincent
p1375
I1
sVfootage
p1376
I2
sVconservat
p1377
I2
sVguarante
p1378
I1
sVthiev
p1379
I1
sVtransport
p1380
I6
sVavoid
p1381
I5
sVdemonstrators
p1382
I1
sVbreakout
p1383
I1
sVbelal
p1384
I1
sVschedule
p1385
I3
sVpressure
p1386
I2
sVcelebrit
p1387
I1
sVstage
p1388
I2
sVputs
p1389
I2
sVingest
p1390
I1
sVchrome
p1391
I1
sVmassachusetts
p1392
I2
sVletters
p1393
I1
sVerrands
p1394
I1
sVassess
p1395
I3
sVtiny
p1396
I2
sVjoyce
p1397
I1
sVroads
p1398
I1
sVmere
p1399
I7
sVmerg
p1400
I1
sVdockside
p1401
I1
sVsnyder
p1402
I3
sVspots
p1403
I1
sVpeters
p1404
I1
sVfrustration
p1405
I2
sVupris
p1406
I1
sVfunction
p1407
I2
sVfunnel
p1408
I1
sVcosmopolitan
p1409
I1
sVdelivery
p1410
I1
sVconstruction
p1411
I3
sVapollo
p1412
I2
sVcount
p1413
I7
sVbehemoth
p1414
I1
sVofficial
p1415
I10
sVsmooth
p1416
I2
sVconvince
p1417
I2
sVdistribution
p1418
I1
sVthrew
p1419
I1
sVrecognize
p1420
I1
sVrubble
p1421
I2
sVlife
p1422
I20
sVreplica
p1423
I2
sVo'malley
p1424
I1
sVinc
p1425
I1
sVmushroom
p1426
I1
sVvariety
p1427
I2
sVsharia
p1428
I1
sVsexual
p1429
I2
sVdetails
p1430
I5
sVfrisbee
p1431
I1
sVmonday
p1432
I5
sVfootprints
p1433
I1
sVchance
p1434
I4
sVrepeal
p1435
I3
sVexposure
p1436
I1
sVoutsourc
p1437
I2
sVrule
p1438
I2
sVshutkin
p1439
I1
sVlift
p1440
I3
sVcompete
p1441
I1
sVdefend
p1442
I4
sVparalegals
p1443
I1
sVchild
p1444
I5
sVdesirable
p1445
I1
sVtenuous
p1446
I1
sVrelationships
p1447
I2
sVspew
p1448
I1
sVedward
p1449
I4
sVworth
p1450
I2
sVgeology
p1451
I2
sVblanket
p1452
I1
sVdistort
p1453
I1
sVsellers
p1454
I1
sVwe'll
p1455
I1
sVdaydream
p1456
I1
sVincorporat
p1457
I1
sVruebusch
p1458
I1
sVsuite
p1459
I1
sVreinvent
p1460
I1
sVchew
p1461
I1
sS'<a>'
p1462
I107
sVhord
p1463
I1
sVinstitutionaliz
p1464
I1
sVpresidio
p1465
I6
sVbrill
p1466
I1
sVhors
p1467
I1
sVlongstand
p1468
I2
sVsupervis
p1469
I1
sVstardom
p1470
I1
sVdeliberate
p1471
I1
sVreconstruction
p1472
I1
sVconsequenc
p1473
I3
sVtold
p1474
I19
sVfeghali
p1475
I1
sVprotection
p1476
I1
sVdaughter
p1477
I2
sVstudy
p1478
I11
sVsmoke
p1479
I2
sVstudi
p1480
I1
sVreasonab
p1481
I1
sVsecure
p1482
I4
sVseven
p1483
I4
sVattitud
p1484
I1
sVhindsight
p1485
I1
sVatrium
p1486
I1
sVtotal
p1487
I7
sVpalestinian
p1488
I2
sVcomcast
p1489
I1
sVindiana
p1490
I2
sVcontaminat
p1491
I1
sVplenitude
p1492
I1
sVconclusions
p1493
I2
sVsupergroup
p1494
I1
sVaware
p1495
I4
sVmust've
p1496
I1
sV1991
p1497
I1
sV1990
p1498
I3
sV1993
p1499
I2
sV1995
p1500
I3
sVwore
p1501
I2
sV1997
p1502
I2
sVrestor
p1503
I1
sV1999
p1504
I1
sV1998
p1505
I1
sVwork
p1506
I76
sVworn
p1507
I1
sVera
p1508
I4
sVbennett
p1509
I3
sVindia
p1510
I1
sVrecovery
p1511
I1
sVcarriers
p1512
I1
sVprovide
p1513
I4
sVoperativ
p1514
I1
sVinterview
p1515
I8
sVordinary
p1516
I1
sVbeach
p1517
I2
sVgamble
p1518
I3
sVlan
p1519
I3
sVfever
p1520
I1
sVafter
p1521
I46
sVtackle
p1522
I5
sV[box]
p1523
I2
sVlaw
p1524
I24
sVarch
p1525
I1
sVlas
p1526
I1
sVhomeowners
p1527
I4
sVretort
p1528
I1
sVgreet
p1529
I1
sVundermatch
p1530
I1
sVsupermarkets
p1531
I1
sVgreek
p1532
I1
sVgreen
p1533
I4
sVaboveground
p1534
I1
sVorder
p1535
I9
sVoffice
p1536
I28
sVendors
p1537
I2
sVconsent
p1538
I2
sVfundrais
p1539
I3
sVboutchard
p1540
I1
sVelevat
p1541
I1
sVmisconduct
p1542
I9
sVmayor
p1543
I1
sVadolescence
p1544
I1
sVsomewhere
p1545
I1
sVhighlights
p1546
I1
sVchristie
p1547
I8
sVdenver
p1548
I1
sVoffic
p1549
I3
sVproduction
p1550
I1
sVsplit
p1551
I1
sVthen
p1552
I24
sVthem
p1553
I41
sVsafe
p1554
I7
sVbreak
p1555
I5
sVband
p1556
I3
sVbang
p1557
I2
sVthey
p1558
I101
sVbann
p1559
I1
sVbank
p1560
I3
sVgregorio
p1561
I1
sVl
p1562
I15
sVreasonable
p1563
I1
sVcarlos
p1564
I2
sVdownshift
p1565
I1
sVmeets
p1566
I1
sVcouncils
p1567
I1
sVnetwork
p1568
I9
sVcameras
p1569
I2
sVdaniel
p1570
I1
sVmedicine
p1571
I1
sVthorough
p1572
I1
sVarpeggios
p1573
I1
sVstandard
p1574
I1
sVadmits
p1575
I1
sV[story-subheading]
p1576
I9
sVadmitt
p1577
I3
sVmvp
p1578
I1
sVreconfigur
p1579
I1
sVdispersal
p1580
I1
sVoppose
p1581
I1
sVrender
p1582
I1
sVmessag
p1583
I3
sVanother
p1584
I27
sVthick
p1585
I2
sVelectronic
p1586
I3
sVcentrifuge
p1587
I1
sVtimothy
p1588
I1
sVdogg
p1589
I1
sVingen
p1590
I1
sVupshot
p1591
I1
sVjohn
p1592
I3
sV40th
p1593
I1
sVdogs
p1594
I1
sVgrandchildren
p1595
I1
sVoffhand
p1596
I1
sVtarget
p1597
I6
sVprovid
p1598
I6
sVforensic
p1599
I1
sViron
p1600
I1
sVdesign
p1601
I7
sVminut
p1602
I7
sVnavigate
p1603
I1
sVsubsid
p1604
I1
sVstrength
p1605
I2
sVgenuine
p1606
I3
sVwiden
p1607
I1
sVladen
p1608
I1
sVlatter
p1609
I1
sVcasual
p1610
I1
sVsubjects
p1611
I1
sVluxury
p1612
I3
sVcurfew
p1613
I2
sVbruce
p1614
I1
sV[footnotes]
p1615
I2
sVprohibitive
p1616
I1
sVanatomy
p1617
I1
sVautopsy
p1618
I1
sVgrave
p1619
I2
sVexcus
p1620
I1
sValumni
p1621
I3
sVbrief
p1622
I2
sVfacto
p1623
I1
sVinvolv
p1624
I10
sVjust
p1625
I51
sVguidance
p1626
I1
sVadequate
p1627
I2
sVpersonality
p1628
I1
sVdo
p1629
I63
sVdi
p1630
I6
sVde
p1631
I2
sVleisure
p1632
I1
sVdy
p1633
I1
sVdr
p1634
I10
sVchanel
p1635
I1
sVruns
p1636
I4
sVemi
p1637
I1
sVanalytical
p1638
I1
sVsteam
p1639
I1
sVsecretary
p1640
I2
sVpeshawar
p1641
I1
sVobserver
p1642
I1
sVanalytics
p1643
I1
sVdepends
p1644
I2
sVdiscussions
p1645
I1
sVmiserable
p1646
I1
sVdraws
p1647
I1
sVaway
p1648
I12
sVunable
p1649
I2
sVdrawn
p1650
I2
sVaccord
p1651
I25
sVterms
p1652
I1
sVwo
p1653
I1
sVhandful
p1654
I3
sVunfold
p1655
I1
sVclimate
p1656
I1
sVpsychologists
p1657
I10
sVbrav
p1658
I1
sVill
p1659
I1
sVrecruiter
p1660
I1
sVproliferat
p1661
I1
sVdevotion
p1662
I1
sVbrad
p1663
I2
sVrequests
p1664
I1
sVcom
p1665
I16
sVtough
p1666
I2
sVseizure
p1667
I2
sVguid
p1668
I1
sVtelecommunications
p1669
I1
sVspeak
p1670
I5
sVpetty
p1671
I1
sVbuffett
p1672
I1
sVrevenu
p1673
I1
sVflexible
p1674
I2
sVdozens
p1675
I3
sVpartnership
p1676
I4
sVbaum
p1677
I1
sVprison
p1678
I6
sVhas
p1679
I110
sVahead
p1680
I1
sVair
p1681
I7
sVaid
p1682
I7
sVvoice
p1683
I5
sVmistake
p1684
I1
sVthursdays
p1685
I1
sVseparatist
p1686
I1
sVdizzy
p1687
I1
sVexile
p1688
I1
sVstint
p1689
I1
sVperform
p1690
I7
sVjerry
p1691
I1
sV[media__caption]
p1692
I1
sVgrapple
p1693
I1
sVwheel
p1694
I1
sVindependent
p1695
I8
sVclosings
p1696
I1
sVcounterparts
p1697
I2
sVhand
p1698
I6
sVrais
p1699
I4
sVtraffick
p1700
I1
sVkept
p1701
I2
sVscenario
p1702
I2
sV1978
p1703
I1
sV1977
p1704
I2
sV1976
p1705
I1
sV1975
p1706
I1
sVdriv
p1707
I3
sV1973
p1708
I1
sV1972
p1709
I1
sV1971
p1710
I1
sVclient
p1711
I5
sVthe
p1712
I584
sVcamps
p1713
I1
sVmclean
p1714
I1
sVathletic
p1715
I1
sVphoto
p1716
I2
sVmid
p1717
I1
sVthanks
p1718
I2
sVstepdaughter
p1719
I1
sVunique
p1720
I1
sVphotographer
p1721
I1
sVjosh
p1722
I1
sVshout
p1723
I2
sVspread
p1724
I2
sVboard
p1725
I11
sVarab
p1726
I1
sVboxer
p1727
I1
sVunification
p1728
I3
sVmays
p1729
I1
sVdesigners
p1730
I1
sVbpd
p1731
I2
sVxbox
p1732
I2
sVconfid
p1733
I1
sVnight
p1734
I13
sVsecurity
p1735
I12
sVfluoride
p1736
I1
sVsixt
p1737
I2
sVnegat
p1738
I1
sS'<noscript>'
p1739
I1
sVborn
p1740
I1
sVflatten
p1741
I1
sVcriminology
p1742
I1
sVcomments
p1743
I2
sVparticipation
p1744
I1
sVpose
p1745
I1
sVpost
p1746
I6
sVhackensack
p1747
I2
sVmonths
p1748
I4
sVobv
p1749
I7
sVpays
p1750
I1
sVprisoners
p1751
I2
sVprofession
p1752
I3
sVformidable
p1753
I1
sVwak
p1754
I1
sVwag
p1755
I5
sVwad
p1756
I2
sVlegislation
p1757
I1
sVfight
p1758
I15
sVclinical
p1759
I1
sVway
p1760
I24
sVwav
p1761
I2
sVwas
p1762
I160
sVwar
p1763
I8
sVpeninsula
p1764
I3
sVtrue
p1765
I6
sVisis
p1766
I1
sVgchat
p1767
I1
sVmaximum
p1768
I3
sVdovetails
p1769
I1
sVcrystal
p1770
I1
sVcomplaint
p1771
I1
sVemotional
p1772
I3
sVretir
p1773
I2
sVmoore
p1774
I5
sVtesla
p1775
I14
sVopportunistic
p1776
I1
sVevidence
p1777
I3
sS'<figure>'
p1778
I2
sVphysical
p1779
I2
sVstake
p1780
I1
sVtesa
p1781
I1
sVreality
p1782
I6
sVtest
p1783
I9
sVoperators
p1784
I3
sVheyday
p1785
I1
sVbrothers
p1786
I2
sVupdate
p1787
I7
sVyardage
p1788
I1
sVoutdat
p1789
I1
sVradioactivity
p1790
I1
sVbedd
p1791
I1
sVtogether
p1792
I4
sVloyal
p1793
I2
sVclassmate
p1794
I1
sVlineup
p1795
I3
sVsongs
p1796
I1
sVconcept
p1797
I1
sVbroke
p1798
I1
sV[b]
p1799
I8
sVdance
p1800
I4
sVconsum
p1801
I1
sVbattle
p1802
I1
sVkillings
p1803
I1
sVzone
p1804
I1
sVgigs
p1805
I1
sVdonnel
p1806
I1
sVhumm
p1807
I1
sVterror
p1808
I3
sVdartmouth
p1809
I1
sVbrown
p1810
I16
sVeducat
p1811
I1
sVvegas
p1812
I1
sVkitten
p1813
I4
sVtrouble
p1814
I2
sVbrows
p1815
I1
sVfragile
p1816
I1
sVgun
p1817
I8
sVp
p1818
I29
sV[zn-body__paragraph]
p1819
I47
sVguy
p1820
I3
sVrevolution
p1821
I5
sVdiscover
p1822
I1
sVcost
p1823
I6
sVcargo
p1824
I1
sVappear
p1825
I9
sVassistance
p1826
I5
sVappeal
p1827
I2
sVunravell
p1828
I1
sVexplosion
p1829
I1
sVhololens
p1830
I16
sVstrontium
p1831
I3
sVappears
p1832
I7
sVchange
p1833
I9
sVdepositions
p1834
I1
sVmacintosh
p1835
I1
sVregardless
p1836
I1
sVextra
p1837
I1
sVmarked
p1838
I1
sVnero
p1839
I2
sVfirearm
p1840
I1
sVmarket
p1841
I17
sVprove
p1842
I3
sVangela
p1843
I1
sVtape
p1844
I3
sVcommissioner
p1845
I4
sVclue
p1846
I1
sVdarrelle
p1847
I1
sVorganizations
p1848
I4
sVgraphic
p1849
I1
sVcas
p1850
I3
sVcar
p1851
I6
sVprepar
p1852
I6
sVcap
p1853
I1
sVcat
p1854
I1
sVhardest
p1855
I1
sVgathers
p1856
I1
sVcan
p1857
I63
sVheart
p1858
I5
sVspr
p1859
I3
sVdidn't
p1860
I3
sV1980s
p1861
I2
sVheard
p1862
I8
sVoccur
p1863
I2
sVoccup
p1864
I1
sVallott
p1865
I1
sVspreads
p1866
I1
sVwrite
p1867
I5
sVentrench
p1868
I1
sVeconomy
p1869
I4
sVproduct
p1870
I15
sVzimmerman
p1871
I1
sVsouthern
p1872
I3
sVproduce
p1873
I4
sVremember
p1874
I1
sVtrumpets
p1875
I1
sVdivid
p1876
I1
sVfavorit
p1877
I1
sVbenny
p1878
I1
sVoffens
p1879
I3
sVoffend
p1880
I1
sVidiosyncratic
p1881
I1
sVtypical
p1882
I7
sV[photo]
p1883
I1
sVpakhtunkhwa
p1884
I2
sVbrain
p1885
I3
sVtablets
p1886
I1
sVcold
p1887
I1
sVstill
p1888
I33
sVethic
p1889
I3
sVrooftop
p1890
I3
sVsymonds
p1891
I1
sVacknowledge
p1892
I1
sVsexiest
p1893
I1
sVforms
p1894
I1
sVwindow
p1895
I2
sVnon
p1896
I1
sVhalt
p1897
I1
sVvaras
p1898
I2
sVhalv
p1899
I1
sVnod
p1900
I1
sVrake
p1901
I1
sVintroduce
p1902
I1
sV1954
p1903
I1
sV1956
p1904
I1
sV1950
p1905
I1
sVhalf
p1906
I11
sVnot
p1907
I129
sVnow
p1908
I32
sV1959
p1909
I1
sV1958
p1910
I2
sVnor
p1911
I1
sVnos
p1912
I1
sVjanuary
p1913
I1
sVdrop
p1914
I1
sVdron
p1915
I1
sVdramatical
p1916
I3
sVem
p1917
I1
sVel
p1918
I1
sVunblemish
p1919
I1
sVen
p1920
I1
sVreplac
p1921
I3
sVey
p1922
I5
sVyear
p1923
I54
sVubiquitous
p1924
I2
sVhappen
p1925
I9
sVmonitors
p1926
I2
sVer
p1927
I1
sValbum
p1928
I1
sVshown
p1929
I4
sVaccomplish
p1930
I1
sVspace
p1931
I6
sVincrease
p1932
I2
sVwaheidi
p1933
I1
sVshows
p1934
I7
sVcarr
p1935
I2
sVcars
p1936
I4
sVcarv
p1937
I1
sVargu
p1938
I6
sVcarl
p1939
I1
sVmarine
p1940
I2
sVinevitable
p1941
I2
sVcare
p1942
I3
sVcouldn
p1943
I2
sVdeprivation
p1944
I1
sVtransition
p1945
I3
sVclarion
p1946
I1
sVbritish
p1947
I5
sVsheikhdoms
p1948
I1
sVnonprofit
p1949
I2
sVsupport
p1950
I9
sVstriking
p1951
I1
sVcpus
p1952
I1
sVwedg
p1953
I1
sVballmer
p1954
I5
sVzay
p1955
I2
sVimpossible
p1956
I3
sVmessage
p1957
I5
sVdrove
p1958
I2
sV6538
p1959
I1
sVsize
p1960
I6
sVsheep
p1961
I1
sVsheet
p1962
I1
sVcaught
p1963
I3
sVtraction
p1964
I1
sVtragic
p1965
I1
sVcarousel
p1966
I1
sVfriend
p1967
I7
sVthat
p1968
I306
sVbrains
p1969
I1
sVexpanse
p1970
I1
sVtehran
p1971
I2
sVquad
p1972
I1
sVthan
p1973
I70
sVnizam
p1974
I1
sVprofessionals
p1975
I4
sVtelevision
p1976
I5
sVlucrat
p1977
I1
sVrecruit
p1978
I4
sVvocals
p1979
I1
sVsurname
p1980
I1
sVangel
p1981
I3
sVcorrection
p1982
I1
sVcrossover
p1983
I1
sVslam
p1984
I1
sVrecover
p1985
I2
sVimplod
p1986
I1
sVveteran
p1987
I1
sVforc
p1988
I10
sVonline
p1989
I4
sVobjective
p1990
I1
sVbusinessweek
p1991
I1
sVbegin
p1992
I1
sVfenway
p1993
I1
sVprice
p1994
I4
sVamerica
p1995
I3
sVmichelle
p1996
I1
sVdream
p1997
I2
sVsteady
p1998
I1
sVtooth
p1999
I1
sVprofessional
p2000
I4
sVsteadi
p2001
I1
sVfifty
p2002
I1
sVfifth
p2003
I1
sVground
p2004
I1
sVinevitab
p2005
I1
sVtitle
p2006
I2
sVdeployments
p2007
I1
sVstain
p2008
I11
sVcannon
p2009
I1
sS'<blockquote>'
p2010
I4
sVloath
p2011
I1
sVcannot
p2012
I4
sVbracelets
p2013
I1
sVstroll
p2014
I1
sVreprints
p2015
I1
sVscientist
p2016
I1
sVhusband
p2017
I3
sVconcert
p2018
I1
sVburst
p2019
I1
sVwhitewash
p2020
I1
sVsport
p2021
I2
sVconcern
p2022
I4
sVisraeli
p2023
I4
sVfeuds
p2024
I1
sV3
p2025
I8
sVlandline
p2026
I1
sVbetween
p2027
I18
sVmandarin
p2028
I1
sVnicest
p2029
I1
sVislam
p2030
I1
sVnathaniel
p2031
I1
sVkesner
p2032
I1
sVnotice
p2033
I1
sVjacobs
p2034
I1
sVarticle
p2035
I2
sVinstallation
p2036
I1
sVnearby
p2037
I1
sV150
p2038
I3
sVjeans
p2039
I1
sVdispatch
p2040
I2
sVcouldn't
p2041
I1
sVmoreover
p2042
I2
sVrebuild
p2043
I1
sVterritorial
p2044
I1
sVsportscaster
p2045
I1
sVcountless
p2046
I1
sVthese
p2047
I27
sVtrick
p2048
I1
sVscul
p2049
I1
sVcoolest
p2050
I1
sValcoholic
p2051
I1
sVworri
p2052
I2
sVbias
p2053
I1
sVembrace
p2054
I1
sVsoldz
p2055
I2
sVmediocre
p2056
I2
sVworry
p2057
I6
sVdevelop
p2058
I14
sVmedia
p2059
I3
sVmedic
p2060
I2
sVceo
p2061
I1
sVinquiry
p2062
I2
sVlite
p2063
I1
sVfinish
p2064
I8
sVclosest
p2065
I1
sV199th
p2066
I1
sVfrankincense
p2067
I1
sVin
p2068
I380
sVbiederman
p2069
I1
sVtrapp
p2070
I1
sVconstitutional
p2071
I3
sVsevere
p2072
I4
sVcoordinate
p2073
I1
sVheaps
p2074
I1
sVnoah
p2075
I1
sVvaluable
p2076
I1
sVmaternity
p2077
I2
sVtouch
p2078
I2
sVunderinvests
p2079
I2
sVdeath
p2080
I10
sVnimbler
p2081
I1
sVrole
p2082
I10
sVstruck
p2083
I2
sVreal
p2084
I26
sVhover
p2085
I4
sVstepien
p2086
I1
sVspectacular
p2087
I2
sVappearanc
p2088
I1
sVcalendars
p2089
I1
sVoutsource
p2090
I1
sVrebecca
p2091
I1
sVheadpiece
p2092
I1
sVfortuna
p2093
I1
sVfortune
p2094
I1
sVpounds
p2095
I2
sVsuppliers
p2096
I1
sVoblivion
p2097
I1
sVt
p2098
I111
sVcalbuco
p2099
I4
sVverbal
p2100
I2
sVperverse
p2101
I1
sVethos
p2102
I1
sVwillie
p2103
I1
sVbusiness
p2104
I31
sVsixth
p2105
I1
sVequivalent
p2106
I1
sVtuition
p2107
I1
sVcredits
p2108
I5
sVsixty
p2109
I1
sV1938
p2110
I1
sVthrow
p2111
I1
sVcomparison
p2112
I1
sVcentral
p2113
I5
sVintens
p2114
I1
sVunderway
p2115
I1
sVbackup
p2116
I1
sVprotests
p2117
I1
sVsnapchat
p2118
I1
sVyour
p2119
I18
sVlog
p2120
I1
sVprepare
p2121
I1
sVarea
p2122
I4
sVaren
p2123
I3
sVstark
p2124
I3
sVstart
p2125
I32
sVlov
p2126
I2
sVlow
p2127
I12
sVlot
p2128
I12
sVlou
p2129
I1
sVmilitias
p2130
I1
sVhire
p2131
I1
sVoutliers
p2132
I1
sVstanford
p2133
I10
sV600
p2134
I1
sVdescribe
p2135
I3
sVnerv
p2136
I1
sVreliability
p2137
I1
sVsaleh
p2138
I3
sVsulaiman
p2139
I1
sVstorage
p2140
I20
sVevent
p2141
I5
sVyou
p2142
I80
sVpoor
p2143
I8
sV60s
p2144
I1
sVdrift
p2145
I1
sVpeak
p2146
I4
sVcoverage
p2147
I2
sVtrekk
p2148
I1
sVpool
p2149
I3
sVreduc
p2150
I6
sVstrings
p2151
I1
sVskeleton
p2152
I1
sVmonth
p2153
I6
sVunrest
p2154
I3
sVmontt
p2155
I3
sVdeadline
p2156
I2
sS'<figcaption>'
p2157
I2
sVcarpet
p2158
I1
sVicons
p2159
I1
sVfoster
p2160
I1
sVsustain
p2161
I3
sVblackouts
p2162
I1
sVgoodson
p2163
I6
sVhill
p2164
I1
sVmasquerad
p2165
I1
sVconfidential
p2166
I1
sVvery
p2167
I13
sVdecide
p2168
I2
sVlouis
p2169
I1
sVmild
p2170
I2
sVinstagram
p2171
I1
sVstreets
p2172
I2
sVpromoter
p2173
I1
sVresound
p2174
I1
sVenvisions
p2175
I1
sVconsumers
p2176
I1
sVdeborah
p2177
I2
sVmultinational
p2178
I1
sVturmoil
p2179
I1
sViran
p2180
I7
sVloose
p2181
I1
sVmisread
p2182
I1
sVtracks
p2183
I1
sVexcess
p2184
I3
sViraq
p2185
I2
sVshibam
p2186
I1
sVconviction
p2187
I1
sVtelecast
p2188
I1
sVamount
p2189
I2
sVmarginal
p2190
I3
sVput
p2191
I15
sVlagos
p2192
I1
sVaggress
p2193
I1
sVconventional
p2194
I3
sVtaker
p2195
I1
sVkhal
p2196
I2
sVcontains
p2197
I1
sVtaken
p2198
I14
sVinjury
p2199
I7
sVlineups
p2200
I1
sVbrowner
p2201
I1
sVexcuse
p2202
I2
sVclassmat
p2203
I1
sVcoalition
p2204
I2
sVnine
p2205
I1
sVyemen
p2206
I17
sVhistory
p2207
I5
sVcows
p2208
I1
sVphrase
p2209
I1
sVdaiichi
p2210
I1
sVjihadi
p2211
I1
sVbirchbox
p2212
I1
sVfr
p2213
I1
sVsneak
p2214
I1
sVembrac
p2215
I1
sVfe
p2216
I2
sS'<li>'
p2217
I4
sVfl
p2218
I1
sVa
p2219
I443
sVdocumentation
p2220
I1
sVovernight
p2221
I2
sVmantras
p2222
I1
sVdaggers
p2223
I1
sVdread
p2224
I1
sVegg
p2225
I1
sVhelp
p2226
I29
sVsood
p2227
I2
sVerod
p2228
I2
sVurine
p2229
I1
sVsoon
p2230
I6
sVheld
p2231
I5
sVcommittee
p2232
I4
sVstaunch
p2233
I1
sVexact
p2234
I2
sVlateral
p2235
I1
sVfruitful
p2236
I1
sVabsence
p2237
I1
sVsystems
p2238
I5
sVfounders
p2239
I2
sVgovernments
p2240
I2
sVfood
p2241
I6
sVsentenc
p2242
I1
sVstarbucks
p2243
I2
sVfoot
p2244
I3
sVterrorism
p2245
I1
sVmosby
p2246
I23
sVisn't
p2247
I1
sVheavy
p2248
I4
sVeasley
p2249
I1
sVheavi
p2250
I2
sVtodd
p2251
I1
sVbeyond
p2252
I4
sVundraftable
p2253
I1
sVrobert
p2254
I2
sVsince
p2255
I24
sVpublish
p2256
I3
sVtrusts
p2257
I1
sVsafety
p2258
I4
sV7
p2259
I7
sVtruste
p2260
I1
sVissue
p2261
I1
sVchronical
p2262
I1
sVrece
p2263
I5
sVlabs
p2264
I1
sVreason
p2265
I14
sVbase
p2266
I8
sVask
p2267
I22
sVash
p2268
I6
sVms
p2269
I46
sVlaunch
p2270
I3
sS'<i>'
p2271
I2
sVlawler
p2272
I1
sVamerican
p2273
I12
sV[citation]
p2274
I1
sVsyria
p2275
I1
sVassign
p2276
I1
sVeffortless
p2277
I1
sVmist
p2278
I1
sVmiss
p2279
I7
sVhorse
p2280
I5
sV[ratio-tall]
p2281
I1
sVairborne
p2282
I1
sVstation
p2283
I6
sVidentity
p2284
I1
sVnigeria
p2285
I1
sVscheme
p2286
I3
sVbanana
p2287
I1
sVauthors
p2288
I2
sValbums
p2289
I1
sVgrew
p2290
I7
sVkindle
p2291
I1
sVtoward
p2292
I7
sVprocedural
p2293
I1
sValongside
p2294
I1
sVoverstate
p2295
I2
sVteslas
p2296
I1
sVsubstantial
p2297
I3
sVcontrovers
p2298
I1
sVmy
p2299
I30
sVvulnerable
p2300
I2
sVoption
p2301
I2
sVimagin
p2302
I1
sVunintend
p2303
I1
sVtrance
p2304
I1
sVlin
p2305
I3
sVcave
p2306
I1
sVofficers
p2307
I28
sVlik
p2308
I5
sVliv
p2309
I13
sVuseless
p2310
I1
sVcaliphate
p2311
I1
sVsupervolcano
p2312
I1
sVoft
p2313
I1
sVindecis
p2314
I1
sVfreddie
p2315
I6
sVcomparisons
p2316
I1
sVcapitaliz
p2317
I1
sVsalary
p2318
I2
sVchronicle
p2319
I1
sVmobile
p2320
I2
sVclear
p2321
I11
sVwindowless
p2322
I1
sVclean
p2323
I2
sVlatest
p2324
I3
sVtenet
p2325
I2
sVtranslation
p2326
I2
sVnegligence
p2327
I3
sVreminiscent
p2328
I1
sVnorthern
p2329
I2
sVjustice
p2330
I7
sVquer
p2331
I2
sVpretty
p2332
I10
sVedelman
p2333
I1
sVdominant
p2334
I1
sVmeanwhile
p2335
I2
sVintensifi
p2336
I1
sVdeteriorat
p2337
I1
sVfeels
p2338
I2
sValexander
p2339
I1
sV[el__leafmedia--sourced-paragraph]
p2340
I2
sVretaliation
p2341
I1
sVx
p2342
I1
sVcommonwealthmagazine
p2343
I1
sVbacktrack
p2344
I1
sVculture
p2345
I3
sVclose
p2346
I9
sS'<img>'
p2347
I1
sVprobable
p2348
I1
sVwop
p2349
I1
sVwoo
p2350
I1
sVwon
p2351
I8
sVconditions
p2352
I1
sVbettor
p2353
I1
sVspray
p2354
I4
sVleague
p2355
I2
sVmega
p2356
I1
sVbuzz
p2357
I1
sVexperimental
p2358
I1
sVjeff
p2359
I2
sVbattery
p2360
I20
sVwhatever
p2361
I2
sVneumeier
p2362
I14
sVempti
p2363
I1
sVrugg
p2364
I1
sVthreaten
p2365
I2
sVterritory
p2366
I3
sVdelights
p2367
I1
sVcosmetics
p2368
I1
sValto
p2369
I1
sVdialogue
p2370
I1
sVpacks
p2371
I1
sVimag
p2372
I3
sVelse
p2373
I10
sVdetermination
p2374
I1
sVloom
p2375
I1
sVlook
p2376
I29
sVsocialist
p2377
I2
sVgovernor
p2378
I5
sVpace
p2379
I2
sVwhile
p2380
I44
sVsmart
p2381
I4
sVloot
p2382
I2
sVmitchell
p2383
I2
sVguide
p2384
I1
sVloop
p2385
I1
sVpack
p2386
I2
sVvoters
p2387
I3
sVskype
p2388
I6
sVready
p2389
I4
sVshar
p2390
I4
sVanymore
p2391
I2
sVgrant
p2392
I2
sVbelong
p2393
I1
sV[caption-text]
p2394
I1
sVgrand
p2395
I1
sVconflict
p2396
I8
sVsham
p2397
I1
sVlawyers
p2398
I3
sVdime
p2399
I1
sVbonus
p2400
I1
sVcamera
p2401
I7
sVinflat
p2402
I2
sV000
p2403
I14
sVuser
p2404
I3
sVcrucible
p2405
I1
sVolder
p2406
I2
sVminecraft
p2407
I3
sVtheology
p2408
I1
sVsettlements
p2409
I1
sVskat
p2410
I2
sVelect
p2411
I3
sVbotch
p2412
I1
sVinformal
p2413
I2
sVbarack
p2414
I1
sVmarco
p2415
I2
sVmarch
p2416
I6
sV[visually-hidden]
p2417
I1
sVgame
p2418
I19
sVdonor
p2419
I1
sVequity
p2420
I7
sVsignal
p2421
I1
sVstrife
p2422
I1
sVpopular
p2423
I4
sVcompensat
p2424
I1
sVterminology
p2425
I1
sVfathers
p2426
I1
sVcreation
p2427
I2
sVsome
p2428
I42
sVoutnumber
p2429
I1
sVurgent
p2430
I2
sVeconomic
p2431
I7
sVimpoverish
p2432
I1
sVfanfare
p2433
I1
sVsimmer
p2434
I3
sVrun
p2435
I17
sVrul
p2436
I7
sVreach
p2437
I11
sVgmat
p2438
I1
sVkimbis
p2439
I1
sVstep
p2440
I2
sVassists
p2441
I1
sVonenote
p2442
I1
sVabroad
p2443
I3
sVfaith
p2444
I1
sVidp
p2445
I1
sVblock
p2446
I1
sVdisclosure
p2447
I3
sVdetectiv
p2448
I1
sVwithin
p2449
I8
sVpentagon
p2450
I2
sVrolls
p2451
I1
sVstatistics
p2452
I1
sVcomputer
p2453
I11
sVaccountability
p2454
I3
sVheritage
p2455
I3
sVamaz
p2456
I1
sVeons
p2457
I1
sVhimself
p2458
I6
sVspecialty
p2459
I1
sVlarry
p2460
I1
sVhail
p2461
I1
sVdrifters
p2462
I7
sVsimilar
p2463
I8
sVadults
p2464
I2
sVdoesn
p2465
I16
sVcotton
p2466
I2
sVamounts
p2467
I2
sVtitl
p2468
I6
sVfears
p2469
I1
sVnam
p2470
I8
sVhoopla
p2471
I1
sVnat
p2472
I1
sVdepartment
p2473
I1
sVmanhattan
p2474
I2
sVdraw
p2475
I3
sVspectators
p2476
I1
sVdrap
p2477
I1
sVfewest
p2478
I1
sVresign
p2479
I1
sVwilliam
p2480
I8
sVmilitants
p2481
I2
sVstructure
p2482
I2
sVe
p2483
I13
sVtailpipe
p2484
I1
sVdepth
p2485
I2
sVgarrett
p2486
I2
sVproposition
p2487
I2
sVgo
p2488
I60
sVradiochemistry
p2489
I1
sVarrogance
p2490
I1
sVaris
p2491
I1
sVfacebook
p2492
I3
sVgurley
p2493
I1
sVpositions
p2494
I1
sVbutton
p2495
I3
sVmichael
p2496
I4
sVryan
p2497
I2
sVverdict
p2498
I1
sVepstein
p2499
I1
sVestimat
p2500
I4
sVbarbara
p2501
I1
sVenforce
p2502
I1
sVconfigurations
p2503
I1
sVriyadh
p2504
I1
sVjump
p2505
I2
sVbooth
p2506
I1
sVdownload
p2507
I2
sVclick
p2508
I1
sVplays
p2509
I3
sVexperiment
p2510
I1
sVvolatile
p2511
I1
sVcollins
p2512
I1
sV;
p2513
I23
sVshoreline
p2514
I1
sVstance
p2515
I1
sVcommercial
p2516
I3
sVbecom
p2517
I6
sVconvert
p2518
I2
sVchant
p2519
I1
sVsuburbanit
p2520
I1
sVproducts
p2521
I12
sVchang
p2522
I11
sVgene
p2523
I1
sVchanc
p2524
I1
sVdanger
p2525
I3
sVwin
p2526
I1
sVmanage
p2527
I10
sVevacuations
p2528
I1
sVwir
p2529
I1
sVcloud
p2530
I3
sVcrav
p2531
I1
sVaspirants
p2532
I1
sVconnery
p2533
I2
sVremains
p2534
I3
sVrandy
p2535
I1
sVvehicle
p2536
I4
sVjonathan
p2537
I2
sVcheeks
p2538
I1
sVretribution
p2539
I1
sVappointee
p2540
I1
sVsanctions
p2541
I6
sVride
p2542
I2
sVsalar
p2543
I2
sVdropp
p2544
I2
sVmeet
p2545
I12
sVnurture
p2546
I1
sVdrops
p2547
I1
sVcontrol
p2548
I5
sVlinks
p2549
I1
sS'<address>'
p2550
I1
sVsought
p2551
I1
sVskirt
p2552
I1
sVoverse
p2553
I1
sVcircular
p2554
I1
sVfinanc
p2555
I2
sV[el__image--standard]
p2556
I1
sVtimekeep
p2557
I1
sS'<h4>'
p2558
I9
sVnewsworthy
p2559
I1
sVfamous
p2560
I3
sVpowerpoint
p2561
I1
sVclaire
p2562
I1
sVsoftware
p2563
I13
sVbyproducts
p2564
I1
sVwon't
p2565
I1
sVouter
p2566
I1
sVexclusion
p2567
I1
sVguerrilla
p2568
I2
sVbrook
p2569
I4
sVhim
p2570
I23
sVovechkin
p2571
I1
sVhandl
p2572
I3
sVrelentless
p2573
I1
sVhands
p2574
I1
sVfront
p2575
I5
sVnajma
p2576
I1
sVimpresario
p2577
I1
sVchronic
p2578
I1
sVfundraisers
p2579
I1
sVuniversity
p2580
I15
sVguard
p2581
I2
sS'<p>'
p2582
I681
sVmagnitude
p2583
I1
sVmode
p2584
I1
sVilluminate
p2585
I1
sVmap
p2586
I1
sVchunk
p2587
I1
sV700
p2588
I3
sVconstitute
p2589
I1
sVinverter
p2590
I1
sVmargins
p2591
I2
sVrelegat
p2592
I1
sVspecial
p2593
I4
sVcritics
p2594
I9
sVactivist
p2595
I1
sVcause
p2596
I1
sVreacts
p2597
I1
sV70s
p2598
I2
sVadvisor
p2599
I1
sV1980
p2600
I1
sVroute
p2601
I1
sV1981
p2602
I3
sVflorida
p2603
I8
sVtimer
p2604
I1
sVkeep
p2605
I13
sVwonks
p2606
I1
sVevans
p2607
I5
sVblogger
p2608
I1
sVpowerful
p2609
I2
sVdate
p2610
I1
sVdisapproval
p2611
I1
sVremak
p2612
I1
sVstump
p2613
I1
sVquality
p2614
I1
sVprivacy
p2615
I1
sVankle
p2616
I1
sVfinal
p2617
I8
sVpunish
p2618
I2
sVherself
p2619
I4
sVwaist
p2620
I1
sVphotograph
p2621
I1
sVben
p2622
I1
sVaspiration
p2623
I1
sVdefense
p2624
I5
sVbare
p2625
I2
sVpeacebuild
p2626
I2
sVspurs
p2627
I3
sVjourney
p2628
I1
sVjulian
p2629
I1
sVneed
p2630
I10
sVtabb
p2631
I1
sVborder
p2632
I3
sVable
p2633
I8
sVinstance
p2634
I1
sVsingh
p2635
I1
sVsingl
p2636
I1
sVlecturer
p2637
I1
sVfuels
p2638
I2
sVradioact
p2639
I4
sVdeploy
p2640
I3
sVvengeance
p2641
I1
sVdubb
p2642
I1
sVcellphone
p2643
I1
sVplumber
p2644
I1
sVurg
p2645
I1
sVeject
p2646
I1
sVupset
p2647
I2
sVbrought
p2648
I6
sVinde
p2649
I1
sVviolation
p2650
I1
sVcrate
p2651
I1
sVsoldiers
p2652
I1
sVpartners
p2653
I10
sVcandidacy
p2654
I1
sVngo
p2655
I1
sVmillennia
p2656
I1
sVmadhav
p2657
I1
sVemployer
p2658
I1
sVmanufactur
p2659
I1
sVearner
p2660
I2
sVarabian
p2661
I4
sVfuel
p2662
I2
sVachieve
p2663
I3
sVmichigan
p2664
I2
sVoverall
p2665
I3
sVjoint
p2666
I4
sVlegitimate
p2667
I3
sVjoins
p2668
I1
sV128
p2669
I2
sVcutt
p2670
I1
sVevolution
p2671
I1
sVenabl
p2672
I4
sVtrucks
p2673
I2
sVgust
p2674
I1
sVshe
p2675
I45
sVcontain
p2676
I2
sVsho
p2677
I1
sVlegacy
p2678
I1
sVdesperate
p2679
I2
sVtend
p2680
I4
sVwritten
p2681
I3
sVsupernatural
p2682
I1
sVtens
p2683
I2
sVneither
p2684
I1
sVzeitgeist
p2685
I1
sVcomparable
p2686
I1
sVkel
p2687
I5
sVimportance
p2688
I2
sVkec
p2689
I1
sVcriticiz
p2690
I2
sVkey
p2691
I3
sVgroup
p2692
I38
sVeclips
p2693
I1
sVker
p2694
I2
sVmonitor
p2695
I4
sVhits
p2696
I1
sVlimits
p2697
I1
sVcareer
p2698
I8
sVtrove
p2699
I1
sVadmit
p2700
I1
sVjersey
p2701
I2
sVdominique
p2702
I1
sVtuesday
p2703
I3
sVsolv
p2704
I3
sVaddition
p2705
I1
sVdiscrimination
p2706
I2
sVwills
p2707
I1
sVcent
p2708
I2
sVimmense
p2709
I1
sVliberals
p2710
I1
sVkalay
p2711
I1
sVtreat
p2712
I6
sVhernandez
p2713
I2
sVshoulders
p2714
I1
sVboth
p2715
I13
sVvince
p2716
I1
sVexpenditure
p2717
I1
sVshameless
p2718
I1
sV[cap]
p2719
I2
sV[inline-video]
p2720
I1
sVharder
p2721
I1
sVgucci
p2722
I1
sVbrainer
p2723
I1
sVowns
p2724
I1
sVexaminer
p2725
I3
sVbuckl
p2726
I1
sVresident
p2727
I2
sVdemo
p2728
I1
sVsurface
p2729
I5
sVrevis
p2730
I1
sVwelcom
p2731
I1
sVbegan
p2732
I9
sVupside
p2733
I1
sVparts
p2734
I1
sVspeaker
p2735
I1
sVparty
p2736
I4
sVpromoters
p2737
I1
sVabsorb
p2738
I1
sVboxers
p2739
I2
sVeffect
p2740
I5
sVdestruction
p2741
I1
sVpaycheck
p2742
I1
sVadvocat
p2743
I3
sVi
p2744
I108
sVwell
p2745
I33
sVdrone
p2746
I1
sVcorporation
p2747
I1
sVdraconian
p2748
I1
sVmistaken
p2749
I1
sVdose
p2750
I1
sVdistant
p2751
I2
sVvirtual
p2752
I7
sVcoordination
p2753
I2
sVdistress
p2754
I1
sV000s
p2755
I1
sVpatricia
p2756
I1
sVkick
p2757
I2
sVfata
p2758
I1
sVdefinitive
p2759
I1
sVfate
p2760
I2
sVutah
p2761
I1
sVhistoric
p2762
I2
sVintersection
p2763
I1
sVprominent
p2764
I1
sVpacheco
p2765
I1
sVlost
p2766
I4
sVgangsters
p2767
I1
sVnecessari
p2768
I2
sVmartin
p2769
I1
sVpage
p2770
I2
sVcertain
p2771
I10
sVrepeat
p2772
I1
sVhome
p2773
I23
sVpeter
p2774
I3
sVfactional
p2775
I1
sVbroad
p2776
I3
sV?
p2777
I39
sVencourag
p2778
I3
sVjournal
p2779
I3
sVexpansion
p2780
I1
sV[story-content]
p2781
I342
sVrefuge
p2782
I1
sVfreedom
p2783
I2
sVtongue
p2784
I1
sVwashington
p2785
I16
sVwildstein
p2786
I5
sVutility
p2787
I3
sVadditional
p2788
I3
sVwhom
p2789
I1
sVmuseum
p2790
I2
sVnorth
p2791
I7
sVabductions
p2792
I1
sVhq
p2793
I1
sVxerox
p2794
I1
sVevacuate
p2795
I2
sVtapers
p2796
I1
sVgain
p2797
I1
sVtechnician
p2798
I2
sVear
p2799
I14
sVdur
p2800
I23
sVrahul
p2801
I1
sVsucce
p2802
I2
sVdisplac
p2803
I4
sVlimit
p2804
I2
sVpiece
p2805
I1
sVdisplay
p2806
I5
sVmarketplace
p2807
I1
sVdevise
p2808
I1
sVuniversal
p2809
I1
sVerin
p2810
I1
sVeducation
p2811
I13
sVfunctions
p2812
I2
sVcontest
p2813
I3
sVdropout
p2814
I2
sVstat
p2815
I10
sVstar
p2816
I1
sVrayna
p2817
I1
sVstay
p2818
I8
sVstag
p2819
I2
sVoverinvest
p2820
I1
sVfriends
p2821
I5
sVstak
p2822
I1
sVappoint
p2823
I1
sVshuns
p2824
I1
sVpersistent
p2825
I1
sVportion
p2826
I3
sVdynamic
p2827
I1
sVasian
p2828
I1
sVwhose
p2829
I6
sVcalculate
p2830
I1
sVdisability
p2831
I1
sVpresents
p2832
I1
sVsorry
p2833
I1
sVcollaborate
p2834
I1
sVvoic
p2835
I1
sVflashpoint
p2836
I1
sVgovern
p2837
I11
sVaffect
p2838
I5
sVvast
p2839
I2
sVcrops
p2840
I1
sVsolution
p2841
I3
sVconvenience
p2842
I1
sVups
p2843
I2
sVforce
p2844
I9
sVeven
p2845
I48
sVwreck
p2846
I1
sVlightn
p2847
I1
sVtranscrib
p2848
I1
sVspokesman
p2849
I1
sVtipp
p2850
I1
sVnet
p2851
I5
sVever
p2852
I11
sVostensib
p2853
I1
sV[el__leafmedia]
p2854
I2
sVniche
p2855
I1
sVenvelop
p2856
I1
sVnever
p2857
I13
sVdrew
p2858
I2
sVmet
p2859
I4
sVmunson
p2860
I1
sVnanny
p2861
I1
sVwearabl
p2862
I1
sV100
p2863
I5
sVaren't
p2864
I1
sVdry
p2865
I1
sVjams
p2866
I2
sVrests
p2867
I1
sVeconomics
p2868
I3
sVcredit
p2869
I2
sVpermit
p2870
I1
sVjamm
p2871
I1
sVmenial
p2872
I1
sVjoshua
p2873
I1
sVcampaign
p2874
I16
sVarguab
p2875
I1
sVninety
p2876
I2
sVmoral
p2877
I1
sVoverstuff
p2878
I1
sVcounts
p2879
I5
sVcountr
p2880
I3
sVarmy
p2881
I1
sVarms
p2882
I1
sVleaks
p2883
I1
sVoverhead
p2884
I2
sVcalm
p2885
I1
sVtype
p2886
I3
sVtell
p2887
I8
sVbreeders
p2888
I1
sVexpose
p2889
I1
sVwars
p2890
I2
sVwarn
p2891
I2
sVward
p2892
I1
sVroom
p2893
I6
sVrights
p2894
I8
sVsetup
p2895
I2
sVroof
p2896
I1
sVroot
p2897
I1
sVdefer
p2898
I1
sVmumford
p2899
I2
sVinvolve
p2900
I4
sVpolic
p2901
I5
sVconfin
p2902
I1
sVanswer
p2903
I9
sVupdat
p2904
I1
sVminority
p2905
I1
sVloyalty
p2906
I1
sVpresident
p2907
I28
sVpurchase
p2908
I2
sVauthoritat
p2909
I1
sVattempt
p2910
I1
sVthird
p2911
I7
sVmaintain
p2912
I3
sVthirt
p2913
I1
sVoperate
p2914
I2
sVoperations
p2915
I5
sVpossib
p2916
I1
sVunfolds
p2917
I1
sVfift
p2918
I1
sVkeyboard
p2919
I1
sVbefore
p2920
I22
sVingratiat
p2921
I1
sV,
p2922
I586
sVbetter
p2923
I18
sVhudood
p2924
I1
sVweeks
p2925
I4
sVdonors
p2926
I3
sVcornerback
p2927
I1
sVcombination
p2928
I2
sVleiber
p2929
I2
sVweakness
p2930
I1
sV[descender]
p2931
I2
sVwelterweight
p2932
I3
sVpromis
p2933
I3
sVdownright
p2934
I1
sVrhetoric
p2935
I1
sV[layout-large-horizontal]
p2936
I1
sVwage
p2937
I5
sVwent
p2938
I8
sVside
p2939
I9
sVbone
p2940
I1
sVbond
p2941
I6
sVmarital
p2942
I1
sVcarry
p2943
I2
sVtaught
p2944
I1
sVnavy
p2945
I1
sVtemporary
p2946
I2
sVextract
p2947
I1
sVcontend
p2948
I3
sVvideotape
p2949
I2
sVcrucial
p2950
I4
sVsurprise
p2951
I3
sVstruggle
p2952
I1
sVstarts
p2953
I4
sVisn
p2954
I7
sVloud
p2955
I2
sVstewart
p2956
I1
sVeconomists
p2957
I2
sVfloors
p2958
I1
sVagre
p2959
I5
sVgrads
p2960
I1
sVsometim
p2961
I3
sVoutag
p2962
I1
sVinflow
p2963
I1
sVpowerwall
p2964
I2
sVhelen
p2965
I1
sVprinceton
p2966
I1
sVpreparation
p2967
I1
sVmatter
p2968
I7
sVsolomon
p2969
I1
sVbeginn
p2970
I3
sVnadella
p2971
I23
sVmodern
p2972
I4
sVmind
p2973
I3
sVseen
p2974
I2
sVseem
p2975
I8
sVchurn
p2976
I1
sVseek
p2977
I3
sVtells
p2978
I4
sVkarman
p2979
I1
sVwrists
p2980
I1
sVtranslator
p2981
I2
sVregular
p2982
I5
sVmarie
p2983
I2
sVmaria
p2984
I1
sVbroadcast
p2985
I1
sVdon
p2986
I38
sVdoo
p2987
I1
sVdoc
p2988
I1
sVmedical
p2989
I12
sVm
p2990
I59
sVdog
p2991
I1
sVcompetitors
p2992
I2
sVpoints
p2993
I5
sVdos
p2994
I1
sVpropos
p2995
I2
sVconsumer
p2996
I4
sV[footnoteBackLink]
p2997
I1
sVvisitor
p2998
I1
sVretire
p2999
I1
sVbrilliance
p3000
I1
sVnevada
p3001
I1
sVacquir
p3002
I1
sVpledg
p3003
I1
sVexplain
p3004
I8
sVsugar
p3005
I2
sVfolks
p3006
I2
sVhoard
p3007
I1
sVmonica
p3008
I1
sVexports
p3009
I1
sVabove
p3010
I3
sVstop
p3011
I12
sVstor
p3012
I7
sVcoast
p3013
I5
sVcomply
p3014
I1
sVearl
p3015
I1
sVearn
p3016
I6
sVbar
p3017
I4
sVbas
p3018
I14
sVshaughnessy
p3019
I1
sVbad
p3020
I5
sVtroop
p3021
I1
sVgigafactory
p3022
I1
sVethical
p3023
I3
sVreference
p3024
I1
sV[story-notes]
p3025
I4
sVsubject
p3026
I4
sVsaid
p3027
I161
sVscrap
p3028
I1
sVpets
p3029
I1
sVcredo
p3030
I1
sVharvard
p3031
I10
sV385
p3032
I1
sVuncertainty
p3033
I3
sVagainst
p3034
I20
sVernst
p3035
I1
sVmonopolize
p3036
I1
sVcobble
p3037
I1
sVofferings
p3038
I2
sVpath
p3039
I3
sVputt
p3040
I1
sVtint
p3041
I1
sVasks
p3042
I3
sVbasis
p3043
I1
sVthree
p3044
I22
sVerect
p3045
I1
sVcommission
p3046
I2
sVtrigger
p3047
I1
sVinterest
p3048
I12
sVbasic
p3049
I2
sV[mod-a]
p3050
I2
sVwebsite
p3051
I5
sVdeeper
p3052
I1
sVefficacy
p3053
I1
sVsuppress
p3054
I1
sVdismiss
p3055
I2
sVunpunish
p3056
I1
sVservic
p3057
I2
sVnear
p3058
I15
sVsuppose
p3059
I1
sVbalance
p3060
I2
sVanchor
p3061
I3
sVspawn
p3062
I1
sVbostonians
p3063
I1
sVcane
p3064
I1
sVis
p3065
I222
sVit
p3066
I204
sVshame
p3067
I1
sVinscrutable
p3068
I1
sVseattle
p3069
I2
sVmouse
p3070
I2
sVdisappear
p3071
I1
sVif
p3072
I57
sVreceiv
p3073
I4
sVmake
p3074
I37
sVmahmud
p3075
I1
sV80s
p3076
I1
sVevolve
p3077
I1
sVdelight
p3078
I1
sVopportunity
p3079
I3
sVhe'll
p3080
I2
sVkid
p3081
I3
sVqualif
p3082
I1
sVprograms
p3083
I7
sVinherit
p3084
I1
sVqualit
p3085
I1
sVmaterials
p3086
I2
sVparadigm
p3087
I2
sVinvestments
p3088
I2
sVleft
p3089
I22
sVidentifi
p3090
I2
sVtawakkol
p3091
I1
sVfighters
p3092
I2
sVidentify
p3093
I1
sVhuman
p3094
I7
sVyet
p3095
I13
sVcandidate
p3096
I5
sVcharacter
p3097
I2
sVpotential
p3098
I5
sVaffinity
p3099
I1
sVsave
p3100
I8
sVinvoluntary
p3101
I6
sVsupervisors
p3102
I1
sVbackground
p3103
I2
sVborderless
p3104
I1
sVshoulder
p3105
I1
sVmanual
p3106
I1
sVplausib
p3107
I2
sVdean
p3108
I6
sVdeal
p3109
I9
sVpacquiao
p3110
I9
sVrepudiate
p3111
I1
sVsomehow
p3112
I1
sVdead
p3113
I2
sVdear
p3114
I1
sVinsensit
p3115
I2
sVoutspoken
p3116
I1
sVdaytime
p3117
I1
sVbold
p3118
I3
sVburn
p3119
I1
sVsuper
p3120
I7
sVchilean
p3121
I1
sVfrailer
p3122
I1
sVmagazine
p3123
I3
sVafternoon
p3124
I5
sVcommit
p3125
I3
sVmanagers
p3126
I3
sVdown
p3127
I25
sVcomplaints
p3128
I2
sV1990s
p3129
I2
sVinitial
p3130
I8
sVinitiat
p3131
I3
sVeditor
p3132
I2
sVhandicapp
p3133
I1
sVform
p3134
I4
sS'<h2>'
p3135
I2
sVfailure
p3136
I3
sVanalyst
p3137
I1
sVfort
p3138
I4
sVpavilion
p3139
I1
sVbuilds
p3140
I1
sVunderstood
p3141
I4
sVasbahi
p3142
I1
sVzari
p3143
I1
sVbenchmarks
p3144
I1
sVmusk
p3145
I5
sVfeatur
p3146
I2
sVclassic
p3147
I4
sVtoss
p3148
I1
sVcovers
p3149
I1
sVship
p3150
I3
sVfraternal
p3151
I2
sVcommunit
p3152
I3
sVfosters
p3153
I1
sVdigital
p3154
I8
sVfelt
p3155
I5
sVfell
p3156
I1
sVweekend
p3157
I7
sVbillion
p3158
I9
sVfemal
p3159
I2
sVapology
p3160
I1
sVsantorum
p3161
I1
sVjacket
p3162
I1
sVbehner
p3163
I2
sVignor
p3164
I2
sVteeth
p3165
I1
sVsouls
p3166
I1
sVinvent
p3167
I1
sVmanager
p3168
I1
sVmile
p3169
I1
sVshot
p3170
I5
sV21st
p3171
I1
sVanticipation
p3172
I1
sVdepend
p3173
I3
sVfather
p3174
I4
sVcountdown
p3175
I1
sV0
p3176
I3
sVadviser
p3177
I2
sVsmartphone
p3178
I2
sVbillionaire
p3179
I2
sVword
p3180
I1
sV1994
p3181
I2
sVdin
p3182
I1
sVdid
p3183
I35
sVdie
p3184
I1
sV1996
p3185
I1
sVexcellence
p3186
I2
sVround
p3187
I5
sVcalculat
p3188
I1
sVtargets
p3189
I1
sVmajors
p3190
I1
sVafghanistan
p3191
I1
sVadds
p3192
I2
sVsuspect
p3193
I1
sV[media]
p3194
I1
sVinternational
p3195
I8
sVtransportation
p3196
I1
sVderiv
p3197
I1
sVguardian
p3198
I1
sVmr
p3199
I99
sVcoincid
p3200
I1
sVearthquake
p3201
I1
sVwait
p3202
I3
sVbox
p3203
I17
sVboy
p3204
I2
sVhbo
p3205
I3
sVinvit
p3206
I2
sVinstitute
p3207
I3
sVshift
p3208
I4
sVbob
p3209
I3
sVnylon
p3210
I1
sVbod
p3211
I4
sVteenage
p3212
I2
sVuseful
p3213
I1
sVevaluat
p3214
I1
sVflexibility
p3215
I1
sVpatriots
p3216
I12
sVverge
p3217
I1
sVeverybody
p3218
I2
sVtroops
p3219
I1
sVimpunity
p3220
I2
sVvisit
p3221
I5
sVscenarios
p3222
I2
sVacceptable
p3223
I2
sVcurriculum
p3224
I3
sVdowntown
p3225
I3
sVtandem
p3226
I1
sVmukalla
p3227
I2
sVeffort
p3228
I5
sVfly
p3229
I1
sVsoul
p3230
I1
sVsouq
p3231
I1
sVsoup
p3232
I1
sVfla
p3233
I1
sVdispute
p3234
I3
sVclaim
p3235
I5
sVsample
p3236
I5
sVcouncil
p3237
I8
sVagenc
p3238
I7
sVsunday
p3239
I2
sVpure
p3240
I1
sV147
p3241
I1
sV140
p3242
I1
sVmay
p3243
I7
sVaccessory
p3244
I1
sVsustainability
p3245
I7
sVmembership
p3246
I1
sVmak
p3247
I22
sVguys
p3248
I2
sVgrow
p3249
I9
sVman
p3250
I12
sVaimless
p3251
I1
sVneck
p3252
I2
sVjohnson
p3253
I1
sVmaybe
p3254
I7
sVtale
p3255
I1
sVswitch
p3256
I2
sVafrican
p3257
I2
sVtall
p3258
I1
sVbungle
p3259
I1
sVtalk
p3260
I7
sVgradual
p3261
I1
sVthresholds
p3262
I1
sVstability
p3263
I1
sVgraduat
p3264
I24
sVarabesque
p3265
I1
sVequip
p3266
I2
sVentitl
p3267
I1
sVsatya
p3268
I2
sVpolice
p3269
I44
sVthank
p3270
I2
sVpolicy
p3271
I8
sVmain
p3272
I5
sVtexas
p3273
I6
sVfinance
p3274
I12
sVviews
p3275
I2
sVsoulful
p3276
I1
sVbeit
p3277
I1
sVlunch
p3278
I3
sVaspirations
p3279
I1
sVworkload
p3280
I1
sVmansur
p3281
I2
sVrock
p3282
I5
sVcontinu
p3283
I8
sVgirl
p3284
I1
sVcorrect
p3285
I3
sVinaction
p3286
I1
sVearlier
p3287
I6
sVheadlin
p3288
I2
sVcalifornia
p3289
I12
sVorg
p3290
I2
sVadvance
p3291
I2
sVlanguage
p3292
I2
sVministry
p3293
I3
sVthink
p3294
I26
sVfrequent
p3295
I3
sVfirst
p3296
I37
sVexotic
p3297
I2
sVcrim
p3298
I2
sVquestion
p3299
I11
sVamericans
p3300
I3
sVfast
p3301
I3
sVoppos
p3302
I4
sVcorporations
p3303
I1
sVsounds
p3304
I2
sVlittle
p3305
I16
sVmeaningful
p3306
I1
sVanyone
p3307
I7
sVgaudy
p3308
I1
sVmemo
p3309
I1
sVblacklist
p3310
I1
sVhillary
p3311
I1
sVteaneck
p3312
I1
sV11
p3313
I4
sV10
p3314
I21
sV13
p3315
I5
sV12
p3316
I11
sV15
p3317
I10
sV14
p3318
I4
sV17
p3319
I4
sV16
p3320
I5
sV19
p3321
I2
sVmidtown
p3322
I1
sVventure
p3323
I4
sVwere
p3324
I61
sVwatchtower
p3325
I1
sV20s
p3326
I1
sVappreciate
p3327
I3
sVconspiracy
p3328
I1
sVkevin
p3329
I1
sVsquar
p3330
I1
sVefficient
p3331
I1
sVjpoa
p3332
I2
sVconsortium
p3333
I1
sVopportunit
p3334
I3
sVsquad
p3335
I1
sVinterior
p3336
I6
sVperformance
p3337
I3
sVchannel
p3338
I1
sVbets
p3339
I1
sV200
p3340
I3
sVinvestigations
p3341
I1
sVtrack
p3342
I5
sVpaid
p3343
I4
sVassault
p3344
I10
sVnolan
p3345
I2
sVpair
p3346
I2
sVcuban
p3347
I1
sVsurprising
p3348
I4
sVprecise
p3349
I2
sVplayoffs
p3350
I2
sVshow
p3351
I15
sVcontemporary
p3352
I1
sVcorner
p3353
I1
sVfend
p3354
I1
sVfenc
p3355
I1
sVplume
p3356
I1
sVbehind
p3357
I4
sVanalytic
p3358
I1
sVblack
p3359
I6
sVtreasury
p3360
I2
sVawareness
p3361
I1
sVget
p3362
I22
sVemployers
p3363
I4
sVrepl
p3364
I2
sVjuleps
p3365
I1
sVgem
p3366
I1
sVtimepiece
p3367
I1
sVmedian
p3368
I1
sVyield
p3369
I1
sVchecks
p3370
I1
sVhonesty
p3371
I1
sVseat
p3372
I2
sVrelative
p3373
I5
sVsean
p3374
I2
sVseal
p3375
I1
sVcalendar
p3376
I1
sVwonder
p3377
I5
sVpuma
p3378
I1
sVlabel
p3379
I3
sVenough
p3380
I13
sVacross
p3381
I16
sVinfrastructure
p3382
I1
sVaugust
p3383
I3
sVparent
p3384
I2
sVparental
p3385
I2
sVju
p3386
I2
sVjr
p3387
I7
sVtun
p3388
I1
sVhighlight
p3389
I2
sVsingers
p3390
I1
sVtour
p3391
I2
sVspare
p3392
I1
sVamong
p3393
I9
sVfarberman
p3394
I3
sVcancer
p3395
I1
sVcustody
p3396
I6
sVarts
p3397
I2
sVcapable
p3398
I1
sVmark
p3399
I5
sVbmi
p3400
I1
sVdangerous
p3401
I2
sVdramatic
p3402
I4
sVwake
p3403
I1
sVthose
p3404
I32
sVsound
p3405
I3
sVrenewabl
p3406
I1
sVjetpacks
p3407
I1
sVmany
p3408
I33
sVmargin
p3409
I1
sVgurdeep
p3410
I2
sVadvantag
p3411
I3
sVsincere
p3412
I1
sVstrait
p3413
I1
sVcoffee
p3414
I3
sVmiddle
p3415
I4
sVsudden
p3416
I2
sVdifferent
p3417
I13
sVharsh
p3418
I1
sVdoctor
p3419
I1
sVpay
p3420
I10
sVsame
p3421
I22
sVpac
p3422
I5
sVpad
p3423
I1
sVpan
p3424
I1
sVexhaust
p3425
I2
sVjeffrey
p3426
I1
sVassist
p3427
I1
sVdriven
p3428
I3
sVimprov
p3429
I1
sVsemiautonomous
p3430
I1
sVmiddleweight
p3431
I1
sVdrain
p3432
I1
sVconvener
p3433
I1
sVsolve
p3434
I2
sVoutdoor
p3435
I1
sVexecut
p3436
I15
sVmoney
p3437
I16
sVsights
p3438
I1
sVaspect
p3439
I1
sVflavor
p3440
I1
sVwinner
p3441
I3
sVmcdonald
p3442
I1
sVpile
p3443
I1
sV4
p3444
I18
sVheavier
p3445
I2
sVpill
p3446
I2
sVgrit
p3447
I2
sVmov
p3448
I7
sVtemperatur
p3449
I1
sVgrid
p3450
I17
sVimplicate
p3451
I1
sVgrim
p3452
I1
sVgrin
p3453
I1
sVnose
p3454
I2
sVsmartphon
p3455
I4
sVgalvaniz
p3456
I1
sVjoan
p3457
I1
sVgross
p3458
I5
sVconfirm
p3459
I1
sVpioneer
p3460
I1
sVcritical
p3461
I9
sVknife
p3462
I2
sVseconds
p3463
I5
sVunusual
p3464
I1
sVreferr
p3465
I5
sVrefers
p3466
I1
sVregulations
p3467
I1
sVstations
p3468
I1
sVviolence
p3469
I7
sVpockets
p3470
I2
sVroad
p3471
I3
sVcheckup
p3472
I1
sVstrid
p3473
I1
sVdagger
p3474
I1
sVstrik
p3475
I4
sVstrip
p3476
I2
sVjerusalem
p3477
I1
sVlions
p3478
I1
sVmornings
p3479
I1
sV[media-100000003659426]
p3480
I1
sVchatt
p3481
I1
sVbanksy
p3482
I10
sVbuggy
p3483
I1
sVintimidat
p3484
I1
sVreappli
p3485
I1
sVcommonality
p3486
I1
sVwasn't
p3487
I1
sVemissions
p3488
I2
sVpowerless
p3489
I1
sVworklife
p3490
I1
sVdeep
p3491
I4
sVfellow
p3492
I2
sVexamine
p3493
I1
sVenable
p3494
I2
sVfile
p3495
I1
sVgenerat
p3496
I4
sVlifetime
p3497
I2
sVfilm
p3498
I9
sVfill
p3499
I7
sVagain
p3500
I11
sVpersonnel
p3501
I2
sVdrivers
p3502
I2
sVfield
p3503
I9
sVcleanup
p3504
I1
sVstudents
p3505
I26
sVimportant
p3506
I13
sVsubmarin
p3507
I1
sVbrands
p3508
I2
sVvideotap
p3509
I3
sVspills
p3510
I1
sVu
p3511
I8
sVresolution
p3512
I2
sVrepresent
p3513
I2
sVfounder
p3514
I1
sVsuburban
p3515
I2
sV141st
p3516
I1
sVchildren
p3517
I18
sVdiffuse
p3518
I1
sVwbal
p3519
I2
sVcoyness
p3520
I1
sVfall
p3521
I7
sVdifference
p3522
I6
sVhinterland
p3523
I1
sVmothers
p3524
I1
sVsaudi
p3525
I3
sVdamper
p3526
I1
sV20th
p3527
I2
sVneighborhood
p3528
I2
sVclinch
p3529
I1
sVzero
p3530
I1
sVlawyer
p3531
I6
sVfurther
p3532
I6
sVgrabb
p3533
I1
sVexcit
p3534
I1
sVdial
p3535
I1
sVabc
p3536
I1
sVveto
p3537
I2
sVabu
p3538
I5
sVpublic
p3539
I26
sVcohorts
p3540
I1
sVcomponent
p3541
I1
sVbeacon
p3542
I1
sVsimon
p3543
I25
sVvalu
p3544
I1
sVcampaigns
p3545
I3
sV900
p3546
I1
sVbible
p3547
I1
sVprosecutors
p3548
I2
sVairport
p3549
I2
sVdeclin
p3550
I3
sVtransit
p3551
I2
sVafrica
p3552
I1
sVsanction
p3553
I8
sVsuits
p3554
I1
sVestablish
p3555
I4
sVeye
p3556
I1
sVdistinct
p3557
I2
sVdestination
p3558
I1
sVtwo
p3559
I50
sVfuror
p3560
I1
sVdesir
p3561
I2
sVadmissions
p3562
I3
sVparticular
p3563
I9
sVnineteen
p3564
I1
sVtown
p3565
I2
sVdictat
p3566
I1
sVnone
p3567
I5
sVsalesforce
p3568
I2
sVhour
p3569
I11
sVhous
p3570
I1
sVrecall
p3571
I1
sVpatroll
p3572
I1
sVroosevelt
p3573
I1
sVguards
p3574
I1
sVremain
p3575
I7
sVabandon
p3576
I2
sVhormuz
p3577
I1
sVfunders
p3578
I1
sVshare
p3579
I2
sVsuburbia
p3580
I1
sVminimum
p3581
I2
sVnumbers
p3582
I5
sVexplor
p3583
I1
sVhomicide
p3584
I4
sVneeds
p3585
I8
sVcsn
p3586
I1
sVpursu
p3587
I1
sVstir
p3588
I1
sVadvice
p3589
I2
sVblood
p3590
I1
sVfaculty
p3591
I2
sVresponse
p3592
I1
sVbrady
p3593
I2
sVcoal
p3594
I2
sVindustrial
p3595
I1
sVthrough
p3596
I20
sVlava
p3597
I2
sVexistence
p3598
I3
sVsuffer
p3599
I6
sV25
p3600
I4
sV26
p3601
I1
sV27
p3602
I2
sV20
p3603
I6
sV21
p3604
I2
sV22
p3605
I7
sV23
p3606
I3
sV28
p3607
I3
sVlate
p3608
I13
sVreuters
p3609
I2
sVspeech
p3610
I3
sVclamor
p3611
I2
sVnaacp
p3612
I2
sVsomeone
p3613
I5
sVwalls
p3614
I1
sVmalek
p3615
I1
sVviewers
p3616
I4
sVrestrict
p3617
I3
sVpregnant
p3618
I1
sV2x
p3619
I1
sVmbta
p3620
I2
sVshekels
p3621
I1
sVgender
p3622
I2
sVuniversit
p3623
I1
sVharm
p3624
I2
sVeveryone
p3625
I16
sVhouse
p3626
I6
sVfish
p3627
I2
sVhard
p3628
I12
sVidea
p3629
I6
sVconnect
p3630
I2
sVripple
p3631
I1
sVinsurance
p3632
I3
sVlongtime
p3633
I6
sVprint
p3634
I4
sVlawrence
p3635
I11
sVcommitt
p3636
I4
sVbulls
p3637
I3
sVdifficulty
p3638
I2
sVmembers
p3639
I11
sVrainmakers
p3640
I1
sVbenefits
p3641
I7
sVcomputers
p3642
I3
sVpos
p3643
I2
sVtrickle
p3644
I1
sVcoulter
p3645
I1
sVjuncture
p3646
I1
sVdone
p3647
I12
sVwager
p3648
I1
sVdivorce
p3649
I1
sVkoc
p3650
I1
sVleast
p3651
I15
sVmilitant
p3652
I2
sVpaint
p3653
I5
sV180
p3654
I1
sV122nd
p3655
I1
sVpark
p3656
I1
sVpart
p3657
I31
sVbelieve
p3658
I5
sVb
p3659
I30
sVgotten
p3660
I1
sVyouth
p3661
I1
sV2020
p3662
I1
sVsupposed
p3663
I1
sVdeclare
p3664
I1
sVplead
p3665
I2
sVmeltdown
p3666
I1
sVconfirms
p3667
I1
sVorders
p3668
I2
sVbuilt
p3669
I1
sVblanco
p3670
I1
sVfoxborough
p3671
I1
sVcouch
p3672
I1
sVmajority
p3673
I3
sVcaesar
p3674
I3
sVbuild
p3675
I11
sVprovince
p3676
I2
sVpatterson
p3677
I2
sVsalmon
p3678
I1
sS'<ol>'
p3679
I2
sV[span]
p3680
I1
sVmost
p3681
I34
sVsignificant
p3682
I8
sVcharg
p3683
I19
sVhumanitarian
p3684
I2
sVweigh
p3685
I2
sVsector
p3686
I2
sVthomas
p3687
I1
sVofficers'
p3688
I1
sVobligations
p3689
I2
sVtuesdays
p3690
I1
sVfind
p3691
I9
sVambit
p3692
I4
sVmerger
p3693
I1
sVnervous
p3694
I4
sVeruptions
p3695
I2
sVoverride
p3696
I1
sV8
p3697
I2
sVprowess
p3698
I1
sVpermission
p3699
I2
sVcheaper
p3700
I2
sVbatter
p3701
I12
sVresolve
p3702
I1
sVremove
p3703
I2
sVcommon
p3704
I3
sVgospel
p3705
I1
sVdigitals
p3706
I1
sVbiannual
p3707
I1
sVindividual
p3708
I3
sVrepairs
p3709
I1
sVexpert
p3710
I1
sVsometh
p3711
I7
sVmerrimack
p3712
I1
sVdebat
p3713
I1
sVfans
p3714
I3
sVsmallest
p3715
I1
sVchampagne
p3716
I1
sVhistorical
p3717
I1
sVaircraft
p3718
I1
sVlightness
p3719
I2
sVmarilyn
p3720
I3
sVannual
p3721
I7
sVbaltimore
p3722
I19
sVconsume
p3723
I1
sVpoint
p3724
I15
sVtennessee
p3725
I1
sVshutdown
p3726
I1
sVsupple
p3727
I1
sVexpensive
p3728
I1
sVraise
p3729
I7
sVcreate
p3730
I5
sVsecret
p3731
I8
sVslipp
p3732
I1
sVgat
p3733
I1
sVgas
p3734
I4
sVgap
p3735
I3
sVgam
p3736
I3
sVunderstand
p3737
I6
sVevangelical
p3738
I1
sVpolitician
p3739
I1
sS'<cite>'
p3740
I3
sVbill
p3741
I10
sVelections
p3742
I2
sVmissteps
p3743
I1
sVunifi
p3744
I2
sVfun
p3745
I3
sVful
p3746
I7
sVcentury
p3747
I6
sVitself
p3748
I8
sVtelecasts
p3749
I1
sVbenign
p3750
I1
sVemphasize
p3751
I2
sVstripp
p3752
I1
sVyesterday
p3753
I2
sVdesks
p3754
I1
sVhusbands
p3755
I1
sVpurpose
p3756
I1
sVswimm
p3757
I1
sVtask
p3758
I5
sVspent
p3759
I2
sVflags
p3760
I1
sVy
p3761
I7
sVorganization
p3762
I7
sVprotrud
p3763
I1
sVspend
p3764
I11
sVprevention
p3765
I1
sVhastings
p3766
I1
sV1961
p3767
I1
sVatomic
p3768
I1
sVguant
p3769
I1
sVatco
p3770
I1
sVdiscipline
p3771
I1
sVcut
p3772
I1
sVcup
p3773
I1
sS'<footer>'
p3774
I4
sVdeputy
p3775
I3
sVpersuad
p3776
I4
sVkinect
p3777
I1
sVsource
p3778
I2
sVterris
p3779
I1
sVpreferenc
p3780
I1
sVbrainstorm
p3781
I1
sVluncheonette
p3782
I1
sVbil
p3783
I1
sVbig
p3784
I21
sVrebound
p3785
I1
sVhatch
p3786
I1
sVdisplace
p3787
I1
sVmatters
p3788
I3
sVbit
p3789
I7
sVanandtech
p3790
I1
sV[figure]
p3791
I1
sV[meta-classifier]
p3792
I1
sVgoogle
p3793
I8
sVoften
p3794
I8
sVextremism
p3795
I3
sVback
p3796
I24
sVextremist
p3797
I1
sVstrongest
p3798
I2
sVmirror
p3799
I2
sVscale
p3800
I7
sVpet
p3801
I1
sVdecision
p3802
I6
sVpep
p3803
I1
sVintegration
p3804
I2
sVper
p3805
I5
sVnewark
p3806
I1
sVdistracts
p3807
I1
sVlark
p3808
I1
sVeither
p3809
I11
sV300
p3810
I2
sVimpos
p3811
I1
sVfec
p3812
I2
sVgoods
p3813
I2
sVjessen
p3814
I2
sVgraduation
p3815
I1
sVmartinez
p3816
I2
sVsteven
p3817
I5
sVlesson
p3818
I2
sV[flex-embed]
p3819
I1
sVinclud
p3820
I19
sVforward
p3821
I6
sVtranslate
p3822
I1
sVspecifical
p3823
I1
sV[aside]
p3824
I2
sVinvite
p3825
I1
sVbyrne
p3826
I1
sVmurphy
p3827
I1
sVimmigration
p3828
I1
sVboys
p3829
I3
sVtranslat
p3830
I1
sVswitchboard
p3831
I1
sVsubsidiary
p3832
I1
sVmavericks
p3833
I1
sVplanet
p3834
I4
sVexploration
p3835
I1
sVskittish
p3836
I1
sVrecognition
p3837
I1
sVcurv
p3838
I1
sVsort
p3839
I3
sVpartition
p3840
I1
sVconstant
p3841
I1
sVflow
p3842
I1
sVutilit
p3843
I1
sVsingle
p3844
I3
sVcurb
p3845
I1
sVpsychoanalysis
p3846
I1
sVdeadpann
p3847
I2
sVkirk
p3848
I1
sVfunctionality
p3849
I1
sVllanquihue
p3850
I1
sVaccidental
p3851
I1
sVlend
p3852
I1
sVcopblock
p3853
I1
sVlens
p3854
I3
sVrepresentat
p3855
I1
sVdesert
p3856
I2
sVdeserv
p3857
I1
sVbankers
p3858
I1
sV2002
p3859
I1
sV2003
p3860
I1
sV2000
p3861
I1
sV2006
p3862
I1
sV2007
p3863
I1
sV2004
p3864
I7
sV2005
p3865
I3
sV2008
p3866
I1
sV2009
p3867
I2
sVtube
p3868
I1
sVminors
p3869
I1
sVsensit
p3870
I1
sVrivalry
p3871
I1
sVsuave
p3872
I1
sVhelps
p3873
I5
sVofficials
p3874
I14
sVmaryland
p3875
I3
sVfatal
p3876
I3
sVnervousness
p3877
I1
sVdisclos
p3878
I1
sVsurgeon
p3879
I2
sVlegos
p3880
I1
sVentire
p3881
I3
sVnotabl
p3882
I1
sVjoel
p3883
I1
sVshock
p3884
I1
sVmin
p3885
I1
sVcoordinat
p3886
I2
sVtolmach
p3887
I1
sVvisualiz
p3888
I1
sVmural
p3889
I6
sVrivers
p3890
I1
sVedison
p3891
I1
sVchicago
p3892
I5
sVaccess
p3893
I4
sVcondominium
p3894
I1
sVbody
p3895
I5
sVjustification
p3896
I1
sVexchange
p3897
I1
sVindustr
p3898
I2
sVpeggy
p3899
I1
sVbachelor
p3900
I4
sVobjects
p3901
I2
sVothers
p3902
I5
sVsing
p3903
I3
sV38
p3904
I2
sVtalent
p3905
I2
sV33
p3906
I1
sV32
p3907
I5
sV30
p3908
I12
sV37
p3909
I1
sV36
p3910
I1
sV35
p3911
I2
sV34
p3912
I5
sVhonor
p3913
I3
sVprivate
p3914
I15
sVmanny
p3915
I3
sVscandal
p3916
I1
sVresolutions
p3917
I1
sVstaple
p3918
I1
sVseamless
p3919
I2
sVnobel
p3920
I1
sV[image]
p3921
I1
sVtrail
p3922
I2
sVtrain
p3923
I5
sViii
p3924
I1
sVhints
p3925
I1
sVaccount
p3926
I5
sVinclinations
p3927
I1
sVf
p3928
I18
sV840
p3929
I2
sVemploye
p3930
I7
sVcontempt
p3931
I1
sVsurfac
p3932
I1
sVdemocracy
p3933
I1
sVawkwardness
p3934
I1
sVholds
p3935
I2
sVwinners
p3936
I1
sVforest
p3937
I1
sVcontrasts
p3938
I1
sVrevs
p3939
I1
sVstock
p3940
I3
sVbuildings
p3941
I3
sVwaters
p3942
I2
sVleukemia
p3943
I1
sVcollection
p3944
I1
sVfray
p3945
I1
sVbind
p3946
I1
sVsit
p3947
I5
sVliner
p3948
I1
sVchief
p3949
I19
sVfac
p3950
I3
sVgeopolitics
p3951
I1
sVmeter
p3952
I2
sVhorns
p3953
I1
sVagricultural
p3954
I1
sVbridget
p3955
I1
sVbrian
p3956
I2
sVll
p3957
I8
sVli
p3958
I1
sVlt
p3959
I2
sVcriminal
p3960
I3
sVly
p3961
I1
sVdad
p3962
I2
sVgreater
p3963
I2
sVdan
p3964
I1
sVdai
p3965
I1
sVdat
p3966
I1
sVmention
p3967
I4
sVmandate
p3968
I1
sVsurviv
p3969
I2
sVday
p3970
I29
sVpreschool
p3971
I2
sVfebruary
p3972
I6
sVthrill
p3973
I2
sV[js__image--standard]
p3974
I1
sVelus
p3975
I1
sVsalesman
p3976
I1
sVrez
p3977
I1
sVmatt
p3978
I2
sVrep
p3979
I1
sVcasios
p3980
I2
sVfarm
p3981
I1
sVstud
p3982
I6
sVelectronics
p3983
I1
sVdefens
p3984
I4
sVpayroll
p3985
I2
sV589
p3986
I4
sVgaug
p3987
I1
sVreleas
p3988
I10
sVlikelihood
p3989
I2
sVinteraction
p3990
I3
sVyard
p3991
I1
sVghraib
p3992
I2
sVchicken
p3993
I1
sVbarriers
p3994
I2
sVretain
p3995
I1
sVrunn
p3996
I7
sVsouth
p3997
I5
sVsack
p3998
I1
sVstrategic
p3999
I1
sVhurdle
p4000
I1
sVwarships
p4001
I1
sVestablishments
p4002
I1
sVpalestine
p4003
I1
sVpreakness
p4004
I1
sVgear
p4005
I2
sVexplanation
p4006
I2
sVnobody
p4007
I1
sVenvironmental
p4008
I6
sVreaffirm
p4009
I2
sVipad
p4010
I1
sVstructur
p4011
I2
sVcompensation
p4012
I2
sVlover
p4013
I1
sVcomfortable
p4014
I1
sVhave
p4015
I143
sVdisturbing
p4016
I1
sVturn
p4017
I17
sVdemonstration
p4018
I2
sVcontinents
p4019
I1
sVmil
p4020
I1
sVdallas
p4021
I1
sVgravity
p4022
I1
sVconcerns
p4023
I1
sV325
p4024
I1
sVautocratic
p4025
I1
sVunless
p4026
I2
sVprocure
p4027
I2
sVeight
p4028
I4
sVprisoner
p4029
I2
sVtranscript
p4030
I1
sVlandscap
p4031
I1
sVgather
p4032
I1
sVgraphs
p4033
I2
sVoccasion
p4034
I3
sVmi6
p4035
I1
sVselection
p4036
I1
sVtext
p4037
I2
sVhomeowner
p4038
I1
sVthicker
p4039
I2
sVstaff
p4040
I5
sVknowledge
p4041
I1
sVwith
p4042
I174
sVcontrols
p4043
I1
sVbeat
p4044
I2
sVincreas
p4045
I9
sVjapan
p4046
I3
sVareas
p4047
I4
sVteams
p4048
I6
sVexists
p4049
I1
sVnational
p4050
I17
sVwe
p4051
I48
sVcollaborat
p4052
I3
sVreform
p4053
I3
sVbrunt
p4054
I1
sVroutine
p4055
I1
sVprogress
p4056
I4
sVdeliver
p4057
I5
sVjoke
p4058
I1
sVequal
p4059
I2
sVtrips
p4060
I1
sVassure
p4061
I1
sVinstanc
p4062
I1
sValeuy
p4063
I1
sVotherwise
p4064
I1
sVrelevant
p4065
I2
sVguidelin
p4066
I2
sVlaugh
p4067
I2
sVfukushima
p4068
I6
sVattende
p4069
I1
sVag
p4070
I3
sV[feat-pq]
p4071
I2
sVgaza
p4072
I10
sVcurtail
p4073
I1
sVgoddess
p4074
I5
sVburrard
p4075
I1
sVplayer
p4076
I3
sVbull
p4077
I2
sVglitzy
p4078
I1
sVvolunteer
p4079
I1
sVmulti
p4080
I1
sVatmospheric
p4081
I1
sVsplits
p4082
I1
sVap
p4083
I1
sVappearance
p4084
I1
sVvalue
p4085
I7
sVdefin
p4086
I1
sVentrepreneurial
p4087
I3
sVjeanette
p4088
I1
sValmost
p4089
I11
sVarrangements
p4090
I3
sVarabia
p4091
I4
sVpartner
p4092
I4
sVportray
p4093
I1
sVproductivity
p4094
I3
sVadministration
p4095
I14
sVshuttle
p4096
I1
sVcommodit
p4097
I1
sVpowell
p4098
I1
sVprais
p4099
I1
sVmaterial
p4100
I3
sVcubic
p4101
I2
sVsisters
p4102
I2
sVfrancisco
p4103
I3
sVcenter
p4104
I10
sVnevertheless
p4105
I1
sVseth
p4106
I1
sVantonio
p4107
I1
sVthought
p4108
I15
sVsets
p4109
I2
sVposition
p4110
I1
sVmuscle
p4111
I1
sVsoviet
p4112
I1
sVusual
p4113
I4
sVproximity
p4114
I2
sVemerald
p4115
I1
sVdomestic
p4116
I1
sVtone
p4117
I3
sVlake
p4118
I1
sVbench
p4119
I1
sVadd
p4120
I15
sVincorporations
p4121
I1
sVcitizen
p4122
I2
sV280
p4123
I1
sVadl
p4124
I1
sVought
p4125
I1
sVtests
p4126
I1
sVrealiz
p4127
I1
sVlike
p4128
I58
sVsuccess
p4129
I6
sVhousekeeper
p4130
I1
sVkhyber
p4131
I3
sVworks
p4132
I4
sVsoft
p4133
I2
sVbecquerels
p4134
I3
sVauthority
p4135
I5
sVhair
p4136
I1
sVproper
p4137
I4
sV[story-print-citation]
p4138
I1
sVhappens
p4139
I3
sVbulbous
p4140
I1
sVcorpse
p4141
I1
sVappreciat
p4142
I1
sVdiscretion
p4143
I1
sVeconomical
p4144
I2
sVregain
p4145
I1
sVstellar
p4146
I1
sVlieutenant
p4147
I1
sVhost
p4148
I4
sValthough
p4149
I1
sVhospitable
p4150
I1
sVglobaliz
p4151
I1
sVpanel
p4152
I4
sVvuitton
p4153
I1
sVabout
p4154
I64
sVactual
p4155
I12
sVescanilla
p4156
I8
sVcertainty
p4157
I1
sVbrattle
p4158
I1
sVucluelet
p4159
I2
sVfunctional
p4160
I1
sVchris
p4161
I3
sVplayoff
p4162
I1
sVfemale
p4163
I2
sVhang
p4164
I1
sV1986
p4165
I2
sV1987
p4166
I1
sV1982
p4167
I1
sVquants
p4168
I1
sVpictur
p4169
I2
sVadversarial
p4170
I1
sV1988
p4171
I1
sVrusher
p4172
I3
sVbiggest
p4173
I10
sVglobe
p4174
I6
sVbuy
p4175
I10
sVbus
p4176
I4
sVbrand
p4177
I1
sVbut
p4178
I154
sVrajan
p4179
I1
sVrepeated
p4180
I1
sVbackstop
p4181
I1
sVversatile
p4182
I1
sVglory
p4183
I1
sVseiz
p4184
I3
sVj
p4185
I9
sVflip
p4186
I2
sVsportsnet
p4187
I3
sVundercard
p4188
I1
sVplutonium
p4189
I1
sVpil
p4190
I1
sVpie
p4191
I1
sVperiods
p4192
I1
sVcampus
p4193
I4
sV48
p4194
I1
sV49
p4195
I1
sV47
p4196
I1
sV44
p4197
I1
sV42
p4198
I1
sVdetail
p4199
I5
sV40
p4200
I7
sVdetain
p4201
I2
sVsandy
p4202
I1
sVrelativ
p4203
I1
sVstimulant
p4204
I1
sVdictatorships
p4205
I1
sVseismic
p4206
I2
sVcpu
p4207
I1
sV4k
p4208
I1
sVslogg
p4209
I1
sVhats
p4210
I1
sVsleep
p4211
I1
sVparis
p4212
I2
sVpoorest
p4213
I1
sVthinness
p4214
I2
sVunder
p4215
I15
sVpride
p4216
I1
sVlegislators
p4217
I1
sVrisk
p4218
I5
sVdollar
p4219
I1
sVrise
p4220
I8
sVevery
p4221
I10
sVjack
p4222
I5
sVschool
p4223
I43
sVflashy
p4224
I1
sVfairfax
p4225
I1
sVenjoy
p4226
I1
sVleaders
p4227
I13
sVconsistent
p4228
I3
sVwelfare
p4229
I1
sVdirect
p4230
I10
sVstreet
p4231
I9
sVblue
p4232
I1
sVweren
p4233
I1
sVpoison
p4234
I3
sVconduct
p4235
I7
sVinternships
p4236
I1
sVramps
p4237
I1
sVhundreds
p4238
I1
sVyanke
p4239
I4
sVhumility
p4240
I3
sVaftermath
p4241
I1
sVproperty
p4242
I1
sVanalysts
p4243
I2
sVchanger
p4244
I1
sVoffs
p4245
I3
sS'<div>'
p4246
I15
sVstrap
p4247
I2
sVvisible
p4248
I1
sVdescrib
p4249
I7
sVwould
p4250
I65
sVhospital
p4251
I1
sV25th
p4252
I1
sVbreathe
p4253
I1
sVunrestrain
p4254
I2
sVphone
p4255
I3
sVmust
p4256
I6
sVme
p4257
I34
sVmd
p4258
I1
sVjoin
p4259
I6
sVmo
p4260
I7
sVarticulateness
p4261
I1
sVinstall
p4262
I1
sVhenry
p4263
I2
sV[story-footer-links]
p4264
I1
sVcarmen
p4265
I2
sVdeclassifi
p4266
I1
sVfortress
p4267
I1
sVestate
p4268
I1
sVgadgets
p4269
I4
sVoverheard
p4270
I1
sVattract
p4271
I2
sVguarantee
p4272
I1
sVend
p4273
I10
sVconversation
p4274
I2
sVtoxic
p4275
I1
sVwidespread
p4276
I1
sVkilowatt
p4277
I1
sVelizabeth
p4278
I1
sV[a]
p4279
I13
sVmesh
p4280
I2
sVamid
p4281
I3
sVspous
p4282
I1
sVcomplexity
p4283
I1
sVenviron
p4284
I1
sVultimate
p4285
I3
sVenter
p4286
I6
sVharlem
p4287
I4
sVover
p4288
I49
sVexpects
p4289
I4
sVlondon
p4290
I2
sVwomanhood
p4291
I1
sVexpectations
p4292
I1
sVcomprehend
p4293
I1
sVcomplex
p4294
I3
sVfade
p4295
I2
sV400
p4296
I5
sVcomprehens
p4297
I1
sVclu
p4298
I1
sVtourist
p4299
I1
sValex
p4300
I2
sVcronyism
p4301
I1
sVrockville
p4302
I1
sVundermin
p4303
I1
sVeach
p4304
I11
sV[promo]
p4305
I2
sVsaturday
p4306
I9
sVdepress
p4307
I3
sVpsychic
p4308
I1
sVlaid
p4309
I1
sVmillennium
p4310
I1
sVgot
p4311
I8
sVgov
p4312
I3
sVgop
p4313
I3
sVperception
p4314
I1
sVassociate
p4315
I5
sVrail
p4316
I1
sVfree
p4317
I4
sVrain
p4318
I1
sVdonta
p4319
I1
sVdays
p4320
I9
sVheck
p4321
I1
sVbrioni
p4322
I1
sVaspire
p4323
I1
sVprobab
p4324
I7
sVonto
p4325
I5
sVrand
p4326
I2
sVrang
p4327
I2
sValready
p4328
I14
sVresearcher
p4329
I5
sVnhl
p4330
I1
sVpuck
p4331
I1
sVrank
p4332
I8
sVlovable
p4333
I1
sVfantasy
p4334
I1
sVtoy
p4335
I3
sVtop
p4336
I17
sVton
p4337
I1
sVtoo
p4338
I20
sVtom
p4339
I3
sVpercentage
p4340
I2
sVmilitancy
p4341
I2
sS'<b>'
p4342
I9
sVmurder
p4343
I9
sVtool
p4344
I1
sVserve
p4345
I2
sVtook
p4346
I12
sVwestern
p4347
I4
sVunsaid
p4348
I1
sVkidnapp
p4349
I1
sVroxbury
p4350
I2
sVimmigrants
p4351
I1
sVrolex
p4352
I1
sVbridge
p4353
I3
sVfashion
p4354
I1
sVrac
p4355
I5
sVran
p4356
I2
sVral
p4357
I1
sVkyle
p4358
I1
sVraw
p4359
I1
sVrat
p4360
I3
sVray
p4361
I2
sV1968
p4362
I1
sV1960
p4363
I1
sVsnow
p4364
I1
sV1962
p4365
I1
sVbrandon
p4366
I1
sVhearty
p4367
I1
sVeducator
p4368
I1
sVclunky
p4369
I1
sVthough
p4370
I16
sVdetainee
p4371
I2
sVplenty
p4372
I4
sValabama
p4373
I1
sVflop
p4374
I1
sVmetal
p4375
I3
sVreductions
p4376
I2
sVlabels
p4377
I1
sVradio
p4378
I1
sVshelv
p4379
I1
sVearth
p4380
I2
sVbain
p4381
I2
sVspite
p4382
I1
sVsituations
p4383
I2
sVdelays
p4384
I1
sVannounce
p4385
I8
sVhardball
p4386
I2
sVwatch
p4387
I26
sVamazon
p4388
I5
sVdespite
p4389
I8
sVreport
p4390
I34
sVtwice
p4391
I2
sVerupt
p4392
I4
sVunwitting
p4393
I1
sVbrick
p4394
I1
sVruins
p4395
I2
sVswept
p4396
I1
sV1960s
p4397
I2
sVfiefs
p4398
I1
sVcorrupt
p4399
I2
sVsporadic
p4400
I1
sVcapacity
p4401
I3
sVmud
p4402
I1
sVmum
p4403
I1
sVapproach
p4404
I6
sVbargains
p4405
I1
sVhowever
p4406
I6
sVboss
p4407
I2
sVwear
p4408
I3
sV[pipe]
p4409
I1
sVcontamination
p4410
I3
sVnews
p4411
I12
sVimprove
p4412
I2
sVprotect
p4413
I10
sVcandidat
p4414
I3
sVplayers
p4415
I7
sVexpense
p4416
I1
sVsullivan
p4417
I3
sVtrust
p4418
I2
sVconference
p4419
I13
sVbathroom
p4420
I4
sS'<strong>'
p4421
I49
sVbeen
p4422
I57
sVconfident
p4423
I1
sVsearch
p4424
I1
sVcraft
p4425
I1
sVcatch
p4426
I2
sVkentucky
p4427
I4
sVn
p4428
I7
sVlesser
p4429
I1
sV[inline-photo]
p4430
I2
sVexperts
p4431
I5
sVsuggest
p4432
I2
sVwound
p4433
I1
sVswall
p4434
I1
sVforehead
p4435
I1
sVutilitarian
p4436
I1
sVhealthier
p4437
I1
sVseveral
p4438
I11
sVcomplet
p4439
I3
sVsocial
p4440
I7
sVschem
p4441
I1
sVcharacters
p4442
I1
sVcycle
p4443
I1
sVneurologists
p4444
I1
sVcharlie
p4445
I1
sVlitigator
p4446
I1
sVocean
p4447
I4
sV[meta-loc]
p4448
I1
sVsavings
p4449
I1
sVleagu
p4450
I1
sVgreatest
p4451
I2
sVmother
p4452
I6
sVeveryth
p4453
I5
sVappease
p4454
I2
sVlaptop
p4455
I5
sVcouncilman
p4456
I1
sVcampbell
p4457
I1
sVshorthand
p4458
I1
sVkell
p4459
I1
sVteenager
p4460
I2
sVtechnological
p4461
I1
sVconjur
p4462
I1
sVgave
p4463
I7
sVbands
p4464
I2
sVizzedine
p4465
I1
sVauthorship
p4466
I1
sVapart
p4467
I1
sVgift
p4468
I1
sV51
p4469
I1
sV50
p4470
I7
sVspecific
p4471
I2
sVofficer
p4472
I20
sVarbitrary
p4473
I1
sVhung
p4474
I1
sVmatchup
p4475
I1
sVjennifer
p4476
I1
sVclubs
p4477
I1
sVelection
p4478
I1
sVcnn
p4479
I5
sVcore
p4480
I1
sVboundar
p4481
I1
sVchapter
p4482
I3
sVattacks
p4483
I1
sVsurround
p4484
I3
sVdinner
p4485
I1
sVplus
p4486
I3
sVefforts
p4487
I2
sVthr
p4488
I2
sVsept
p4489
I2
sVproduc
p4490
I6
sVunrespons
p4491
I5
sVduke
p4492
I2
sVpresence
p4493
I2
sVcivil
p4494
I8
sVaccommodate
p4495
I1
sVentrepreneur
p4496
I1
sVbatt
p4497
I2
sVppv
p4498
I1
sVcoastal
p4499
I2
sVrounds
p4500
I2
sVgiv
p4501
I12
sVrely
p4502
I1
sVfrustrat
p4503
I2
sVclass
p4504
I13
sVsends
p4505
I1
sVreli
p4506
I2
sVfought
p4507
I3
sVsynthesiz
p4508
I1
sVcrews
p4509
I1
sVquestionable
p4510
I1
sVhead
p4511
I9
sVsubsidiz
p4512
I2
sVwireless
p4513
I2
sVuncle
p4514
I1
sVsolar
p4515
I18
sVcounsel
p4516
I2
sVversions
p4517
I1
sVsupp
p4518
I1
sVbargain
p4519
I1
sVdecorate
p4520
I1
sVvideoconferenc
p4521
I1
sVimpropriety
p4522
I1
sVadvancements
p4523
I1
sVrahm
p4524
I1
sVkaufman
p4525
I2
sVsometime
p4526
I1
sVtrip
p4527
I5
sVregime
p4528
I1
sVassembl
p4529
I2
sVno
p4530
I55
sVwhereas
p4531
I1
sVwhen
p4532
I71
sVne
p4533
I28
sVtir
p4534
I1
sVtim
p4535
I26
sVtin
p4536
I1
sVstagnant
p4537
I1
sVtie
p4538
I1
sVhundr
p4539
I4
sVnodd
p4540
I1
sVfootball
p4541
I3
sVyounger
p4542
I2
sVlonger
p4543
I7
sVserious
p4544
I2
sVcoach
p4545
I2
sV[embedded]
p4546
I1
sVron
p4547
I1
sVrob
p4548
I2
sVfocus
p4549
I10
sVdeprav
p4550
I3
sVrecharge
p4551
I1
sV1947
p4552
I1
sVquasi
p4553
I1
sVmultilinear
p4554
I1
sVhenderson
p4555
I1
sVcoop
p4556
I1
sVfederation
p4557
I1
sVadvantage
p4558
I4
sVimpend
p4559
I1
sVtanks
p4560
I2
sVcook
p4561
I4
sVcool
p4562
I6
sVlevel
p4563
I9
sVcamaraderie
p4564
I1
sVbrother
p4565
I1
sVstandards
p4566
I4
sVyale
p4567
I4
sVquick
p4568
I4
sVsays
p4569
I36
sVtrend
p4570
I1
sVport
p4571
I4
sVsubstitute
p4572
I1
sVconstitution
p4573
I1
sV522
p4574
I1
sVhairy
p4575
I1
sVwater
p4576
I8
sVbaseball
p4577
I1
sVgroups
p4578
I7
sVthirty
p4579
I2
sVhealthy
p4580
I1
sVrethink
p4581
I1
sVguilty
p4582
I3
sVshootings
p4583
I1
sVhopeful
p4584
I1
sVoverthink
p4585
I1
sVcrisis
p4586
I4
sVconcoct
p4587
I1
sVgrievanc
p4588
I1
sVsports
p4589
I4
sViphone
p4590
I6
sVprev
p4591
I7
sVtoday
p4592
I27
sVriot
p4593
I1
sVsessions
p4594
I1
sVoutputs
p4595
I1
sVemployee
p4596
I5
sVdrown
p4597
I1
sVventur
p4598
I1
sVsheds
p4599
I1
sVlocal
p4600
I14
sVjudg
p4601
I2
sVjudy
p4602
I1
sVterrell
p4603
I1
sVstreak
p4604
I1
sVfigure
p4605
I3
sVexpectant
p4606
I1
sVcritic
p4607
I1
sVbezos
p4608
I1
sVquacks
p4609
I1
sVprovoke
p4610
I1
sVrequirements
p4611
I1
sV1
p4612
I23
sVrubio
p4613
I4
sVfourth
p4614
I4
sVensure
p4615
I1
sVspeaks
p4616
I1
sV!
p4617
I1
sVhuge
p4618
I4
sVharvardno
p4619
I1
sVislamic
p4620
I2
sVeighth
p4621
I1
sVclassroom
p4622
I1
sVpractic
p4623
I1
sVcommodity
p4624
I1
sVmayweather
p4625
I9
sVcurry
p4626
I3
sVinform
p4627
I3
sVcombin
p4628
I2
sV125
p4629
I1
sVfallout
p4630
I5
sVmidnight
p4631
I1
sVcanard
p4632
I1
sVsuperbelt
p4633
I1
sVgtm
p4634
I6
sVplatform
p4635
I2
sVoffers
p4636
I2
sVgray
p4637
I42
sVconversations
p4638
I1
sVwagon
p4639
I4
sVterm
p4640
I4
sVname
p4641
I11
sVnamo
p4642
I1
sVrealistic
p4643
I1
sVshy
p4644
I1
sVmeasurabl
p4645
I1
sVgaps
p4646
I1
sVbegun
p4647
I1
sVfactors
p4648
I1
sVprofit
p4649
I2
sVtensions
p4650
I3
sVmaneuver
p4651
I1
sVtheory
p4652
I2
sVisotope
p4653
I2
sVdispatcher
p4654
I1
sVunpaid
p4655
I1
sVplace
p4656
I10
sVlactation
p4657
I1
sVswing
p4658
I1
sVsuspend
p4659
I2
sVexecutiv
p4660
I5
sVrevenue
p4661
I3
sVclumsy
p4662
I1
sVarray
p4663
I1
sVgeorge
p4664
I4
sVengineer
p4665
I4
sVgiven
p4666
I7
sVafterthought
p4667
I1
sVdistrict
p4668
I1
sVstuck
p4669
I3
sVplastic
p4670
I2
sVreturns
p4671
I1
sVseeker
p4672
I1
sVwhite
p4673
I6
sVcopi
p4674
I3
sVhuh
p4675
I1
sValan
p4676
I2
sVspecify
p4677
I1
sVdarduna
p4678
I1
sVwide
p4679
I8
sVnathan
p4680
I1
sVrequire
p4681
I2
sVspokeswoman
p4682
I6
sVr
p4683
I24
sVposit
p4684
I1
sVoutcome
p4685
I3
sVoath
p4686
I1
sVpre
p4687
I1
sVpro
p4688
I3
sVrent
p4689
I2
sVanx
p4690
I1
sVany
p4691
I26
sVtechniqu
p4692
I1
sVideas
p4693
I2
sVemphasis
p4694
I1
sVemphasiz
p4695
I1
sVsurf
p4696
I1
sVsurg
p4697
I1
sVsure
p4698
I10
sVmultiple
p4699
I2
sVclearer
p4700
I1
sVrematch
p4701
I1
sVconnor
p4702
I1
sVmultiply
p4703
I1
sVlater
p4704
I25
sVhungry
p4705
I1
sVruntim
p4706
I1
sVhear
p4707
I3
sVsenior
p4708
I9
sVinequity
p4709
I1
sVcheat
p4710
I4
sVworkshops
p4711
I1
sVallegations
p4712
I2
sVtroy
p4713
I1
sVpermiss
p4714
I1
sVgulf
p4715
I2
sVstate
p4716
I25
sVcrime
p4717
I1
sVwood
p4718
I2
sVpartake
p4719
I1
sVindicat
p4720
I2
sVlighter
p4721
I1
sVcautionary
p4722
I1
sVreveal
p4723
I5
sVpants
p4724
I1
sVken
p4725
I2
sVartworks
p4726
I1
sV1920
p4727
I1
sVcollege
p4728
I29
sVduggan
p4729
I1
sVdetect
p4730
I2
sVvoluntary
p4731
I1
sVways
p4732
I7
sVsubsequent
p4733
I1
sVreview
p4734
I10
sVdefinite
p4735
I1
sVweapons
p4736
I2
sVoutside
p4737
I2
sVarrival
p4738
I1
sVreceivers
p4739
I1
sV[credit]
p4740
I1
sVguitar
p4741
I1
sVcycl
p4742
I2
sVpens
p4743
I3
sVcome
p4744
I17
sVregion
p4745
I5
sVsenator
p4746
I1
sVregressions
p4747
I1
sVjoe
p4748
I3
sVduty
p4749
I1
sV[media__image]
p4750
I1
sVcolor
p4751
I1
sVinspir
p4752
I2
sVperiod
p4753
I2
sVpop
p4754
I2
sV60
p4755
I5
sV61
p4756
I1
sV62
p4757
I1
sVpundits
p4758
I1
sV66
p4759
I1
sV69
p4760
I1
sVsidelin
p4761
I1
sVturkey
p4762
I1
sVsaudis
p4763
I1
sVcoupl
p4764
I1
sVpeaceful
p4765
I1
sV500
p4766
I4
sV630
p4767
I1
sVdirection
p4768
I1
sVminister
p4769
I2
sVcareful
p4770
I2
sVspirit
p4771
I1
sVpilot
p4772
I1
sVcase
p4773
I15
sVmyself
p4774
I1
sVlife4
p4775
I1
sVamend
p4776
I1
sVcash
p4777
I4
sVpremature
p4778
I1
sVcast
p4779
I2
sVtelephone
p4780
I1
sVdissident
p4781
I1
sVgood
p4782
I21
sVauthor
p4783
I7
sValphabet
p4784
I1
sVbowl
p4785
I1
sVcheck
p4786
I4
sVreminder
p4787
I4
sVevents
p4788
I4
sVweek
p4789
I23
sVshenbari
p4790
I8
sVweei
p4791
I1
sVpersona
p4792
I1
sVdriver
p4793
I3
sVnesn
p4794
I1
sVlamentation
p4795
I1
sVsubmariner
p4796
I1
sVarose
p4797
I1
sVfootprint
p4798
I3
sVweep
p4799
I3
sVminimize
p4800
I1
sV[edTag]
p4801
I1
sVwithout
p4802
I11
sVrelief
p4803
I3
sVcomponents
p4804
I1
sVmodel
p4805
I10
sVreward
p4806
I1
sVresearchers
p4807
I7
sVjustify
p4808
I2
sVdesolate
p4809
I1
sVactions
p4810
I5
sVviolent
p4811
I3
sVkill
p4812
I5
sVclos
p4813
I1
sVdiplomats
p4814
I1
sVelectrolyte
p4815
I1
sVblow
p4816
I2
sVseems
p4817
I3
sVexcept
p4818
I2
sVassociation
p4819
I27
sVdisrupt
p4820
I4
sVross
p4821
I3
sVkingdom
p4822
I1
sVvirginia
p4823
I2
sVexcret
p4824
I1
sVparticle
p4825
I1
sVsubscribe
p4826
I1
sVbracelet
p4827
I1
sVdonations
p4828
I2
sVrecalls
p4829
I1
sVcollapsible
p4830
I1
sVpacific
p4831
I5
sVrespect
p4832
I4
sVmood
p4833
I1
sVoverstat
p4834
I1
sVhighest
p4835
I1
sVstopp
p4836
I2
sVstops
p4837
I2
sVhanif
p4838
I1
sVporter
p4839
I2
sV[media__image--responsive]
p4840
I1
sVcommunicate
p4841
I1
sVslaughter
p4842
I1
sVbluefins
p4843
I1
sVon
p4844
I248
sVoh
p4845
I1
sVof
p4846
I421
sVchoirs
p4847
I1
sVstand
p4848
I11
sVgregory
p4849
I1
sVor
p4850
I75
sVcommunication
p4851
I1
sVspinal
p4852
I1
sVaccounts
p4853
I2
sVdetermine
p4854
I1
sVthere
p4855
I70
sVdispersion
p4856
I1
sVinterfac
p4857
I1
sVstrong
p4858
I8
sVvalley
p4859
I1
sVenergy
p4860
I26
sVrelig
p4861
I3
sVjug
p4862
I1
sVkittens
p4863
I2
sVregard
p4864
I2
sVdiffus
p4865
I1
sVwholesale
p4866
I2
sVnotab
p4867
I2
sVtreadwell
p4868
I2
sVbritain
p4869
I1
sVyemeni
p4870
I2
sVsalvage
p4871
I1
sVencompass
p4872
I1
sVspends
p4873
I1
sV5
p4874
I13
sVmenendez
p4875
I2
sVchampionship
p4876
I3
sVseparate
p4877
I1
sVsymbol
p4878
I1
sVspouse
p4879
I1
sVculminat
p4880
I1
sVcalls
p4881
I7
sVwife
p4882
I5
sVinvest
p4883
I6
sVodds
p4884
I2
sVdirectors
p4885
I1
sVall
p4886
I60
sVchinese
p4887
I1
sVali
p4888
I1
sVscrappy
p4889
I1
sVlack
p4890
I7
sVbaroni
p4891
I2
sVearners
p4892
I1
sVfollow
p4893
I6
sVdecisions
p4894
I5
sVcoastlin
p4895
I1
sVcatastrophe
p4896
I2
sVbalenciaga
p4897
I2
sVthursday
p4898
I17
sVaaron
p4899
I1
sVprogram
p4900
I27
sVwoman
p4901
I3
sVworse
p4902
I3
sVsong
p4903
I3
sVfar
p4904
I11
sVfat
p4905
I1
sVcerebellum
p4906
I1
sVpsychologist
p4907
I4
sVsons
p4908
I1
sVfan
p4909
I2
sVawful
p4910
I1
sVsony
p4911
I1
sVticket
p4912
I1
sVticker
p4913
I2
sVlist
p4914
I6
sVgrandfather
p4915
I1
sVundone
p4916
I1
sVmanslaughter
p4917
I13
sVten
p4918
I4
sVtea
p4919
I1
sVtex
p4920
I1
sVmiscarriag
p4921
I1
sVrate
p4922
I2
sVhawdramaut
p4923
I1
sVnbc
p4924
I5
sVnba
p4925
I3
sVwhat
p4926
I48
sVbrien
p4927
I7
sVsun
p4928
I7
sVsum
p4929
I2
sVparalegal
p4930
I3
sVanniversary
p4931
I2
sVcrush
p4932
I2
sVversion
p4933
I5
sVguns
p4934
I1
sVthemselv
p4935
I7
sVremarkab
p4936
I4
sVberkeley
p4937
I1
sVtragedy
p4938
I1
sVincrements
p4939
I2
sVallows
p4940
I3
sVoptions
p4941
I3
sV1901
p4942
I1
sVproceed
p4943
I1
sVdraftniks
p4944
I1
sVcharge
p4945
I4
sVmarkets
p4946
I4
sVminor
p4947
I3
sVseeps
p4948
I1
sVflat
p4949
I1
sVisrael
p4950
I6
sVknows
p4951
I3
sVhoffman
p4952
I3
sVproblem
p4953
I10
sVflag
p4954
I2
sVfloyd
p4955
I3
sVstick
p4956
I2
sVknown
p4957
I4
sVglad
p4958
I3
sVeden
p4959
I1
sVequation
p4960
I2
sVoutlin
p4961
I1
sVv
p4962
I1
sVpony
p4963
I1
sVdivision
p4964
I1
sVsourc
p4965
I2
sVszalai
p4966
I1
sVallege
p4967
I1
sVcours
p4968
I6
sVcourt
p4969
I5
sVgoal
p4970
I1
sVevacuat
p4971
I2
sVdesperation
p4972
I1
sVrather
p4973
I12
sVbuzzword
p4974
I1
sVexplains
p4975
I5
sVresourc
p4976
I3
sVpreoccupi
p4977
I1
sVshort
p4978
I9
sVmeticulous
p4979
I1
sVcaus
p4980
I7
sVshade
p4981
I1
sVshadi
p4982
I1
sVturnover
p4983
I1
sVdon't
p4984
I2
sVseptember
p4985
I3
sVessence
p4986
I1
sVcloseness
p4987
I1
sVmission
p4988
I4
sVinterpersonal
p4989
I1
sVmilwaukee
p4990
I1
sVdeveloper
p4991
I1
sVstyle
p4992
I6
sVcall
p4993
I22
sVscor
p4994
I3
sVstephen
p4995
I2
sVargentina
p4996
I1
sVmight
p4997
I16
sVaccompli
p4998
I1
sVwouldn
p4999
I3
sVreturn
p5000
I4
sVclippers
p5001
I3
sVunits
p5002
I1
sVcasio
p5003
I2
sVsmoothness
p5004
I1
sVbigger
p5005
I2
sVmarcus
p5006
I1
sVinequality
p5007
I1
sVundertak
p5008
I1
sVceas
p5009
I1
sVrainmaker
p5010
I1
sVweight
p5011
I5
sVgeneration
p5012
I3
sVexpect
p5013
I16
sVloops
p5014
I1
sVtelltale
p5015
I2
sVdiscrete
p5016
I1
sVnavigational
p5017
I1
sVadhere
p5018
I1
sVhealth
p5019
I11
sVbillikopf
p5020
I2
sVbenjamin
p5021
I2
sVwisconsin
p5022
I1
sVadvanc
p5023
I1
sVfriday
p5024
I9
sVguess
p5025
I1
sVethnomusicologist
p5026
I1
sVteach
p5027
I3
sVthrown
p5028
I1
sVthread
p5029
I2
sVthreat
p5030
I1
sVtwenty
p5031
I2
sVconsequence
p5032
I1
sVfallen
p5033
I2
sVjadoon
p5034
I1
sVseeming
p5035
I2
sVfeel
p5036
I8
sVfancy
p5037
I1
sVfeet
p5038
I5
sVbrave
p5039
I1
sVstory
p5040
I5
sVscript
p5041
I1
sVprescient
p5042
I1
sVgpu
p5043
I3
sVstore
p5044
I5
sVpains
p5045
I2
sVhotel
p5046
I2
sValbeit
p5047
I1
sVkind
p5048
I8
sVremov
p5049
I1
sVstall
p5050
I1
sVrisks
p5051
I1
sVsalazar
p5052
I1
sVrisky
p5053
I1
sVcleaner
p5054
I1
sVskyscrapers
p5055
I1
sVoverrat
p5056
I1
sVimports
p5057
I1
sValike
p5058
I1
sVunikrn
p5059
I1
sVnights
p5060
I1
sVviolat
p5061
I1
sVchairman
p5062
I2
sVpopulous
p5063
I1
sVrol
p5064
I1
sVelectric
p5065
I7
sV[meta-org]
p5066
I2
sVgoldman
p5067
I1
sVaman
p5068
I1
sVeruption
p5069
I6
sV76
p5070
I1
sVshareholder
p5071
I1
sV70
p5072
I4
sVgilt
p5073
I1
sVseasons
p5074
I1
sVstands
p5075
I1
sVwindows
p5076
I4
sVdestruct
p5077
I2
sVtraditional
p5078
I1
sVforerunner
p5079
I1
sVnotch
p5080
I1
sVinstitutions
p5081
I1
sVdeserts
p5082
I1
sVinflection
p5083
I1
sVpenalty
p5084
I2
sVdiscuss
p5085
I5
sVshepherd
p5086
I1
sVhir
p5087
I8
sVhis
p5088
I87
sVhit
p5089
I8
sVgains
p5090
I4
sValicia
p5091
I2
sVemails
p5092
I5
sVadulthood
p5093
I1
sVtimeless
p5094
I1
sVinvestigate
p5095
I1
sVactivity
p5096
I2
sVsustainable
p5097
I2
sVvincent
p5098
I1
sVsanaa
p5099
I3
sVwrote
p5100
I11
sVgroupe
p5101
I1
sVarr
p5102
I1
sVart
p5103
I4
sVintelligence
p5104
I4
sVarc
p5105
I1
sVdumb
p5106
I1
sVare
p5107
I119
sVdemonstrat
p5108
I2
sVark
p5109
I1
sVarm
p5110
I6
sVcutoffs
p5111
I2
sVthreats
p5112
I3
sVobstructionist
p5113
I1
sVunions
p5114
I1
sVsolo
p5115
I2
sVsold
p5116
I2
sVattention
p5117
I5
sVopposition
p5118
I2
sVfranchise
p5119
I1
sVcondo
p5120
I1
sVc
p5121
I22
sVordinanc
p5122
I1
sVautomatics
p5123
I1
sVbecame
p5124
I6
sVoperat
p5125
I6
sVconsiderab
p5126
I1
sVfinds
p5127
I2
sVprofessorial
p5128
I1
sVreject
p5129
I1
sVreasons
p5130
I3
sVravi
p5131
I2
sVmistak
p5132
I2
sVseiko
p5133
I3
sVbolster
p5134
I1
sVdecline
p5135
I2
sVoverlook
p5136
I1
sVpolitical
p5137
I13
sVdue
p5138
I6
sVstrategy
p5139
I4
sVpc
p5140
I2
sVpe
p5141
I1
sVph
p5142
I1
sV1950s
p5143
I1
sVuninform
p5144
I1
sVorchestrat
p5145
I2
sVdemand
p5146
I7
sVplants
p5147
I2
sVgeorgia
p5148
I3
sVfrozen
p5149
I1
sVuncontroll
p5150
I1
sVbehavior
p5151
I2
sVengineers
p5152
I3
sVmuhler
p5153
I1
sVris
p5154
I2
sVrip
p5155
I1
sVobstacle
p5156
I1
sVrid
p5157
I1
sVcurrents
p5158
I1
sVqat
p5159
I1
sS'<ul>'
p5160
I2
sV9
p5161
I3
sVadvise
p5162
I1
sVdaughters
p5163
I1
sVhigher
p5164
I9
sVliterature
p5165
I1
sVflows
p5166
I1
sVexpropriat
p5167
I1
sVflown
p5168
I1
sVcontractors
p5169
I3
sVlower
p5170
I6
sVanybody
p5171
I2
sVanalysis
p5172
I3
sVcheer
p5173
I1
sVedge
p5174
I2
sVinspirational
p5175
I1
sVobituar
p5176
I1
sVsystematical
p5177
I1
sVquestions
p5178
I8
sVpatel
p5179
I1
sVcontinent
p5180
I1
sVprofitable
p5181
I1
sVtablet
p5182
I2
sVadvisers
p5183
I1
sVworkers
p5184
I6
sVcontractor
p5185
I1
sVviolations
p5186
I1
sVcustomers
p5187
I7
sVdiscriminatory
p5188
I2
sVnecessary
p5189
I2
sVawaken
p5190
I1
sVcapitals
p5191
I2
sVcollect
p5192
I4
sVarthur
p5193
I1
sVunstable
p5194
I1
sVessential
p5195
I3
sVglobal
p5196
I6
sVtraits
p5197
I1
sVvacate
p5198
I1
sVsurpris
p5199
I4
sVdistribut
p5200
I1
sVprov
p5201
I3
sVpros
p5202
I1
sVinnovation
p5203
I3
sVanne
p5204
I1
sVaccelerat
p5205
I1
sValoft
p5206
I1
sVsqueez
p5207
I1
sVintense
p5208
I2
sVpipeline
p5209
I1
sVentrepreneurs
p5210
I3
sVsurfers
p5211
I1
sVfrightful
p5212
I1
sVstricken
p5213
I1
sVrange
p5214
I6
sVcutoff
p5215
I2
sVmommy
p5216
I1
sVannounc
p5217
I10
sVrows
p5218
I1
sVlone
p5219
I2
sVlong
p5220
I22
sVvendors
p5221
I2
sVmountains
p5222
I2
sV[figcaption]
p5223
I1
sS'<span>'
p5224
I6
sVfluctuations
p5225
I1
sVfreak
p5226
I1
sVmillar
p5227
I1
sVralli
p5228
I1
sVcoordinator
p5229
I1
sVfamil
p5230
I4
sVrainy
p5231
I1
sVpeace
p5232
I4
sVbacks
p5233
I1
sVnich
p5234
I1
sVgre
p5235
I1
sVincome
p5236
I2
sVmock
p5237
I1
sVnice
p5238
I4
sVusers
p5239
I4
sVproblems
p5240
I5
sVdevelops
p5241
I1
sVhappier
p5242
I1
sVlead
p5243
I9
sVvice
p5244
I8
sVreiner
p5245
I1
sV196th
p5246
I1
sVintentional
p5247
I2
sV[el__gallery_image-title]
p5248
I1
sVonce
p5249
I19
sValleyways
p5250
I1
sVresistance
p5251
I2
sVsteve
p5252
I1
sVwinds
p5253
I1
sVcontributions
p5254
I1
sVspector
p5255
I1
sVgold
p5256
I1
sVuphold
p5257
I1
sVinclude
p5258
I8
sVmainstream
p5259
I1
sV[el-editorial-source]
p5260
I2
sVdeals
p5261
I1
sVfriendliness
p5262
I1
sVpleas
p5263
I2
sVsomeday
p5264
I2
sVsmaller
p5265
I3
sVbattl
p5266
I1
sVoverhype
p5267
I1
sVlivelihoods
p5268
I1
sVreunion
p5269
I1
sVmakers
p5270
I2
sVcompar
p5271
I3
sVshowcase
p5272
I1
sVcapital
p5273
I6
sVcompan
p5274
I17
sVchose
p5275
I1
sVdegree
p5276
I26
sVgiant
p5277
I2
sVyoungest
p5278
I2
sVexplore
p5279
I1
sVmetro
p5280
I3
sVlarger
p5281
I6
sVmetre
p5282
I2
sVcalvin
p5283
I1
sVengine
p5284
I1
sVsuggests
p5285
I1
sVcesium
p5286
I6
sVmatos
p5287
I1
sVapple
p5288
I35
sVspy
p5289
I2
sVappli
p5290
I1
sVapp
p5291
I1
sVapt
p5292
I1
sVmotor
p5293
I1
sVduck
p5294
I2
sVuse
p5295
I18
sVfee
p5296
I2
sVfrom
p5297
I106
sVusb
p5298
I1
sVconsumption
p5299
I1
sVnormal
p5300
I1
sVfew
p5301
I19
sVexamination
p5302
I1
sVpushback
p5303
I1
sVedgewood
p5304
I1
sVdysfunctional
p5305
I1
sVmusician
p5306
I1
sVimpress
p5307
I7
sV[inline-content]
p5308
I3
sVcooperate
p5309
I1
sVrabbit
p5310
I1
sVrecount
p5311
I1
sVwomen
p5312
I15
sVannoy
p5313
I1
sVaugment
p5314
I3
sVstroke
p5315
I6
sVanywhere
p5316
I5
sVpedagogy
p5317
I1
sVtap
p5318
I4
sVdedicat
p5319
I2
sVtax
p5320
I3
sVtag
p5321
I1
sVtak
p5322
I14
sVsip
p5323
I1
sVbathiche
p5324
I1
sVguru
p5325
I1
sVsiz
p5326
I2
sVsix
p5327
I19
sVfortunate
p5328
I1
sVprognosis
p5329
I1
sVcamels
p5330
I1
sVsid
p5331
I2
sVinstead
p5332
I5
sVpanic
p5333
I3
sVsil
p5334
I2
sVvisceral
p5335
I1
sVattend
p5336
I7
sVabuse
p5337
I4
sVwrist
p5338
I4
sV[meta-per]
p5339
I2
sVhighlands
p5340
I1
sVstrapp
p5341
I1
sVlight
p5342
I6
sVstraps
p5343
I2
sVemanuel
p5344
I1
sVdoubleheader
p5345
I1
sVinescapability
p5346
I1
sVjoanne
p5347
I1
sV137
p5348
I2
sVlooks
p5349
I3
sV134
p5350
I2
sV139
p5351
I1
sVsuperior
p5352
I1
sVinlet
p5353
I1
sVshipp
p5354
I2
sVpermanent
p5355
I1
sVrestrain
p5356
I1
sVchoose
p5357
I4
sVbye
p5358
I1
sVcrowds
p5359
I1
sVpractice
p5360
I3
sVflout
p5361
I1
sVnegligent
p5362
I2
sVambition
p5363
I1
sVrepublican
p5364
I5
sVflee
p5365
I3
sVtrad
p5366
I2
sVprofound
p5367
I1
sVnfl
p5368
I5
sVdepriv
p5369
I1
sVcocoon
p5370
I1
sVbills
p5371
I2
sVcounterinsurgency
p5372
I2
sVour
p5373
I17
sV80
p5374
I1
sV87
p5375
I1
sVout
p5376
I59
sVcategory
p5377
I2
sVfrontier
p5378
I1
sVgerwehr
p5379
I3
sVchaos
p5380
I3
sVdeloitte
p5381
I2
sVsupports
p5382
I2
sVdisclose
p5383
I1
sVipod
p5384
I1
sVyork
p5385
I9
sVconflicts
p5386
I4
sV8p
p5387
I1
sVlazowska
p5388
I1
sVg
p5389
I13
sVillicit
p5390
I1
sVhence
p5391
I1
sVorganiz
p5392
I4
sVziegler
p5393
I2
sVendemic
p5394
I1
sS'<em>'
p5395
I18
sVdoesn't
p5396
I2
sVintention
p5397
I1
sVredondo
p5398
I1
sVtheir
p5399
I68
sVboil
p5400
I1
sVseminars
p5401
I1
sVdiminish
p5402
I1
sVinstitution
p5403
I2
sVengag
p5404
I3
sVcohen
p5405
I1
sVteenagers
p5406
I2
sVafraid
p5407
I1
sVkristy
p5408
I1
sVagency
p5409
I6
sVcontact
p5410
I1
sVdjambias
p5411
I1
sVpossibilit
p5412
I1
sVwhich
p5413
I78
sVfunds
p5414
I1
sVdivert
p5415
I1
sVcombat
p5416
I1
sVmavens
p5417
I1
sVwho
p5418
I106
sVwhy
p5419
I22
sVbarista
p5420
I1
sVdeni
p5421
I2
sVdenn
p5422
I1
sVdetermin
p5423
I3
sVfowler
p5424
I2
sVgoals
p5425
I1
sVdemocrats
p5426
I2
sVutter
p5427
I1
sVfear
p5428
I2
sVdebate
p5429
I5
sVlitigation
p5430
I1
sVholistic
p5431
I1
sVlocat
p5432
I1
sVparlia
p5433
I1
sVeat
p5434
I1
sVsurroundings
p5435
I1
sVhe
p5436
I145
sVthousands
p5437
I2
sVindignant
p5438
I1
sVprosecute
p5439
I1
sVinsead
p5440
I3
sVcontribut
p5441
I3
sVcuba
p5442
I1
sV999
p5443
I1
sVwords
p5444
I7
sVexperi
p5445
I3
sVbelts
p5446
I5
sVaffluent
p5447
I1
sVneumy
p5448
I2
sVgenerations
p5449
I4
sVview
p5450
I5
sVavailable
p5451
I6
sVdistract
p5452
I1
sVcloser
p5453
I2
sVfavor
p5454
I2
sVbought
p5455
I1
sVability
p5456
I3
sVjoy
p5457
I1
sVjob
p5458
I10
sVentit
p5459
I1
sVkershner
p5460
I1
sVjok
p5461
I1
sVswift
p5462
I1
sVjon
p5463
I1
sVapril
p5464
I10
sVwall
p5465
I8
sVarriv
p5466
I7
sVenvironments
p5467
I1
sVwalk
p5468
I7
sVinterface
p5469
I3
sVtable
p5470
I1
sVdecent
p5471
I3
sVcharts
p5472
I1
sVbesid
p5473
I2
sVcounterculture
p5474
I1
sVmike
p5475
I2
sVgeneral
p5476
I9
sVsufficient
p5477
I1
sV[story-meta]
p5478
I4
sVscrutiny
p5479
I2
sVhouthis
p5480
I1
sVpresent
p5481
I3
sVunlike
p5482
I2
sVwill
p5483
I55
sVwild
p5484
I2
sVobserv
p5485
I2
sVlayer
p5486
I2
sVmotivational
p5487
I1
sVthus
p5488
I3
sVmotiv
p5489
I1
sVdual
p5490
I2
sVperhaps
p5491
I5
sVvintage
p5492
I1
sVradiation
p5493
I4
sVcross
p5494
I2
sVmember
p5495
I2
sVcummerbunds
p5496
I1
sVlargest
p5497
I4
sVinch
p5498
I5
sVgets
p5499
I3
sVgett
p5500
I9
sVdifficult
p5501
I4
sVdisagree
p5502
I1
sVbeast
p5503
I1
sVbastien
p5504
I1
sVstudent
p5505
I5
sVlobby
p5506
I1
sVenglish
p5507
I3
sVrecollection
p5508
I1
sVtoilets
p5509
I1
sVrapid
p5510
I2
sVconsole
p5511
I1
sVprovision
p5512
I1
sVsmith
p5513
I1
sVhall
p5514
I2
sVclyde
p5515
I1
sVbook
p5516
I6
sVadoption
p5517
I1
sVusage
p5518
I1
sVidentical
p5519
I1
sVlegitimiz
p5520
I1
sVsick
p5521
I2
sVprotesters
p5522
I2
sVinterrogation
p5523
I12
sVkellogg
p5524
I6
sVknow
p5525
I34
sVpress
p5526
I5
sVmiami
p5527
I4
sVtaxpayers
p5528
I5
sVexceed
p5529
I2
sVbecause
p5530
I37
sVsequence
p5531
I1
sV111
p5532
I1
sV118
p5533
I1
sVthroughout
p5534
I3
sVoperation
p5535
I2
sVleak
p5536
I2
sVbreakthroughs
p5537
I2
sVlean
p5538
I1
sV14th
p5539
I1
sVleap
p5540
I3
sVleav
p5541
I8
sVsettl
p5542
I2
sVleader
p5543
I3
sVpoets
p5544
I1
sVobey
p5545
I1
sVrare
p5546
I2
sVextension
p5547
I1
sVsaddle
p5548
I1
sVcolumn
p5549
I2
sVuniverse
p5550
I1
sVsectarian
p5551
I1
sVperks
p5552
I2
sVcarrier
p5553
I1
sVsweat
p5554
I1
sVsemifinal
p5555
I1
sVown
p5556
I22
sVwilderness
p5557
I1
sVwarrants
p5558
I1
sVautomat
p5559
I1
sVfundraiser
p5560
I1
sVweather
p5561
I3
sVpromise
p5562
I1
sVbrush
p5563
I2
sVlawful
p5564
I1
sVvan
p5565
I20
sVapps
p5566
I2
sVovertime
p5567
I2
sVvar
p5568
I2
sVredmond
p5569
I1
sVshane
p5570
I1
sVmanghani
p5571
I2
sVmutter
p5572
I1
sVvolume
p5573
I1
sVsqueeze
p5574
I2
sVmade
p5575
I21
sVtactics
p5576
I4
sVwhether
p5577
I15
sVinjur
p5578
I3
sVtroubl
p5579
I2
sVrecord
p5580
I17
sVbelow
p5581
I3
sVeagerness
p5582
I1
sVjenny
p5583
I1
sVinadequate
p5584
I2
sVmeaningless
p5585
I1
sVet
p5586
I5
sVmutual
p5587
I1
sVpercent
p5588
I19
sVsimulat
p5589
I1
sVhurwitz
p5590
I1
sVother
p5591
I49
sVboom
p5592
I1
sVbranch
p5593
I5
sV[inline-photo-normal]
p5594
I2
sVjune
p5595
I6
sVcontends
p5596
I1
sVexperienc
p5597
I1
sVemerg
p5598
I2
ssS'Doc_count'
p5599
I699
ssS'dateline'
p5600
(dp5601
g3
(dp5602
V[dateline]
p5603
I1
sV30
p5604
I1
sg14
I1
sVthursday
p5605
I1
sVapril
p5606
I1
sV2015
p5607
I1
sS'<h6>'
p5608
I1
ssg31
I1
ssS'spam'
p5609
(dp5610
g34
(dp5611
g36
I2
sV[el__position]
p5612
I2
sVhatr
p5613
I1
sV[t-upshot]
p5614
I1
sVfour
p5615
I4
sVprotest
p5616
I1
sVornate
p5617
I1
sVtanenbaum
p5618
I1
sVgabriella
p5619
I2
sV[media-100000003598179]
p5620
I1
sVwhose
p5621
I1
sVauthorit
p5622
I1
sVelectricity
p5623
I1
sVspew
p5624
I1
sVunder
p5625
I2
sVonstage
p5626
I1
sVregrets
p5627
I1
sVbenvolin
p5628
I1
sVrisk
p5629
I1
sVrise
p5630
I2
sVjack
p5631
I2
sVgovern
p5632
I2
sV[extended-byline]
p5633
I1
sVschool
p5634
I4
sVwednesday
p5635
I1
sVdefens
p5636
I1
sV[layout-small-vertical]
p5637
I1
sS'<a>'
p5638
I130
sVsecond
p5639
I2
sVlehigh
p5640
I2
sVair
p5641
I2
sVeven
p5642
I1
sVhide
p5643
I4
sVagainreplaymore
p5644
I1
sV[inline-photo]
p5645
I1
sVasia
p5646
I1
sVfuerza
p5647
I1
sVabove
p5648
I1
sS'<header>'
p5649
I9
sVnew
p5650
I31
sV[el__leafmedia]
p5651
I5
sVnever
p5652
I1
sVyanke
p5653
I1
sVprotection
p5654
I1
sVethanol
p5655
I1
sVpath
p5656
I1
sVdoro
p5657
I1
sVdaughter
p5658
I2
sVforum
p5659
I1
sV[media__image--cut-format]
p5660
I2
sVannounc
p5661
I3
sVitems
p5662
I1
sg73
I2
sVreports
p5663
I1
sVcredit
p5664
I31
sVsmoke
p5665
I2
sVmilitary
p5666
I1
sVgolden
p5667
I1
sV[hed-section]
p5668
I3
sVsplitapril
p5669
I1
sVpsychological
p5670
I2
sVchieppo
p5671
I1
sVtotal
p5672
I1
sVunit
p5673
I2
sVturrialba
p5674
I1
sVarmy
p5675
I1
sVarms
p5676
I1
sV[cn]
p5677
I1
sVrattl
p5678
I1
sVtell
p5679
I1
sVmusk
p5680
I1
sVbedrosian
p5681
I9
sVsaber
p5682
I2
sVcardiology
p5683
I1
sVrelat
p5684
I9
sVwars
p5685
I1
sVconnecticut
p5686
I1
sVhold
p5687
I3
sVtampa
p5688
I1
sVmust
p5689
I1
sV[story-print-citation]
p5690
I4
sV[value]
p5691
I1
sV1997
p5692
I1
sV1999
p5693
I2
sVwork
p5694
I3
sVroof
p5695
I1
sVera
p5696
I1
sVms
p5697
I2
sV[story-footer-links]
p5698
I4
sVcould
p5699
I1
sVleonhardt
p5700
I2
sVin
p5701
I35
sVindia
p5702
I1
sVinvolve
p5703
I1
sV[footer]
p5704
I5
sVwant
p5705
I1
sVceremony
p5706
I1
sVkarymsky
p5707
I1
sV[g-show-small]
p5708
I1
sVhom
p5709
I1
sVfoursom
p5710
I1
sVdamage
p5711
I1
sVhow
p5712
I5
sVhot
p5713
I1
sV[media-100000003659425]
p5714
I1
sVupdat
p5715
I2
sVladder
p5716
I1
sVafter
p5717
I7
sV[a]
p5718
I10
sVpresident
p5719
I4
sV[g-bold]
p5720
I1
sV[interactive-kicker]
p5721
I2
sVlas
p5722
I1
sVthird
p5723
I1
sVgreet
p5724
I1
sVgreek
p5725
I1
sVenviron
p5726
I1
sV[rg-header]
p5727
I1
sVorder
p5728
I5
sVwind
p5729
I1
sV[video__end-slate__engage__more]
p5730
I1
sV[video__end-slate__tertiary]
p5731
I1
sVoffice
p5732
I2
sV[theme-upshot]
p5733
I1
sVover
p5734
I2
sVjapan
p5735
I2
sVbefore
p5736
I3
sVhighlights
p5737
I1
sVfix
p5738
I2
sg2922
I54
sVoffic
p5739
I1
sVproduction
p5740
I1
sS'<button>'
p5741
I7
sV400
p5742
I1
sV[rg-th]
p5743
I1
sVfil
p5744
I1
sVthen
p5745
I3
sVworkout
p5746
I1
sVsafe
p5747
I1
sVwelterweight
p5748
I1
sVthey
p5749
I1
sValex
p5750
I2
sV05play
p5751
I1
sVl
p5752
I4
sVundermin
p5753
I2
sV[layout-large-horizontal]
p5754
I25
sVvictory
p5755
I1
sVeach
p5756
I2
sVvolcano
p5757
I3
sVwent
p5758
I1
sVside
p5759
I1
sVcarlos
p5760
I1
sVncalbuco
p5761
I2
sVfinancial
p5762
I1
sVknockout
p5763
I1
sVemeralds
p5764
I1
sV[promo]
p5765
I4
sVsaturday
p5766
I3
sV[image_data]
p5767
I2
sV[bg-related__button-overlay]
p5768
I5
sV[byline]
p5769
I1
sVlaif
p5770
I1
sV[cd__headline-text]
p5771
I1
sVarizona
p5772
I1
sV[twitter-follow-button]
p5773
I1
sVgiven
p5774
I1
sVfree
p5775
I3
sVstandard
p5776
I1
sVstruggle
p5777
I1
sV[el__video__replay-button-wrapper]
p5778
I1
sVstarts
p5779
I1
sVdays
p5780
I1
sVisn
p5781
I1
sV[summary-credit]
p5782
I1
sVonto
p5783
I1
sVstewart
p5784
I1
sValready
p5785
I2
sVresearcher
p5786
I1
sVcapturadas
p5787
I1
sVcaviahue
p5788
I1
sV[interactive]
p5789
I8
sVhook
p5790
I1
sV[theme-speech-bubble]
p5791
I6
sV[hide-caption]
p5792
I2
sVmaster
p5793
I1
sVtoo
p5794
I2
sVtom
p5795
I1
sVupshot
p5796
I1
sVjohn
p5797
I1
sS'<b>'
p5798
I3
sVa30
p5799
I1
sVmckinsey
p5800
I1
sVvillager
p5801
I1
sVtook
p5802
I3
sVphotosvillarrica
p5803
I1
sVwestern
p5804
I1
sVprovid
p5805
I1
sV[interactive-leadin]
p5806
I2
sS'<aside>'
p5807
I31
sVproject
p5808
I1
sViron
p5809
I1
sVknights
p5810
I1
sS'<table>'
p5811
I2
sVpalace
p5812
I1
sVnadella
p5813
I2
sVboston
p5814
I1
sVral
p5815
I1
sVrap
p5816
I1
sVseen
p5817
I2
sVaffairs
p5818
I1
sV[upshot-sharetools]
p5819
I1
sV[skip-to-text-link]
p5820
I77
sVbrandon
p5821
I2
sV[video__end-slate__secondary]
p5822
I1
sV[counter]
p5823
I1
sVquarterback
p5824
I1
sVthough
p5825
I1
sViceland
p5826
I1
sVanatomy
p5827
I1
sVletter
p5828
I1
sV[js-media__video]
p5829
I1
sVstawberry
p5830
I1
sVmaria
p5831
I1
sV[cn--idx-0]
p5832
I1
sVdon
p5833
I2
sVflow
p5834
I1
sVprinciple
p5835
I1
sVpope
p5836
I1
sVambassador
p5837
I1
sVpopp
p5838
I1
sV18recent
p5839
I1
sVinvolv
p5840
I1
sVheadline
p5841
I4
sV[g-label-13]
p5842
I1
sS'<tr>'
p5843
I2
sVsugar
p5844
I1
sVbush
p5845
I2
sVrick
p5846
I1
sVabu
p5847
I1
sVlady
p5848
I1
sVmonica
p5849
I2
sVprofessionals
p5850
I1
sVde
p5851
I2
sVwatch
p5852
I1
sVphotograph
p5853
I2
sVcoast
p5854
I1
sVston
p5855
I1
sVchristopher
p5856
I1
sS'<td>'
p5857
I2
sVreport
p5858
I5
sVdt
p5859
I2
sVpearson
p5860
I1
sVbay
p5861
I1
sVerupt
p5862
I1
sV[el__storyhighlights]
p5863
I1
sVrival
p5864
I1
sVphotosdense
p5865
I1
sVautomatic
p5866
I1
sVrunn
p5867
I1
sVethical
p5868
I1
sV[ad--mobile]
p5869
I2
sV[media-100000003612027]
p5870
I1
sV[story-notes]
p5871
I3
sV02
p5872
I2
sVsaid
p5873
I3
sVduff
p5874
I1
sV[el__resize]
p5875
I2
sVfigur
p5876
I1
sVloth
p5877
I1
sVmobilenov
p5878
I1
sVaccord
p5879
I1
sVharvard
p5880
I1
sVwear
p5881
I2
sV[pipe]
p5882
I5
sVdedication
p5883
I1
sVnews
p5884
I1
sVdebt
p5885
I1
sVclimate
p5886
I1
sVpsychologists
p5887
I1
sVcountry
p5888
I1
sVunemploy
p5889
I1
sVagainst
p5890
I3
sV[middle-right-ad]
p5891
I19
sVcom
p5892
I9
sVsoutheastern
p5893
I1
sV[ad-slide--inactive]
p5894
I2
sVflavio
p5895
I1
sVtough
p5896
I1
sV[limit-small]
p5897
I4
sVsullivan
p5898
I2
sV[media-100000003660940]
p5899
I1
sVsao
p5900
I1
sVguid
p5901
I1
sVspeak
p5902
I1
sVconference
p5903
I3
sVbathroom
p5904
I1
sVrangers
p5905
I1
sVthree
p5906
I2
sVbeen
p5907
I2
sg281
I69
sVstadium
p5908
I1
sVcraig
p5909
I1
sVwebsite
p5910
I1
sVlife
p5911
I4
sVeastern
p5912
I2
sV[video]
p5913
I3
sV[thumb]
p5914
I8
sVchile
p5915
I3
sV165
p5916
I1
sVcommerce
p5917
I1
sVeast
p5918
I1
sVn
p5919
I2
sVnear
p5920
I2
sVunsolv
p5921
I1
sV[video__end-slate__replay-text]
p5922
I1
sV[media-100000003598510]
p5923
I1
sVmexico
p5924
I1
sVis
p5925
I17
sVit
p5926
I13
sVim
p5927
I2
sVcone
p5928
I1
sVallen
p5929
I1
sV[bg-related__heading]
p5930
I5
sV[el-embed-twitter]
p5931
I2
sVif
p5932
I1
sVfotos
p5933
I1
sVperform
p5934
I1
sVsuggest
p5935
I1
sVmake
p5936
I1
sVswall
p5937
I3
sV[media__caption]
p5938
I3
sVspews
p5939
I1
sVseveral
p5940
I1
sVeuropean
p5941
I2
sVhani
p5942
I1
sVheadsetjan
p5943
I1
sV1977
p5944
I1
sVcharlie
p5945
I1
sVdriv
p5946
I1
sVocean
p5947
I1
sVgreatest
p5948
I1
sVthe
p5949
I121
sV[el__storyelement__gray]
p5950
I3
sVleft
p5951
I2
sVcapitol
p5952
I1
sVjust
p5953
I3
sVphoto
p5954
I31
sVthumbs
p5955
I1
sVyet
p5956
I1
sVjose
p5957
I1
sVkell
p5958
I1
sVhad
p5959
I1
sVeasy
p5960
I1
sVprison
p5961
I2
sVneuquen
p5962
I1
sVhas
p5963
I5
sVhav
p5964
I1
sVphotosfountains
p5965
I1
sV[lede-container-ads]
p5966
I10
sVboxer
p5967
I2
sVroach
p5968
I1
sVorlando
p5969
I1
sVsteps
p5970
I2
sVsandtown
p5971
I1
sVnight
p5972
I4
sV[js__gallery--fullstandardwidth]
p5973
I2
sVsecurity
p5974
I3
sVsebastian
p5975
I1
sVattorney
p5976
I2
sVright
p5977
I3
sVold
p5978
I1
sVpacquiao
p5979
I4
sVchesto
p5980
I1
sV[kicker]
p5981
I1
sS'<noscript>'
p5982
I3
sV[headline]
p5983
I1
sV[media-100000003598187]
p5984
I1
sVfor
p5985
I34
sVfox
p5986
I1
sV[video__end-slate__engage__text]
p5987
I1
sVcnn
p5988
I3
sV[media-action-overlay]
p5989
I2
sV[el__video__replayer-wrapper]
p5990
I1
sVpose
p5991
I1
sVnuevas
p5992
I1
sVemitt
p5993
I1
sVcolima
p5994
I1
sVsuper
p5995
I1
sVemits
p5996
I1
sVchilean
p5997
I1
sVanoma
p5998
I1
sV[g-label-12]
p5999
I1
sVkaitlyn
p6000
I1
sVo
p6001
I1
sVmahoney
p6002
I1
sV[rg-source]
p6003
I1
sV[interactive-embedded]
p6004
I5
sV[has-lede-adjacency]
p6005
I7
sValmeida
p6006
I2
sVprisoners
p6007
I1
sVprofession
p6008
I1
sV[]
p6009
I14
sVahm
p6010
I1
sVcommuters
p6011
I1
sV[interactive-image-container]
p6012
I3
sV[large]
p6013
I2
sV[subhead]
p6014
I1
sV[landscape]
p6015
I2
sVgiv
p6016
I1
sVmalcom
p6017
I4
sVwag
p6018
I1
sVpeople
p6019
I3
sVwatchresidents
p6020
I1
sVfight
p6021
I3
sVeditor
p6022
I1
sVway
p6023
I1
sVwav
p6024
I1
sVwas
p6025
I5
sVoffer
p6026
I1
sS'<h2>'
p6027
I21
sV[bucketwrap]
p6028
I2
sVfailure
p6029
I1
sVhear
p6030
I1
sVsolar
p6031
I2
sVbalancesept
p6032
I1
sV[button]
p6033
I7
sVfach_chile
p6034
I1
sV[media-100000003598161]
p6035
I1
sVemotional
p6036
I1
sVmoore
p6037
I1
sVtesla
p6038
I1
sS'<figure>'
p6039
I43
sV[eln-updates-all]
p6040
I1
sVelon
p6041
I1
sVadvertise
p6042
I7
sVcommunit
p6043
I1
sVno
p6044
I1
sVstake
p6045
I1
sVne
p6046
I1
sVreality
p6047
I1
sVtim
p6048
I26
sVrole
p6049
I2
sVmodels
p6050
I1
sVoffenseapril
p6051
I1
sVemission
p6052
I1
sVfell
p6053
I1
sVsacks
p6054
I1
sV[nytint-upshot-stream-sharetools]
p6055
I1
sVryder
p6056
I1
sV[js__gallery-showhide]
p6057
I2
sVtime
p6058
I3
sV[invert]
p6059
I1
sVetna
p6060
I1
sV[embedded]
p6061
I23
sV[b]
p6062
I1
sV[media-100000003659423]
p6063
I1
sV[media-100000003660677]
p6064
I1
sVglobal
p6065
I3
sVfocus
p6066
I2
sVlaura
p6067
I1
sVmile
p6068
I1
sVskin
p6069
I1
sVshot
p6070
I1
sV[el__storyhighlights__item]
p6071
I1
sVrow
p6072
I1
sV[media-100000003658526]
p6073
I1
sVkillings
p6074
I1
sVfather
p6075
I1
sV0
p6076
I1
sVcharge
p6077
I1
sVbrown
p6078
I4
sVfederation
p6079
I1
sVbillionaire
p6080
I1
sV[video__end-slate--inactive]
p6081
I1
sVkitten
p6082
I1
sVminute
p6083
I1
sVcool
p6084
I1
sVclouds
p6085
I1
sVlevel
p6086
I1
sVdid
p6087
I1
sVturns
p6088
I1
sVbrother
p6089
I1
sVstandards
p6090
I1
sVp
p6091
I1
sVteam
p6092
I2
sV[zn-body__paragraph]
p6093
I2
sVround
p6094
I3
sV[interactive-headline]
p6095
I8
sVrevolution
p6096
I1
sVsays
p6097
I1
sVsign
p6098
I4
sV[featured]
p6099
I2
sVcolin
p6100
I2
sVjameis
p6101
I1
sVparticipat
p6102
I1
sVsemifinals
p6103
I1
sVappear
p6104
I1
sVcurrent
p6105
I1
sV[media]
p6106
I34
sV[interactive-caption]
p6107
I7
sVinternational
p6108
I5
sVexplosion
p6109
I1
sVinstall
p6110
I1
sVhololens
p6111
I1
sV[ad-slide]
p6112
I2
sVappears
p6113
I4
sVbox
p6114
I5
sV[story-heading-text]
p6115
I8
sVhealthy
p6116
I1
sV[media-100000003657432]
p6117
I1
sVrafael
p6118
I1
sVlove
p6119
I1
sVsaunders
p6120
I1
sVjebby
p6121
I1
sV[media-100000003612025]
p6122
I1
sVcrisis
p6123
I1
sVmarket
p6124
I1
sVvisit
p6125
I1
sVfrance
p6126
I1
sVpresse
p6127
I1
sVprev
p6128
I1
sVtoday
p6129
I4
sVclub
p6130
I1
sVenhanc
p6131
I1
sVcar
p6132
I1
sV[media-meta]
p6133
I1
sVcap
p6134
I1
sV[js-video__end-slate__tertiary]
p6135
I1
sV[metadata]
p6136
I1
sVcan
p6137
I6
sV[bg-related__more__list]
p6138
I2
sVcoral
p6139
I1
sVdecember
p6140
I2
sVawesome
p6141
I1
sVwinston
p6142
I1
sS'<h3>'
p6143
I4
sVparachute
p6144
I1
sVchin
p6145
I1
sVcouncil
p6146
I2
sVspe
p6147
I2
sVconservat
p6148
I1
sV[nytg-chartmaker-outer]
p6149
I1
sV1
p6150
I13
sV[js-owl-carousel]
p6151
I2
sV[bg-related__description]
p6152
I5
sVshasta
p6153
I1
sVspeaks
p6154
I1
sVmap
p6155
I1
sVmay
p6156
I7
sV[marginalia-anchor-ad]
p6157
I10
sVdate
p6158
I1
sVsuch
p6159
I1
sVmak
p6160
I3
sVsakurajima
p6161
I1
sVrenovation
p6162
I1
sVmayweather
p6163
I4
sVsr
p6164
I1
sVsw
p6165
I1
sV[rg-content]
p6166
I1
sVso
p6167
I1
sVtalk
p6168
I1
sV[photo]
p6169
I29
sVmatchups
p6170
I1
sVinterrogationapril
p6171
I1
sVstill
p6172
I2
sVsatya
p6173
I2
sVgroup
p6174
I4
sVjim
p6175
I1
sV[el__storyhighlights--new]
p6176
I1
sVrolefeb
p6177
I1
sVpolicy
p6178
I2
sVmain
p6179
I78
sVselfie
p6180
I1
sVtexas
p6181
I2
sVvaras
p6182
I1
sV3
p6183
I3
sV[advertisement]
p6184
I4
sVerupci
p6185
I2
sV[article-more]
p6186
I13
sVverveer
p6187
I1
sVnot
p6188
I4
sVnow
p6189
I1
sVhall
p6190
I1
sVdown
p6191
I2
sVentrepreneur
p6192
I1
sVjanuary
p6193
I2
sVdidn
p6194
I1
sV[chart-header]
p6195
I1
sVmariota
p6196
I1
sVsquare
p6197
I1
sV[ad]
p6198
I62
sV[js-el__gallery-caption]
p6199
I2
sVplant
p6200
I2
sVey
p6201
I1
sVyear
p6202
I2
sVkagoshima
p6203
I1
sVnapolitano
p6204
I1
sVspace
p6205
I1
sVinfuriat
p6206
I1
sVprotections
p6207
I1
sV[bg-related__link]
p6208
I2
sVpharoah
p6209
I1
sVmontoya
p6210
I1
sVshows
p6211
I1
sVquito
p6212
I1
sVcamacol
p6213
I1
sV[media-100000003660676]
p6214
I1
sVmillion
p6215
I1
sVseventh
p6216
I1
sVargu
p6217
I1
sV20
p6218
I2
sVcalifornia
p6219
I1
sVitapril
p6220
I1
sV[media-100000003658527]
p6221
I1
sVturn
p6222
I1
sVswing
p6223
I1
sVfirst
p6224
I4
sVsuspend
p6225
I1
sV[theme-summary]
p6226
I8
sVone
p6227
I2
sV[enlarge_html]
p6228
I2
sVlong
p6229
I1
sVvote
p6230
I1
sVopen
p6231
I4
sVgeorge
p6232
I2
sV'em
p6233
I1
sVcity
p6234
I3
sVlittle
p6235
I2
sVlaw
p6236
I5
sV2
p6237
I5
sVdraft
p6238
I1
sVcarousel
p6239
I1
sVconvention
p6240
I1
sVwhite
p6241
I2
sVribeiro
p6242
I1
sVnetworksapril
p6243
I1
sVthat
p6244
I4
sVseason
p6245
I1
sVhillary
p6246
I1
sVshirley
p6247
I1
sVthan
p6248
I3
sV11
p6249
I3
sVwide
p6250
I1
sV13
p6251
I2
sV12
p6252
I4
sV15
p6253
I3
sV14
p6254
I3
sV17
p6255
I3
sV16
p6256
I2
sV19
p6257
I2
sV18
p6258
I3
sVr
p6259
I3
sVventure
p6260
I2
sVwere
p6261
I3
sVwatchtower
p6262
I1
sVrussia
p6263
I1
sVand
p6264
I35
sV[kicker-label]
p6265
I1
sVsan
p6266
I1
sVsam
p6267
I1
sV[js-video__end-slate__replay-text]
p6268
I1
sVrent
p6269
I1
sVtexassports
p6270
I1
sV[enlargebtn]
p6271
I2
sVkevin
p6272
I1
sV[byline-twitter-handles]
p6273
I1
sVphotosa
p6274
I1
sVtechniqu
p6275
I1
sVpressphoto
p6276
I2
sVgasper
p6277
I1
sVideas
p6278
I1
sVforc
p6279
I1
sVhorowitz
p6280
I1
sVperformance
p6281
I1
sV[summary]
p6282
I1
sVfails
p6283
I1
sVrerout
p6284
I1
sV[has-adjacency]
p6285
I26
sVabus
p6286
I1
sVcomplaints
p6287
I1
sV[rg-hed]
p6288
I1
sVsurprising
p6289
I1
sV[bg-related]
p6290
I5
sVsenior
p6291
I1
sV[js__video--standard]
p6292
I1
sVshow
p6293
I2
sVdannypsych
p6294
I1
sVbright
p6295
I1
sV[video__end-slate]
p6296
I1
sVmexican
p6297
I1
sVmaine
p6298
I1
sVground
p6299
I1
sV[comments-marginalia]
p6300
I18
sVtitle
p6301
I3
sV[content-ad-wrapper]
p6302
I4
sVjolt
p6303
I2
sVcrime
p6304
I1
sVblack
p6305
I1
sVtestif
p6306
I1
sVpahoa
p6307
I1
sVget
p6308
I3
sVplanalto
p6309
I1
sVjazz
p6310
I1
sVita
p6311
I1
sVgen
p6312
I2
sVreprints
p6313
I4
sV[metadata__source]
p6314
I1
sVphotospresident
p6315
I1
sV[el__leafmedia--raw-html]
p6316
I2
sVdarlington
p6317
I1
sVphotosjapan
p6318
I1
sVcollege
p6319
I3
sVisraeli
p6320
I1
sVphotossmoke
p6321
I1
sVreview
p6322
I1
sVoutside
p6323
I2
sVbureau
p6324
I1
sVbetween
p6325
I1
sVinfrastructure
p6326
I1
sVaugust
p6327
I2
sVmarvin
p6328
I1
sVdicampo
p6329
I4
sVjr
p6330
I3
sV[byline-sharetools-container]
p6331
I10
sVarticle
p6332
I2
sVfissure
p6333
I1
sVmany
p6334
I2
sVcars
p6335
I1
sVslamet
p6336
I1
sVcelebrat
p6337
I1
sg599
I21
sVsolarcraft
p6338
I1
sVimprov
p6339
I1
sVnearby
p6340
I1
sV[media__image]
p6341
I3
sVbrecht
p6342
I1
sVpor
p6343
I1
sV60
p6344
I1
sV[sharetools-story]
p6345
I10
sV68
p6346
I1
sVpoll
p6347
I1
sVcustody
p6348
I1
sV[js-media__caption]
p6349
I2
sV[fb-btn]
p6350
I2
sVbiobio
p6351
I1
sVwest
p6352
I3
sVmark
p6353
I1
sVphotosportrait
p6354
I1
sVscot
p6355
I2
sV[story-link]
p6356
I8
sV500
p6357
I1
sV[hideFromView]
p6358
I2
sS'<th>'
p6359
I1
sVandrew
p6360
I2
sVplskdu5ewt
p6361
I1
sV[post-colon]
p6362
I1
sVformer
p6363
I1
sVthose
p6364
I1
sVcase
p6365
I2
sVisabella
p6366
I1
sV[carousel--full]
p6367
I2
sVthese
p6368
I2
sVmount
p6369
I1
sVstraighten
p6370
I1
sVcast
p6371
I1
sVeditorial
p6372
I2
sV[el__gallery-caption]
p6373
I2
sVdissident
p6374
I1
sVfami
p6375
I2
sVonlymaster'sadvance
p6376
I1
sVeveryday
p6377
I1
sVmisconductmay
p6378
I1
sVauthor
p6379
I1
sVpay
p6380
I3
sV[rg-container]
p6381
I1
sVbowl
p6382
I1
sVlava
p6383
I1
sVspeech
p6384
I1
sV[wide]
p6385
I7
sVevents
p6386
I1
sVweek
p6387
I1
sVdirector
p6388
I2
sVweep
p6389
I1
sVcosta
p6390
I1
sVpennsylvania
p6391
I1
sVsevere
p6392
I1
sVexecut
p6393
I3
sVagainapril
p6394
I1
sVactions
p6395
I1
sV[zn-body__footer]
p6396
I2
sV[inline-photo-normal]
p6397
I1
sVdeath
p6398
I2
sVresidents
p6399
I2
sVmcdonald
p6400
I1
sVrose
p6401
I1
sV4
p6402
I7
sVjake
p6403
I1
sVaround
p6404
I1
sVread
p6405
I91
sVmov
p6406
I1
sVglobemahoney
p6407
I1
sVworld
p6408
I5
sVrebecca
p6409
I1
sVfairgrounds
p6410
I1
sVaudience
p6411
I1
sVrea_
p6412
I1
sVt
p6413
I6
sVvandenbroucke
p6414
I1
sVcalbuco
p6415
I1
sV[js-ad-slide]
p6416
I2
sV[video__end-slate__replay]
p6417
I1
sV[story-info]
p6418
I1
sVcompetition
p6419
I1
sVfightersapril
p6420
I1
sVsen
p6421
I1
sVjoan
p6422
I1
sVgross
p6423
I1
sVstops
p6424
I1
sVsr1
p6425
I1
sV[media__image--responsive]
p6426
I3
sVbusiness
p6427
I2
sVfrancis
p6428
I1
sVoo
p6429
I1
sVon
p6430
I27
sVcentral
p6431
I2
sVorigins
p6432
I1
sVkeolis
p6433
I1
sVof
p6434
I31
sVviolence
p6435
I1
sVstand
p6436
I1
sVbrenham
p6437
I1
sVbarry
p6438
I1
sVor
p6439
I2
sVroad
p6440
I2
sVop
p6441
I2
sVimage
p6442
I1
sV[featured-comment-marginalia]
p6443
I6
sVburton
p6444
I1
sVyour
p6445
I3
sV20jeb
p6446
I1
sVher
p6447
I4
sVarea
p6448
I1
sVthere
p6449
I3
sV[ad--epic]
p6450
I3
sV[bg-related__body]
p6451
I5
sVstart
p6452
I1
sVlow
p6453
I3
sVbrazilian
p6454
I1
sVujdf6zdq2n
p6455
I1
sV[js__leafmedia--gallery]
p6456
I2
sV[media-100000003660674]
p6457
I1
sVbanksy
p6458
I3
sVcabinet
p6459
I1
sV[bar]
p6460
I1
sVwith
p6461
I21
sVpull
p6462
I1
sV[interactive-credit]
p6463
I3
sVoctober
p6464
I2
sVagree
p6465
I1
sV[img_wrap]
p6466
I2
sV[moses-ad]
p6467
I7
sVag
p6468
I2
sVrica
p6469
I1
sVshoulders
p6470
I1
sVan
p6471
I9
sVap
p6472
I5
sVas
p6473
I6
sVat
p6474
I16
sVfile
p6475
I3
sVwalks
p6476
I1
sVpolitics
p6477
I1
sV[horizontal]
p6478
I2
sVagain
p6479
I3
sVheather
p6480
I1
sVsulaiman
p6481
I1
sVgraduate
p6482
I2
sVdevicesapril
p6483
I1
sV5
p6484
I3
sV[g-text-width]
p6485
I1
sVyou
p6486
I1
sVleblond
p6487
I1
sV[interactive-overlay-text]
p6488
I3
sV10
p6489
I4
sVa1
p6490
I1
sVmassachusetts
p6491
I1
sVcoverage
p6492
I9
sVtackle
p6493
I1
sVhavana
p6494
I1
sVmcnamee
p6495
I1
sVwife
p6496
I1
sVphotos
p6497
I2
sVu
p6498
I1
sVredux
p6499
I1
sVall
p6500
I4
sVforget
p6501
I1
sVsuburban
p6502
I1
sVlack
p6503
I1
sV22about
p6504
I1
sV[el__headline]
p6505
I1
sVfuego
p6506
I1
sV[selected-comment-marginalia]
p6507
I6
sV[media-100000003659124]
p6508
I1
sVfollow
p6509
I9
sS'<figcaption>'
p6510
I42
sVchildren
p6511
I1
sVgriffin
p6512
I1
sVtv
p6513
I1
sVthursday
p6514
I1
sVto
p6515
I26
sVprogram
p6516
I2
sVsmee
p6517
I1
sVdifference
p6518
I2
sVcondition
p6519
I1
sVpbu
p6520
I1
sVheist
p6521
I1
sV[media__video--thumbnail]
p6522
I1
sVsaudi
p6523
I1
sVharry
p6524
I1
sVmanslaughter
p6525
I1
sVneighborhood
p6526
I1
sVclinch
p6527
I1
sVrate
p6528
I1
sVinvention
p6529
I1
sVlawyer
p6530
I1
sVwhat
p6531
I1
sVleora
p6532
I1
sVsection
p6533
I2
sVbrief
p6534
I1
sVphotosthe
p6535
I2
sVversion
p6536
I4
sV[caption]
p6537
I36
sV[text]
p6538
I1
sVpublic
p6539
I1
sV[el__leafmedia--twitter]
p6540
I2
sVnovember
p6541
I2
sV[labels]
p6542
I1
sV[accessibility-ad-header]
p6543
I7
sVbardarbunga
p6544
I1
sVsoldier
p6545
I1
sVairport
p6546
I1
sVpick
p6547
I4
sVaction
p6548
I1
sV[story-footer]
p6549
I4
sVtrainer
p6550
I1
sVvia
p6551
I2
sV[media-100000003660673]
p6552
I1
sVcatwalkmay
p6553
I1
sVwhile
p6554
I3
sV[related-links]
p6555
I3
sVselect
p6556
I1
sVeye
p6557
I1
sVmohamm
p6558
I4
sVtackl
p6559
I1
sVtwo
p6560
I5
sV6
p6561
I4
sVfuror
p6562
I1
sVinjury
p6563
I2
sVmore
p6564
I6
sVdoor
p6565
I1
sV[comment-prompt-marginalia]
p6566
I6
sVfloyd
p6567
I4
sV[el__gallery-photocount]
p6568
I2
sV[inner]
p6569
I1
sV[g-show-xlarge]
p6570
I1
sVtown
p6571
I2
sVhour
p6572
I1
sVpatroll
p6573
I1
sVdel
p6574
I2
sVlearn
p6575
I2
sV[rg-table]
p6576
I1
sVyemen
p6577
I1
sV[share-print]
p6578
I2
sVproblemmay
p6579
I1
sVprompt
p6580
I2
sVrodriguez
p6581
I1
sVambient
p6582
I1
sVshare
p6583
I10
sVtungurahua
p6584
I1
sVprotects
p6585
I1
sVhomicide
p6586
I1
sVneeds
p6587
I1
sVevacuat
p6588
I1
sVdaiichi
p6589
I1
sVexplains
p6590
I1
sVfr
p6591
I1
sV[interactive-image]
p6592
I3
sVnotre
p6593
I1
sVjustin
p6594
I2
sVstreets
p6595
I1
sV[dateline]
p6596
I11
sVff
p6597
I1
sS'<li>'
p6598
I16
sg2219
I34
sVcaus
p6599
I1
sV[upshot-share]
p6600
I1
sVfundamental
p6601
I1
sV[sharetools-inline-article-ad]
p6602
I11
sVbegan
p6603
I1
sVtallahassee
p6604
I1
sVhelp
p6605
I2
sVseptember
p6606
I2
sV[share-email]
p6607
I2
sS'<blockquote>'
p6608
I2
sV[youtube]
p6609
I2
sVtrade
p6610
I1
sVthermal
p6611
I1
sVpaper
p6612
I4
sVthrough
p6613
I2
sVcommittee
p6614
I1
sVsuffer
p6615
I1
sVavenue
p6616
I1
sVits
p6617
I3
sV24
p6618
I3
sV25
p6619
I5
sV26
p6620
I3
sV27
p6621
I3
sVcopahue
p6622
I1
sV21
p6623
I3
sV22
p6624
I2
sVjacoby
p6625
I1
sV28
p6626
I1
sV29
p6627
I3
sVreuters
p6628
I4
sVisaac
p6629
I1
sVargentina
p6630
I1
sVmight
p6631
I1
sValter
p6632
I1
sV[g-show-large]
p6633
I1
sVgood
p6634
I1
sVreturn
p6635
I2
sVfood
p6636
I1
sVsinabung
p6637
I1
sV[attachment-large]
p6638
I2
sVassociation
p6639
I4
sVmystery
p6640
I1
sVmarcus
p6641
I1
sV[layout-flex-medium]
p6642
I1
sVmbta
p6643
I2
sVmosby
p6644
I3
sVstatus
p6645
I1
sVneil
p6646
I1
sVhouse
p6647
I1
sVenergy
p6648
I2
sV[bg-related__button-text]
p6649
I5
sVhawaii
p6650
I1
sVexpect
p6651
I1
sV[bg-related__button]
p6652
I5
sVoperation
p6653
I1
sVevent
p6654
I2
sVperry
p6655
I1
sVcarandolet
p6656
I1
sVsince
p6657
I2
sVpublish
p6658
I2
sVresearch
p6659
I1
sVhealth
p6660
I1
sVhill
p6661
I1
sg2259
I3
sVprint
p6662
I4
sVitoggle
p6663
I2
sVtimeline
p6664
I1
sVfriday
p6665
I3
sVbulls
p6666
I1
sVpuu
p6667
I1
sVash
p6668
I1
sVbenefits
p6669
I1
sV[js-el__video__replayer-wrapper]
p6670
I1
sVbarbara
p6671
I1
sS'<i>'
p6672
I8
sVamericas
p6673
I1
sV[video__end-slate__top-wrapper]
p6674
I1
sVcaption
p6675
I4
sVamerican
p6676
I7
sVbusinessmen
p6677
I1
sVw
p6678
I2
sVnickerson
p6679
I2
sV[chart-footer]
p6680
I1
sVmajor
p6681
I2
sS'<nav>'
p6682
I2
sVdleonhardt
p6683
I1
sVbrave
p6684
I2
sVmiss
p6685
I1
sVstory
p6686
I85
sVguest
p6687
I1
sV[ratio-tall]
p6688
I17
sVinteract
p6689
I1
sVleast
p6690
I1
sV[module-heading]
p6691
I8
sVjeb
p6692
I1
sVpaint
p6693
I1
sVstation
p6694
I1
sVphotosbush
p6695
I1
sVecuador
p6696
I1
sVtfl
p6697
I1
sVbehind
p6698
I1
sV[nobg]
p6699
I1
sVpart
p6700
I2
sV[number]
p6701
I1
sV[media-100000003657158]
p6702
I1
sVobama
p6703
I1
sVpyroclastic
p6704
I1
sVb
p6705
I2
sVmarshall
p6706
I1
sVbiobiochile
p6707
I1
sVlisten
p6708
I1
sVindonesia
p6709
I1
sVnoelle
p6710
I1
sV[robots-nocontent]
p6711
I67
sVairstrike
p6712
I1
sVgala
p6713
I1
sVmeltdown
p6714
I1
sVkaro
p6715
I1
sVsell
p6716
I1
sVwilson
p6717
I1
sVofficers
p6718
I3
sValso
p6719
I3
sVliv
p6720
I2
sVbuild
p6721
I1
sVdemczuk
p6722
I2
sVluncheon
p6723
I1
sVprovince
p6724
I1
sVplay
p6725
I3
sVelectric
p6726
I1
sVreach
p6727
I7
sVfreddie
p6728
I6
sVmost
p6729
I1
sVcharl
p6730
I1
sV[media__video]
p6731
I1
sVseasons
p6732
I1
sVcharg
p6733
I4
sVmobile
p6734
I1
sVcover
p6735
I1
sVgabl
p6736
I1
sV[i]
p6737
I2
sVqbh
p6738
I1
sVmicrosoft
p6739
I5
sVgold
p6740
I1
sV[toggle-caption]
p6741
I2
sVtenet
p6742
I1
sV[imagewrap]
p6743
I2
sVfinn
p6744
I1
sV[g-label-14]
p6745
I1
sV[el__storyhighlights_wrapper]
p6746
I1
sVnorthern
p6747
I1
sVduncan
p6748
I1
sV[js-video__end-slate__replay]
p6749
I1
sVflights
p6750
I1
sVeruptions
p6751
I1
sV8
p6752
I3
sVhis
p6753
I4
sVcheaper
p6754
I1
sVbatter
p6755
I1
sVreporters
p6756
I2
sVhim
p6757
I3
sVbelichick
p6758
I2
sV[xxl-ad]
p6759
I10
sVriver
p6760
I1
sVsanaa
p6761
I1
sVtapril
p6762
I1
sVbars
p6763
I1
sVset
p6764
I1
sVart
p6765
I1
sVser
p6766
I2
sVactivists
p6767
I1
sVcnnbrk
p6768
I1
sVculture
p6769
I2
sVsee
p6770
I3
sVare
p6771
I8
sVdemonstrat
p6772
I1
sVthayer
p6773
I1
sS'<img>'
p6774
I12
sVprobable
p6775
I1
sVguinea
p6776
I1
sVplease
p6777
I1
sVwon
p6778
I1
sVlatin
p6779
I1
sVfranchise
p6780
I1
sVmarilyn
p6781
I3
sVboth
p6782
I1
sg5121
I2
sVlast
p6783
I5
sVputland
p6784
I1
sVsecrets
p6785
I1
sVannual
p6786
I1
sVforeign
p6787
I1
sVfinds
p6788
I1
sVbaltimore
p6789
I8
sVjeff
p6790
I1
sVbattery
p6791
I1
sVbelt
p6792
I5
sVjoan_vennochi
p6793
I1
sVraise
p6794
I1
sVpolitical
p6795
I1
sV[el__video__expand--standard]
p6796
I1
sVsecret
p6797
I2
sVofficersapril
p6798
I1
sVdur
p6799
I2
sVempty
p6800
I1
sVdame
p6801
I1
sVfirm
p6802
I1
sVpayoct
p6803
I1
sVimag
p6804
I10
sVgat
p6805
I1
sVgas
p6806
I1
sVgap
p6807
I1
sVcorner
p6808
I1
sVdemand
p6809
I1
sVphotosthen
p6810
I1
sVpierce
p6811
I1
sVlook
p6812
I1
sVbill
p6813
I4
sVgovernor
p6814
I1
sVinstitute
p6815
I2
sV[g-show-xsmall]
p6816
I1
sVris
p6817
I1
sVcollegesome
p6818
I1
sVbernardo
p6819
I1
sVshar
p6820
I1
sVbangert
p6821
I1
sV[caption-text]
p6822
I24
sS'<ul>'
p6823
I17
sV9
p6824
I3
sVshak
p6825
I1
sVphotoswestern
p6826
I1
sVconflict
p6827
I2
sVsham
p6828
I1
sV42nd
p6829
I1
sVcomplicat
p6830
I1
sVflows
p6831
I1
sV[text-ad]
p6832
I9
sVplugs
p6833
I1
sVchang
p6834
I1
sVrecent
p6835
I1
sV[bg-related__text]
p6836
I5
sVanalysis
p6837
I3
sVpicks
p6838
I2
sVexpens
p6839
I1
sVorganization
p6840
I3
sVprevention
p6841
I1
sVdegreeassociate
p6842
I1
sVquestions
p6843
I1
sVtablet
p6844
I2
sVcup
p6845
I1
sS'<footer>'
p6846
I7
sVworkers
p6847
I1
sVbarack
p6848
I1
sVsource
p6849
I2
sVhomeland
p6850
I1
sValancar
p6851
I1
sVmarch
p6852
I3
sV[first]
p6853
I2
sVemergency
p6854
I1
sVbig
p6855
I2
sV[comments-button]
p6856
I7
sV[visually-hidden]
p6857
I104
sVgame
p6858
I3
sVbaskets
p6859
I1
sVbout
p6860
I1
sVsignal
p6861
I1
sVcapitals
p6862
I1
sV[js-video__end-slate]
p6863
I1
sV[figure]
p6864
I1
sVcontinue
p6865
I90
sS'<div>'
p6866
I141
sVpatriots
p6867
I2
sV[sharetools-label]
p6868
I10
sV[media-100000003657434]
p6869
I1
sV33rd
p6870
I1
sVback
p6871
I3
sVdelegation
p6872
I1
sVerupts
p6873
I3
sVnewsletter
p6874
I2
sV[bg-related--wide]
p6875
I5
sVchamber
p6876
I1
sVper
p6877
I1
sVeither
p6878
I1
sVbe
p6879
I12
sVrun
p6880
I1
sVeruption
p6881
I1
sVjumps
p6882
I1
sV[byline-author]
p6883
I1
sVflanks
p6884
I1
sVvincente
p6885
I1
sVby
p6886
I12
sV[lede-container]
p6887
I10
sVfaith
p6888
I1
sVpapua
p6889
I1
sVmasterpiec
p6890
I1
sV72
p6891
I1
sVdisclosure
p6892
I1
sVclinton
p6893
I1
sVinto
p6894
I4
sVsteven
p6895
I2
sVcontributor
p6896
I1
sVsports
p6897
I1
sV[bg-related__more]
p6898
I2
sVstatistics
p6899
I1
sVspan
p6900
I1
sVaccountablemay
p6901
I1
sVaccountability
p6902
I1
sVforward
p6903
I1
sVimmigration
p6904
I1
sVgetty
p6905
I10
sVpacific
p6906
I1
sVline
p6907
I1
sV[nytg-chartmaker]
p6908
I1
sVpaolo
p6909
I1
sVmelanne
p6910
I1
sV[figcaption]
p6911
I8
sVup
p6912
I6
sVus
p6913
I2
sV[multimedia-template]
p6914
I3
sVplanet
p6915
I1
sVwindows
p6916
I1
sV[label]
p6917
I1
sS'<span>'
p6918
I73
sVprosecutor
p6919
I1
sVphotosformer
p6920
I1
sVkennebunkport
p6921
I1
sVbath
p6922
I1
sVgivens
p6923
I1
sVadults
p6924
I1
sVchad
p6925
I1
sVm
p6926
I1
sVquoapril
p6927
I1
sVinfluence
p6928
I1
sV[media-100000003645372]
p6929
I1
sVcotton
p6930
I1
sVparadox
p6931
I1
sVpeace
p6932
I1
sVbacks
p6933
I1
sVnam
p6934
I1
sVnick
p6935
I1
sVnat
p6936
I1
sV[video__end-slate__engage__wrapper]
p6937
I1
sVevan
p6938
I2
sV[enlarge_measure]
p6939
I2
sVe
p6940
I2
sVvice
p6941
I1
sVkilauea
p6942
I1
sV2002
p6943
I2
sV2003
p6944
I1
sV2000
p6945
I1
sV2001
p6946
I1
sV2006
p6947
I1
sV2007
p6948
I1
sV2004
p6949
I2
sV2005
p6950
I2
sV[el__gallery_image-title]
p6951
I2
sVessay
p6952
I1
sVgo
p6953
I3
sVencrust
p6954
I1
sVsimon
p6955
I3
sVleung
p6956
I1
sVsuite
p6957
I1
sVmaryland
p6958
I1
sVfatal
p6959
I1
sVadviserfeb
p6960
I1
sVtorture
p6961
I2
sVfacebook
p6962
I2
sVdande
p6963
I1
sVnorthwestern
p6964
I1
sVharbor
p6965
I1
sVpositions
p6966
I1
sVjoel
p6967
I1
sVmichael
p6968
I1
sV[theme-classic]
p6969
I11
sVambato
p6970
I1
sVfriendliness
p6971
I1
sVprepar
p6972
I1
sVlogistics
p6973
I1
sVmural
p6974
I1
sVvideo
p6975
I7
sVvictor
p6976
I1
sVpower
p6977
I4
sVchicago
p6978
I1
sVpayday
p6979
I1
sVcapital
p6980
I2
sV;
p6981
I3
sVmauricio
p6982
I1
sVphotosmount
p6983
I1
sVdegree
p6984
I1
sVexchange
p6985
I1
sVgiant
p6986
I1
sV[post-load]
p6987
I2
sVbecom
p6988
I1
sVgreat
p6989
I1
sVonlybachelor
p6990
I1
sVwesley
p6991
I9
sV30
p6992
I7
sV35
p6993
I1
sV34
p6994
I1
sV[video-credit]
p6995
I1
sVopinion
p6996
I3
sVclimb
p6997
I1
sVvolc
p6998
I2
sVwin
p6999
I1
sVapp
p7000
I1
sVprivate
p7001
I1
sVmanny
p7002
I3
sVbuildup
p7003
I1
sVcloud
p7004
I1
sVuse
p7005
I2
sVfrom
p7006
I8
sVillegal
p7007
I1
sVnext
p7008
I1
sVsamina
p7009
I1
sV[js-cd__headline-text]
p7010
I1
sV[image]
p7011
I32
sVcolumba
p7012
I1
sV[el__storyelement__header]
p7013
I3
sVimpress
p7014
I1
sV[inline-content]
p7015
I2
sV[interactive-graphic]
p7016
I5
sVwomen
p7017
I6
sVaugment
p7018
I1
sVf
p7019
I1
sVthis
p7020
I19
sVride
p7021
I1
sVisland
p7022
I1
sVmeet
p7023
I3
sVdrops
p7024
I1
sV[ad-placeholder]
p7025
I22
sVdo
p7026
I3
sV[story-heading]
p7027
I8
sVhigh
p7028
I3
sV[rg-source-and-credit]
p7029
I1
sVtab
p7030
I1
sV[el__gallery-showhide]
p7031
I2
sV[highlight]
p7032
I1
sVrape
p7033
I1
sVtak
p7034
I3
sV[lede]
p7035
I9
sVbathiche
p7036
I2
sVoverse
p7037
I1
sV[skip-nav]
p7038
I13
sS'<thead>'
p7039
I1
sVcamille
p7040
I1
sVbrian
p7041
I1
sV[bg-related__link--primary]
p7042
I5
sS'<tbody>'
p7043
I1
sVinstead
p7044
I1
sVattend
p7045
I1
sVstop
p7046
I1
sVwaters
p7047
I1
sVact
p7048
I1
sVgardner
p7049
I1
sVtack
p7050
I1
sS'<h4>'
p7051
I7
sVstrawberr
p7052
I1
sV[layout-large-vertical]
p7053
I4
sVguatemala
p7054
I1
sVissu
p7055
I2
sVchief
p7056
I3
sVwrit
p7057
I1
sS'<article>'
p7058
I8
sVsix
p7059
I1
sV[el__storyhighlights__list]
p7060
I1
sVmove
p7061
I1
sVlooks
p7062
I1
sV[limit-xsmall]
p7063
I1
sV[related-coverage-marginalia]
p7064
I8
sVblake
p7065
I1
sVla
p7066
I2
sVbrook
p7067
I1
sVsunday
p7068
I1
sVlabor
p7069
I1
sV[g-show-medium]
p7070
I1
sV2015
p7071
I22
sV2014
p7072
I4
sVholiday
p7073
I1
sV2011
p7074
I2
sV2013
p7075
I2
sV2012
p7076
I4
sV[el__video--standard]
p7077
I1
sV[nytg-chart]
p7078
I1
sVmaterial
p7079
I1
sVintelligentapril
p7080
I1
sVdocu
p7081
I1
sVdar
p7082
I1
sVhands
p7083
I1
sVfront
p7084
I1
sVrepublican
p7085
I1
sVday
p7086
I2
sVfebruary
p7087
I2
sV[img-expandable]
p7088
I2
sVanyth
p7089
I1
sVuniversity
p7090
I2
sVnfl
p7091
I1
sV[story]
p7092
I8
sS'<p>'
p7093
I78
sVmode
p7094
I1
sVbills
p7095
I1
sVglobe
p7096
I7
sV[l-container]
p7097
I1
sV88
p7098
I1
sV[middle-left-ad]
p7099
I10
sV82
p7100
I1
sVour
p7101
I1
sVacireale
p7102
I1
sVspecial
p7103
I2
sVout
p7104
I3
sVlonghorns
p7105
I2
sV[layout-small]
p7106
I5
sVren
p7107
I1
sVevacuation
p7108
I1
sVcause
p7109
I1
sVfram
p7110
I1
sVpixelsense
p7111
I1
sVblackaswhite1
p7112
I1
sVtercera
p7113
I2
sVyork
p7114
I28
sVshum
p7115
I1
sV1983
p7116
I1
sVlexey
p7117
I3
sVroute
p7118
I1
sVpictur
p7119
I1
sVflorida
p7120
I2
sVghraib
p7121
I1
sVdavid
p7122
I3
sVnotebook
p7123
I1
sVdavis
p7124
I1
sV[interactive-summary]
p7125
I2
sVsouth
p7126
I1
sVchristoph
p7127
I1
sVpowerful
p7128
I1
sVlebond
p7129
I1
sS'<em>'
p7130
I2
sVsharon
p7131
I1
sVfestival
p7132
I1
sVsystem
p7133
I1
sVtheir
p7134
I3
sVpotts
p7135
I1
sVfinal
p7136
I2
sVgeorgetown
p7137
I1
sVotherwiseapril
p7138
I1
sV[marginalia]
p7139
I26
sVdetaine
p7140
I1
sVkamchatka
p7141
I1
sV[social-buttons]
p7142
I2
sVben
p7143
I3
sV[owl-filmstrip]
p7144
I2
sV[interactive-source]
p7145
I1
sVassociat
p7146
I2
sVspurt
p7147
I1
sV[el__gallery--fullstandardwidth]
p7148
I2
sVhave
p7149
I2
sVclose
p7150
I2
sVneed
p7151
I1
sVphotoslava
p7152
I1
sVagency
p7153
I3
sVvalcarcel
p7154
I1
sVsh
p7155
I1
sVwhich
p7156
I2
sVagence
p7157
I1
sVbrazil
p7158
I2
sVcollaboration
p7159
I1
sVwho
p7160
I8
sS'<time>'
p7161
I11
sV[byline-dateline]
p7162
I3
sVevacuate
p7163
I1
sVwhy
p7164
I2
sVstatute
p7165
I1
sVfach
p7166
I1
sVfrederick
p7167
I1
sVbreb
p7168
I1
sVface
p7169
I1
sVdetermin
p7170
I1
sVson
p7171
I2
sV[pb-caption]
p7172
I2
sVanyway
p7173
I1
sV[credit-caption]
p7174
I2
sS'<h5>'
p7175
I1
sVrough
p7176
I1
sVdebate
p7177
I1
sVdecade
p7178
I1
sVstaff
p7179
I2
sVtapp
p7180
I1
sVjan
p7181
I1
sV[el__storyhighlights--normal]
p7182
I1
sVlocal
p7183
I2
sV[hidden]
p7184
I11
sV[el-carousel__wrapper]
p7185
I2
sVcontribut
p7186
I2
sVbeat
p7187
I1
sVjonchesto
p7188
I1
sVfallout
p7189
I1
sVincreas
p7190
I1
sVyears
p7191
I2
sVgray
p7192
I5
sVgraduat
p7193
I1
sVh
p7194
I2
sVteams
p7195
I2
sVshe
p7196
I1
sV[photo-credit]
p7197
I1
sVview
p7198
I7
sVofficial
p7199
I1
sV[interactive-overlay]
p7200
I3
sVnational
p7201
I1
sV[g-show-submedium]
p7202
I1
sVedition
p7203
I3
sVofficials
p7204
I1
sVnuclear
p7205
I1
sV[js-gallery-aspect-ratio-wrapper]
p7206
I2
sVstate
p7207
I3
sV[gplus-btn]
p7208
I2
sVed14
p7209
I1
sV[nocontent]
p7210
I67
sVjanet
p7211
I1
sVdeliver
p7212
I1
sV[credit]
p7213
I43
sVjob
p7214
I1
sVpolice
p7215
I6
sVjon
p7216
I1
sVapril
p7217
I15
sVco
p7218
I1
sVwall
p7219
I1
sVca
p7220
I1
sVsubscribe
p7221
I4
sVab
p7222
I1
sVfukushima
p7223
I1
sVtable
p7224
I1
sV[body]
p7225
I2
sVattende
p7226
I1
sV[cn-list-hierarchical-xs]
p7227
I1
sVvideos
p7228
I1
sVgillette
p7229
I1
sV[eln-sul]
p7230
I1
sV[rg-subhed]
p7231
I1
sVtreat
p7232
I1
sVgaza
p7233
I1
sV[layout-small-horizontal]
p7234
I2
sV[layout-large]
p7235
I2
sVpuerto
p7236
I1
sVmike
p7237
I1
sVtreasur
p7238
I1
sVeverglad
p7239
I1
sV[story-meta]
p7240
I4
sVscrutiny
p7241
I1
sVontake
p7242
I1
sVgraphics
p7243
I1
sVcriminal
p7244
I1
sVbrasilia
p7245
I1
sVwill
p7246
I2
sVvolin
p7247
I2
sV[cd__headline]
p7248
I1
sVresident
p7249
I1
sVsite
p7250
I1
sVsurface
p7251
I2
sVbystanders
p7252
I1
sVpartner
p7253
I2
sVvolcanism
p7254
I1
sVbrekken
p7255
I1
sVplum
p7256
I1
sVgoddess
p7257
I1
sVtapper
p7258
I1
sVeric
p7259
I1
sVpkgs
p7260
I1
sVandroid
p7261
I1
sVgett
p7262
I2
sVpowell
p7263
I1
sVhttp
p7264
I1
sVreceiver
p7265
I1
sVdiploma
p7266
I1
sV[twitter-btn]
p7267
I2
sVdestruction
p7268
I1
sVrift
p7269
I1
sVoff
p7270
I7
sVcenter
p7271
I2
sV[twitter-tweet]
p7272
I2
sg2744
I4
sV[js-owl-filmstrip]
p7273
I2
sVwell
p7274
I1
sVbohn
p7275
I1
sVsets
p7276
I1
sVlatest
p7277
I1
sVnewest
p7278
I1
sVtavurvur
p7279
I1
sVgeller
p7280
I2
sVdistant
p7281
I1
sVrooms
p7282
I1
sVglobechadfinn
p7283
I1
sVsmith
p7284
I1
sVarrest
p7285
I2
sVother
p7286
I2
sV[sharetools]
p7287
I11
sVcrack
p7288
I1
sVmatch
p7289
I1
sVinterrogation
p7290
I2
sVbrookline
p7291
I1
sVburden
p7292
I1
sVpress
p7293
I3
sV[owl-carousel]
p7294
I2
sVlincoln
p7295
I1
sVpacheco
p7296
I1
sVlost
p7297
I1
sVmiami
p7298
I1
sVgangsters
p7299
I1
sVbecome
p7300
I1
sVworks
p7301
I1
sVpage
p7302
I14
sVbecause
p7303
I2
sVtwitter
p7304
I9
sVlibrary
p7305
I1
sVhome
p7306
I4
sVpeter
p7307
I4
sVthiev
p7308
I1
sV[zebra]
p7309
I1
sVlead
p7310
I1
sVoutgo
p7311
I1
sVleav
p7312
I1
sV[el__storyelement__title]
p7313
I3
sV?
p7314
I5
sVslight
p7315
I1
sVcamile
p7316
I1
sVslut
p7317
I1
sVpressure
p7318
I1
sVhost
p7319
I1
sV[story-content]
p7320
I4
sVpanel
p7321
I1
sVabout
p7322
I6
sVescanilla
p7323
I1
sVcolumn
p7324
I1
sVactualizado
p7325
I1
sVrevisa
p7326
I1
sVvennochi
p7327
I1
sVvibywiucjs
p7328
I1
sVwashington
p7329
I3
sS'<strong>'
p7330
I2
sVassess
p7331
I1
sVguard
p7332
I1
sVprofessionaldoctoral13
p7333
I1
sVfemale
p7334
I1
sVmarketapril
p7335
I1
sV1986
p7336
I1
sVadditional
p7337
I1
sV[inline-photo-right]
p7338
I1
sVmuseum
p7339
I1
sV[el__leafmedia--storyhighlights]
p7340
I1
sVsmil
p7341
I1
sV[g-show-smallplus]
p7342
I1
sVnorth
p7343
I3
sVfunds
p7344
I1
sVbut
p7345
I5
sVbum
p7346
I1
sVhe
p7347
I4
sg4185
I2
sVtroubl
p7348
I1
sVbelow
p7349
I13
sV[el__storyelements--expand]
p7350
I1
sVrealmjan
p7351
I1
sVpic
p7352
I2
sVphotosjeb
p7353
I1
sVeducation
p7354
I3
sVjenna
p7355
I1
sV47
p7356
I1
sV40
p7357
I1
sV41
p7358
I1
sVbook
p7359
I2
sVmass
p7360
I2
sVdiplomah
p7361
I1
sVconclusion
p7362
I1
sVstat
p7363
I1
sVfrancisco
p7364
I1
sVstar
p7365
I1
sVmargaret
p7366
I1
sVbaker
p7367
I1
sVwatchedresidents
p7368
I1
ssg5599
I215
ss.